ARM GAS  C:\Users\salaz\AppData\Local\Temp\ccnyouLe.s 			page 1


   1              		.syntax unified
   2              		.cpu cortex-m0plus
   3              		.fpu softvfp
   4              		.eabi_attribute 20, 1
   5              		.eabi_attribute 21, 1
   6              		.eabi_attribute 23, 3
   7              		.eabi_attribute 24, 1
   8              		.eabi_attribute 25, 1
   9              		.eabi_attribute 26, 1
  10              		.eabi_attribute 30, 1
  11              		.eabi_attribute 34, 0
  12              		.eabi_attribute 18, 4
  13              		.thumb
  14              		.syntax unified
  15              		.file	"Transmission.c"
  16              		.text
  17              	.Ltext0:
  18              		.cfi_sections	.debug_frame
  19              		.global	__aeabi_uldivmod
  20              		.global	__aeabi_idivmod
  21              		.section	.text.Transmission_EventHandler,"ax",%progbits
  22              		.align	2
  23              		.global	Transmission_EventHandler
  24              		.code	16
  25              		.thumb_func
  26              		.type	Transmission_EventHandler, %function
  27              	Transmission_EventHandler:
  28              	.LFB792:
  29              		.file 1 "Transmission.c"
   1:Transmission.c **** 
   2:Transmission.c **** #include <Transmission.h>
   3:Transmission.c **** #include <TxBuffer.h>
   4:Transmission.c **** #include <RxBuffer.h>
   5:Transmission.c **** #include <ErrorLogService.h>
   6:Transmission.c **** #include <UseProfileService.h>
   7:Transmission.c **** #include <SystemCore.h>
   8:Transmission.c **** 
   9:Transmission.c **** #include "project.h"
  10:Transmission.c **** 
  11:Transmission.c **** #include "debug.h"
  12:Transmission.c **** 
  13:Transmission.c **** //-------------------------------------------------------------//
  14:Transmission.c **** 
  15:Transmission.c **** bool is_advertising = false; // Global to KinOS.c
  16:Transmission.c **** bool is_connected = false;  // Global to KinOS.cBL
  17:Transmission.c **** 
  18:Transmission.c **** #define NUM_BYTES_PER_PACKET 1
  19:Transmission.c **** 
  20:Transmission.c **** //-------------------------------------------------------------//
  21:Transmission.c **** //-------------------BLUETOOTH-EVENT-HANDLING------------------//
  22:Transmission.c **** //-------------------------------------------------------------//
  23:Transmission.c **** 
  24:Transmission.c **** 
  25:Transmission.c **** void Transmission_EventHandler(uint32 eventCode, void *eventParam)
  26:Transmission.c **** {
  30              		.loc 1 26 0
  31              		.cfi_startproc
ARM GAS  C:\Users\salaz\AppData\Local\Temp\ccnyouLe.s 			page 2


  32              		@ args = 0, pretend = 0, frame = 56
  33              		@ frame_needed = 1, uses_anonymous_args = 0
  34              	.LVL0:
  35 0000 F0B5     		push	{r4, r5, r6, r7, lr}
  36              		.cfi_def_cfa_offset 20
  37              		.cfi_offset 4, -20
  38              		.cfi_offset 5, -16
  39              		.cfi_offset 6, -12
  40              		.cfi_offset 7, -8
  41              		.cfi_offset 14, -4
  42 0002 5746     		mov	r7, r10
  43 0004 4E46     		mov	r6, r9
  44 0006 4546     		mov	r5, r8
  45 0008 E0B4     		push	{r5, r6, r7}
  46              		.cfi_def_cfa_offset 32
  47              		.cfi_offset 8, -32
  48              		.cfi_offset 9, -28
  49              		.cfi_offset 10, -24
  50 000a 8EB0     		sub	sp, sp, #56
  51              		.cfi_def_cfa_offset 88
  52 000c 00AF     		add	r7, sp, #0
  53              		.cfi_def_cfa_register 7
  27:Transmission.c ****     bool was_advertising = is_advertising;
  54              		.loc 1 27 0
  55 000e C04B     		ldr	r3, .L32
  56 0010 1C78     		ldrb	r4, [r3]
  57              	.LVL1:
  28:Transmission.c ****     bool was_connected = is_connected;
  58              		.loc 1 28 0
  59 0012 5D78     		ldrb	r5, [r3, #1]
  60              	.LVL2:
  29:Transmission.c ****     
  30:Transmission.c ****     static cy_stc_ble_gap_peer_addr_info_t bondedDeviceInfo[CY_BLE_MAX_BONDED_DEVICES];
  31:Transmission.c ****     static cy_stc_ble_gap_bonded_device_list_info_t bondedDeviceList =
  32:Transmission.c ****     {
  33:Transmission.c ****         .bdHandleAddrList = bondedDeviceInfo
  34:Transmission.c ****     };
  35:Transmission.c ****     
  36:Transmission.c ****     switch( eventCode )
  61              		.loc 1 36 0
  62 0014 BF4B     		ldr	r3, .L32+4
  63 0016 9842     		cmp	r0, r3
  64 0018 31D8     		bhi	.L3
  65 001a BF4B     		ldr	r3, .L32+8
  66 001c 9842     		cmp	r0, r3
  67 001e 00D3     		bcc	.LCB35
  68 0020 5AE1     		b	.L4	@long jump
  69              	.LCB35:
  70 0022 BE4B     		ldr	r3, .L32+12
  71 0024 9842     		cmp	r0, r3
  72 0026 00D1     		bne	.LCB38
  73 0028 56E1     		b	.L4	@long jump
  74              	.LCB38:
  75 002a 11D8     		bhi	.L5
  76 002c BC4B     		ldr	r3, .L32+16
  77 002e 9842     		cmp	r0, r3
  78 0030 00D1     		bne	.LCB43
ARM GAS  C:\Users\salaz\AppData\Local\Temp\ccnyouLe.s 			page 3


  79 0032 51E1     		b	.L4	@long jump
  80              	.LCB43:
  81 0034 03D8     		bhi	.L6
  82 0036 013B     		subs	r3, r3, #1
  83 0038 9842     		cmp	r0, r3
  84 003a 44D0     		beq	.L7
  85 003c 3BE1     		b	.L2
  86              	.L6:
  87 003e B94B     		ldr	r3, .L32+20
  88 0040 9842     		cmp	r0, r3
  89 0042 00D1     		bne	.LCB55
  90 0044 48E1     		b	.L4	@long jump
  91              	.LCB55:
  92 0046 B84B     		ldr	r3, .L32+24
  93 0048 9842     		cmp	r0, r3
  94 004a 00D0     		beq	.LCB58
  95 004c 33E1     		b	.L2	@long jump
  96              	.LCB58:
  97 004e 43E1     		b	.L4
  98              	.L5:
  99 0050 B64B     		ldr	r3, .L32+28
 100 0052 9842     		cmp	r0, r3
 101 0054 00D1     		bne	.LCB65
 102 0056 3FE1     		b	.L4	@long jump
 103              	.LCB65:
 104 0058 08D8     		bhi	.L8
 105 005a B54B     		ldr	r3, .L32+32
 106 005c 9842     		cmp	r0, r3
 107 005e 00D1     		bne	.LCB70
 108 0060 3AE1     		b	.L4	@long jump
 109              	.LCB70:
 110 0062 B44B     		ldr	r3, .L32+36
 111 0064 9842     		cmp	r0, r3
 112 0066 00D1     		bne	.LCB73
 113 0068 13E1     		b	.L9	@long jump
 114              	.LCB73:
 115 006a 24E1     		b	.L2
 116              	.L8:
 117 006c B24B     		ldr	r3, .L32+40
 118 006e 9842     		cmp	r0, r3
 119 0070 00D1     		bne	.LCB80
 120 0072 8EE0     		b	.L10	@long jump
 121              	.LCB80:
 122 0074 B14B     		ldr	r3, .L32+44
 123 0076 9842     		cmp	r0, r3
 124 0078 00D1     		bne	.LCB83
 125 007a A9E0     		b	.L11	@long jump
 126              	.LCB83:
 127 007c 1BE1     		b	.L2
 128              	.L3:
 129 007e B04B     		ldr	r3, .L32+48
 130 0080 9842     		cmp	r0, r3
 131 0082 00D1     		bne	.LCB90
 132 0084 9EE0     		b	.L12	@long jump
 133              	.LCB90:
 134 0086 0FD8     		bhi	.L13
 135 0088 AE4B     		ldr	r3, .L32+52
ARM GAS  C:\Users\salaz\AppData\Local\Temp\ccnyouLe.s 			page 4


 136 008a 9842     		cmp	r0, r3
 137 008c 00D1     		bne	.LCB95
 138 008e A3E0     		b	.L14	@long jump
 139              	.LCB95:
 140 0090 04D8     		bhi	.L15
 141 0092 AD4B     		ldr	r3, .L32+56
 142 0094 9842     		cmp	r0, r3
 143 0096 00D0     		beq	.LCB100
 144 0098 0DE1     		b	.L2	@long jump
 145              	.LCB100:
 146 009a 1DE1     		b	.L4
 147              	.L15:
 148 009c AB4B     		ldr	r3, .L32+60
 149 009e C318     		adds	r3, r0, r3
 150 00a0 012B     		cmp	r3, #1
 151 00a2 00D9     		bls	.LCB108
 152 00a4 07E1     		b	.L2	@long jump
 153              	.LCB108:
 154 00a6 17E1     		b	.L4
 155              	.L13:
 156 00a8 A94B     		ldr	r3, .L32+64
 157 00aa 9842     		cmp	r0, r3
 158 00ac 00D1     		bne	.LCB116
 159 00ae C1E0     		b	.L16	@long jump
 160              	.LCB116:
 161 00b0 04D8     		bhi	.L17
 162 00b2 A84B     		ldr	r3, .L32+68
 163 00b4 9842     		cmp	r0, r3
 164 00b6 00D9     		bls	.LCB121
 165 00b8 FDE0     		b	.L2	@long jump
 166              	.LCB121:
 167 00ba 0DE1     		b	.L4
 168              	.L17:
 169 00bc A64B     		ldr	r3, .L32+72
 170 00be 9842     		cmp	r0, r3
 171 00c0 00D0     		beq	.LCB128
 172 00c2 F8E0     		b	.L2	@long jump
 173              	.LCB128:
 174 00c4 08E1     		b	.L4
 175              	.L7:
 176              	.LBB29:
  37:Transmission.c ****     {
  38:Transmission.c ****         case CY_BLE_EVT_STACK_ON:
  39:Transmission.c ****         {
  40:Transmission.c ****             cy_stc_ble_gap_bd_addr_info_t addr; addr.addrType = 0x00;
 177              		.loc 1 40 0
 178 00c6 1823     		movs	r3, #24
 179 00c8 0822     		movs	r2, #8
 180 00ca BA18     		adds	r2, r7, r2
 181 00cc D018     		adds	r0, r2, r3
 182              	.LVL3:
 183 00ce 0023     		movs	r3, #0
 184 00d0 C375     		strb	r3, [r0, #23]
  41:Transmission.c ****             Cy_BLE_GAP_GenerateBdAddress(&addr);
 185              		.loc 1 41 0
 186 00d2 FFF7FEFF 		bl	Cy_BLE_GAP_GenerateBdAddress
 187              	.LVL4:
ARM GAS  C:\Users\salaz\AppData\Local\Temp\ccnyouLe.s 			page 5


  42:Transmission.c ****             
  43:Transmission.c ****             cy_stc_ble_gap_bd_addr_t bdAddress = addr.gapBdAddr;
 188              		.loc 1 43 0
 189 00d6 2823     		movs	r3, #40
 190 00d8 0822     		movs	r2, #8
 191 00da BA18     		adds	r2, r7, r2
 192 00dc D018     		adds	r0, r2, r3
 193 00de 3B6B     		ldr	r3, [r7, #48]
 194 00e0 190A     		lsrs	r1, r3, #8
 195 00e2 1A0C     		lsrs	r2, r3, #16
 196 00e4 FB60     		str	r3, [r7, #12]
 197 00e6 8688     		ldrh	r6, [r0, #4]
 198 00e8 3E82     		strh	r6, [r7, #16]
 199 00ea 8079     		ldrb	r0, [r0, #6]
 200 00ec B874     		strb	r0, [r7, #18]
  44:Transmission.c ****             uint64 val0 = bdAddress.bdAddr[0];
 201              		.loc 1 44 0
 202 00ee D8B2     		uxtb	r0, r3
 203 00f0 8446     		mov	ip, r0
 204              	.LVL5:
  45:Transmission.c ****             uint64 val1 = bdAddress.bdAddr[1];
 205              		.loc 1 45 0
 206 00f2 C8B2     		uxtb	r0, r1
 207              	.LVL6:
  46:Transmission.c ****             uint64 val2 = bdAddress.bdAddr[2];
 208              		.loc 1 46 0
 209 00f4 D2B2     		uxtb	r2, r2
 210              	.LVL7:
  47:Transmission.c ****             uint64 val3 = bdAddress.bdAddr[3];
 211              		.loc 1 47 0
 212 00f6 1B0E     		lsrs	r3, r3, #24
 213 00f8 9846     		mov	r8, r3
 214              	.LVL8:
  48:Transmission.c ****             uint64 val4 = bdAddress.bdAddr[4];
  49:Transmission.c ****             uint64 val5 = bdAddress.bdAddr[5];
 215              		.loc 1 49 0
 216 00fa 310A     		lsrs	r1, r6, #8
 217              	.LVL9:
  50:Transmission.c ****             
  51:Transmission.c ****             uint64 code = ((uint64)bdAddress.bdAddr[0]<< 0)|((uint64)bdAddress.bdAddr[1]<<8 )|
 218              		.loc 1 51 0
 219 00fc 0002     		lsls	r0, r0, #8
 220              	.LVL10:
 221 00fe 6346     		mov	r3, ip
 222 0100 1843     		orrs	r0, r3
  52:Transmission.c ****                           ((uint64)bdAddress.bdAddr[2]<<16)|((uint64)bdAddress.bdAddr[3]<<24)|
 223              		.loc 1 52 0
 224 0102 1204     		lsls	r2, r2, #16
 225              	.LVL11:
  51:Transmission.c ****                           ((uint64)bdAddress.bdAddr[2]<<16)|((uint64)bdAddress.bdAddr[3]<<24)|
 226              		.loc 1 51 0
 227 0104 1043     		orrs	r0, r2
 228              		.loc 1 52 0
 229 0106 4346     		mov	r3, r8
 230 0108 1B06     		lsls	r3, r3, #24
 231 010a 1843     		orrs	r0, r3
 232 010c F6B2     		uxtb	r6, r6
ARM GAS  C:\Users\salaz\AppData\Local\Temp\ccnyouLe.s 			page 6


  53:Transmission.c ****                           ((uint64)bdAddress.bdAddr[4]<<32)|((uint64)bdAddress.bdAddr[5]<<40);
 233              		.loc 1 53 0
 234 010e 0902     		lsls	r1, r1, #8
 235              	.LVL12:
  51:Transmission.c ****                           ((uint64)bdAddress.bdAddr[2]<<16)|((uint64)bdAddress.bdAddr[3]<<24)|
 236              		.loc 1 51 0
 237 0110 3143     		orrs	r1, r6
 238              	.LVL13:
  54:Transmission.c ****             
  55:Transmission.c ****             uint16 id = (uint16)(code % 9973);
 239              		.loc 1 55 0
 240 0112 924A     		ldr	r2, .L32+76
 241 0114 0023     		movs	r3, #0
 242 0116 FFF7FEFF 		bl	__aeabi_uldivmod
 243              	.LVL14:
 244 011a 96B2     		uxth	r6, r2
 245              	.LVL15:
  56:Transmission.c ****             
  57:Transmission.c ****             char8 N1 = (((id & 0xF000) >> 12)%9) + '0';
 246              		.loc 1 57 0
 247 011c 300B     		lsrs	r0, r6, #12
 248 011e 0921     		movs	r1, #9
 249 0120 FFF7FEFF 		bl	__aeabi_idivmod
 250              	.LVL16:
 251 0124 3031     		adds	r1, r1, #48
 252 0126 CBB2     		uxtb	r3, r1
 253 0128 9A46     		mov	r10, r3
 254              	.LVL17:
  58:Transmission.c ****             char8 N2 = (((id & 0x0F00) >> 8) %9) + '0';
 255              		.loc 1 58 0
 256 012a 3012     		asrs	r0, r6, #8
 257 012c 0F23     		movs	r3, #15
 258 012e 9846     		mov	r8, r3
 259              	.LVL18:
 260 0130 1840     		ands	r0, r3
 261 0132 0921     		movs	r1, #9
 262 0134 FFF7FEFF 		bl	__aeabi_idivmod
 263              	.LVL19:
 264 0138 3031     		adds	r1, r1, #48
 265 013a CBB2     		uxtb	r3, r1
 266 013c 9946     		mov	r9, r3
 267              	.LVL20:
  59:Transmission.c ****             char8 N3 = (((id & 0x00F0) >> 4) %9) + '0';
 268              		.loc 1 59 0
 269 013e 3011     		asrs	r0, r6, #4
 270 0140 4346     		mov	r3, r8
 271 0142 1840     		ands	r0, r3
 272 0144 0921     		movs	r1, #9
 273 0146 FFF7FEFF 		bl	__aeabi_idivmod
 274              	.LVL21:
 275 014a 3031     		adds	r1, r1, #48
 276 014c CBB2     		uxtb	r3, r1
 277 014e 9846     		mov	r8, r3
 278              	.LVL22:
  60:Transmission.c ****             char8 N4 = (((id & 0x000F) >> 0) %9) + '0';
 279              		.loc 1 60 0
 280 0150 0F20     		movs	r0, #15
ARM GAS  C:\Users\salaz\AppData\Local\Temp\ccnyouLe.s 			page 7


 281 0152 3040     		ands	r0, r6
 282 0154 0921     		movs	r1, #9
 283 0156 FFF7FEFF 		bl	__aeabi_idivmod
 284              	.LVL23:
 285 015a 3031     		adds	r1, r1, #48
 286              	.LVL24:
  61:Transmission.c ****                         
  62:Transmission.c ****             char8 name[11] = {'K','i','n','o','X','i','-',N1,N2,N3,N4};
 287              		.loc 1 62 0
 288 015c 4B23     		movs	r3, #75
 289 015e 3B75     		strb	r3, [r7, #20]
 290 0160 1E33     		adds	r3, r3, #30
 291 0162 7B75     		strb	r3, [r7, #21]
 292 0164 6E22     		movs	r2, #110
 293 0166 BA75     		strb	r2, [r7, #22]
 294 0168 0132     		adds	r2, r2, #1
 295 016a FA75     		strb	r2, [r7, #23]
 296 016c 173A     		subs	r2, r2, #23
 297 016e 3A76     		strb	r2, [r7, #24]
 298 0170 7B76     		strb	r3, [r7, #25]
 299 0172 3C3B     		subs	r3, r3, #60
 300 0174 BB76     		strb	r3, [r7, #26]
 301 0176 5346     		mov	r3, r10
 302 0178 FB76     		strb	r3, [r7, #27]
 303 017a 4B46     		mov	r3, r9
 304 017c 3B77     		strb	r3, [r7, #28]
 305 017e 4346     		mov	r3, r8
 306 0180 7B77     		strb	r3, [r7, #29]
 307 0182 B977     		strb	r1, [r7, #30]
  63:Transmission.c ****             Cy_BLE_SetLocalName(name);
 308              		.loc 1 63 0
 309 0184 0C23     		movs	r3, #12
 310 0186 503A     		subs	r2, r2, #80
 311 0188 BA18     		adds	r2, r7, r2
 312 018a D018     		adds	r0, r2, r3
 313 018c FFF7FEFF 		bl	Cy_BLE_SetLocalName
 314              	.LVL25:
 315 0190 A2E0     		b	.L4
 316              	.LVL26:
 317              	.L10:
 318              	.LBE29:
 319              	.LBB30:
 320              	.LBB31:
 321              		.file 2 "Generated_Source\\PSoC6\\pdl\\middleware/ble/cy_ble_gap.h"
   1:Generated_Source\PSoC6\pdl\middleware/ble/cy_ble_gap.h **** /***************************************************************************//**
   2:Generated_Source\PSoC6\pdl\middleware/ble/cy_ble_gap.h **** * \file cy_ble_gap.h
   3:Generated_Source\PSoC6\pdl\middleware/ble/cy_ble_gap.h **** * \version 2.20
   4:Generated_Source\PSoC6\pdl\middleware/ble/cy_ble_gap.h **** *
   5:Generated_Source\PSoC6\pdl\middleware/ble/cy_ble_gap.h **** * \brief
   6:Generated_Source\PSoC6\pdl\middleware/ble/cy_ble_gap.h **** *  Contains the prototypes and constants used in the BLE GAP profile.
   7:Generated_Source\PSoC6\pdl\middleware/ble/cy_ble_gap.h **** *
   8:Generated_Source\PSoC6\pdl\middleware/ble/cy_ble_gap.h **** ********************************************************************************
   9:Generated_Source\PSoC6\pdl\middleware/ble/cy_ble_gap.h **** * \copyright
  10:Generated_Source\PSoC6\pdl\middleware/ble/cy_ble_gap.h **** * Copyright 2017-2018, Cypress Semiconductor Corporation.  All rights reserved.
  11:Generated_Source\PSoC6\pdl\middleware/ble/cy_ble_gap.h **** * You may use this file only in accordance with the license, terms, conditions,
  12:Generated_Source\PSoC6\pdl\middleware/ble/cy_ble_gap.h **** * disclaimers, and limitations in the end user license agreement accompanying
  13:Generated_Source\PSoC6\pdl\middleware/ble/cy_ble_gap.h **** * the software package with which this file was provided.
ARM GAS  C:\Users\salaz\AppData\Local\Temp\ccnyouLe.s 			page 8


  14:Generated_Source\PSoC6\pdl\middleware/ble/cy_ble_gap.h **** *******************************************************************************/
  15:Generated_Source\PSoC6\pdl\middleware/ble/cy_ble_gap.h **** 
  16:Generated_Source\PSoC6\pdl\middleware/ble/cy_ble_gap.h **** 
  17:Generated_Source\PSoC6\pdl\middleware/ble/cy_ble_gap.h **** #ifndef CY_BLE_GAP_H
  18:Generated_Source\PSoC6\pdl\middleware/ble/cy_ble_gap.h **** #define CY_BLE_GAP_H
  19:Generated_Source\PSoC6\pdl\middleware/ble/cy_ble_gap.h ****     
  20:Generated_Source\PSoC6\pdl\middleware/ble/cy_ble_gap.h **** #include "cy_ble_config.h"
  21:Generated_Source\PSoC6\pdl\middleware/ble/cy_ble_gap.h **** 
  22:Generated_Source\PSoC6\pdl\middleware/ble/cy_ble_gap.h **** /***************************************
  23:Generated_Source\PSoC6\pdl\middleware/ble/cy_ble_gap.h **** * BLE Stack includes
  24:Generated_Source\PSoC6\pdl\middleware/ble/cy_ble_gap.h **** ***************************************/
  25:Generated_Source\PSoC6\pdl\middleware/ble/cy_ble_gap.h **** #include "cy_ble_stack_gatt.h"    
  26:Generated_Source\PSoC6\pdl\middleware/ble/cy_ble_gap.h **** #include "cy_ble_stack_gap.h"
  27:Generated_Source\PSoC6\pdl\middleware/ble/cy_ble_gap.h **** #include "cy_ble_stack_gap_central.h"
  28:Generated_Source\PSoC6\pdl\middleware/ble/cy_ble_gap.h **** #include "cy_ble_stack_gap_peripheral.h"
  29:Generated_Source\PSoC6\pdl\middleware/ble/cy_ble_gap.h **** 
  30:Generated_Source\PSoC6\pdl\middleware/ble/cy_ble_gap.h **** /* C binding of definitions if building with C++ compiler */
  31:Generated_Source\PSoC6\pdl\middleware/ble/cy_ble_gap.h **** #ifdef __cplusplus
  32:Generated_Source\PSoC6\pdl\middleware/ble/cy_ble_gap.h **** extern "C" {
  33:Generated_Source\PSoC6\pdl\middleware/ble/cy_ble_gap.h **** #endif /* __cplusplus */
  34:Generated_Source\PSoC6\pdl\middleware/ble/cy_ble_gap.h **** 
  35:Generated_Source\PSoC6\pdl\middleware/ble/cy_ble_gap.h **** /***************************************
  36:Generated_Source\PSoC6\pdl\middleware/ble/cy_ble_gap.h **** * Conditional Compilation Parameters
  37:Generated_Source\PSoC6\pdl\middleware/ble/cy_ble_gap.h **** ***************************************/
  38:Generated_Source\PSoC6\pdl\middleware/ble/cy_ble_gap.h **** /**
  39:Generated_Source\PSoC6\pdl\middleware/ble/cy_ble_gap.h ****  * The BLE operation mode.
  40:Generated_Source\PSoC6\pdl\middleware/ble/cy_ble_gap.h ****  */
  41:Generated_Source\PSoC6\pdl\middleware/ble/cy_ble_gap.h **** #define CY_BLE_MODE                          (CY_BLE_CONFIG_MODE)
  42:Generated_Source\PSoC6\pdl\middleware/ble/cy_ble_gap.h **** 
  43:Generated_Source\PSoC6\pdl\middleware/ble/cy_ble_gap.h **** /** 
  44:Generated_Source\PSoC6\pdl\middleware/ble/cy_ble_gap.h ****  * Maximum number of BLE connections
  45:Generated_Source\PSoC6\pdl\middleware/ble/cy_ble_gap.h ****  * This parameter displays how many BLE connections (both Central and 
  46:Generated_Source\PSoC6\pdl\middleware/ble/cy_ble_gap.h ****  * Peripheral) are allowed. Valid range is from 1 to 4.
  47:Generated_Source\PSoC6\pdl\middleware/ble/cy_ble_gap.h ****  */
  48:Generated_Source\PSoC6\pdl\middleware/ble/cy_ble_gap.h **** #define CY_BLE_CONN_COUNT                    (CY_BLE_CONFIG_CONN_COUNT)
  49:Generated_Source\PSoC6\pdl\middleware/ble/cy_ble_gap.h ****  
  50:Generated_Source\PSoC6\pdl\middleware/ble/cy_ble_gap.h **** /**
  51:Generated_Source\PSoC6\pdl\middleware/ble/cy_ble_gap.h ****  * The GAP Role 
  52:Generated_Source\PSoC6\pdl\middleware/ble/cy_ble_gap.h ****  * The following defined mask can be used:
  53:Generated_Source\PSoC6\pdl\middleware/ble/cy_ble_gap.h ****  * CY_BLE_GAP_PERIPHERAL  (0x01u) - device operates as peripheral.
  54:Generated_Source\PSoC6\pdl\middleware/ble/cy_ble_gap.h ****  * CY_BLE_GAP_CENTRAL     (0x02u) - device operates as central. 
  55:Generated_Source\PSoC6\pdl\middleware/ble/cy_ble_gap.h ****  * CY_BLE_GAP_BROADCASTER (0x04u) - device operates as broadcaster.
  56:Generated_Source\PSoC6\pdl\middleware/ble/cy_ble_gap.h ****  * CY_BLE_GAP_OBSERVER    (0x08u) - device operates as observer.
  57:Generated_Source\PSoC6\pdl\middleware/ble/cy_ble_gap.h ****  * CY_BLE_GAP_HCI         (0x00u) - used when BLE operates in HCI mode.
  58:Generated_Source\PSoC6\pdl\middleware/ble/cy_ble_gap.h ****  */ 
  59:Generated_Source\PSoC6\pdl\middleware/ble/cy_ble_gap.h **** #define CY_BLE_GAP_ROLE                       (CY_BLE_CONFIG_GAP_ROLE)
  60:Generated_Source\PSoC6\pdl\middleware/ble/cy_ble_gap.h **** 
  61:Generated_Source\PSoC6\pdl\middleware/ble/cy_ble_gap.h **** /** The number of GAP Peripheral configurations structures */
  62:Generated_Source\PSoC6\pdl\middleware/ble/cy_ble_gap.h **** #define CY_BLE_GAP_PERIPHERAL_COUNT           (CY_BLE_CONFIG_GAP_PERIPHERAL_COUNT)
  63:Generated_Source\PSoC6\pdl\middleware/ble/cy_ble_gap.h **** 
  64:Generated_Source\PSoC6\pdl\middleware/ble/cy_ble_gap.h **** /** The number of GAP Broadcaster configurations structures */
  65:Generated_Source\PSoC6\pdl\middleware/ble/cy_ble_gap.h **** #define CY_BLE_GAP_BROADCASTER_COUNT          (CY_BLE_CONFIG_GAP_BROADCASTER_COUNT)
  66:Generated_Source\PSoC6\pdl\middleware/ble/cy_ble_gap.h **** 
  67:Generated_Source\PSoC6\pdl\middleware/ble/cy_ble_gap.h **** /** The number of GAP Central configurations structures */
  68:Generated_Source\PSoC6\pdl\middleware/ble/cy_ble_gap.h **** #define CY_BLE_GAP_CENTRAL_COUNT              (CY_BLE_CONFIG_GAP_CENTRAL_COUNT)
  69:Generated_Source\PSoC6\pdl\middleware/ble/cy_ble_gap.h **** 
  70:Generated_Source\PSoC6\pdl\middleware/ble/cy_ble_gap.h **** /** The number of GAP Observer configurations structures */
ARM GAS  C:\Users\salaz\AppData\Local\Temp\ccnyouLe.s 			page 9


  71:Generated_Source\PSoC6\pdl\middleware/ble/cy_ble_gap.h **** #define CY_BLE_GAP_OBSERVER_COUNT             (CY_BLE_CONFIG_GAP_OBSERVER_COUNT)
  72:Generated_Source\PSoC6\pdl\middleware/ble/cy_ble_gap.h **** 
  73:Generated_Source\PSoC6\pdl\middleware/ble/cy_ble_gap.h **** /** The number of Security configurations structures */
  74:Generated_Source\PSoC6\pdl\middleware/ble/cy_ble_gap.h **** #define CY_BLE_AUTH_INFO_COUNT                (CY_BLE_CONFIG_AUTH_INFO_COUNT)
  75:Generated_Source\PSoC6\pdl\middleware/ble/cy_ble_gap.h **** 
  76:Generated_Source\PSoC6\pdl\middleware/ble/cy_ble_gap.h **** /** The Bonding Requirement structures */
  77:Generated_Source\PSoC6\pdl\middleware/ble/cy_ble_gap.h **** #define CY_BLE_BONDING_REQUIREMENT            (CY_BLE_CONFIG_BONDING_REQUIREMENT)
  78:Generated_Source\PSoC6\pdl\middleware/ble/cy_ble_gap.h **** 
  79:Generated_Source\PSoC6\pdl\middleware/ble/cy_ble_gap.h **** /** The GAP Role defines */
  80:Generated_Source\PSoC6\pdl\middleware/ble/cy_ble_gap.h **** #define CY_BLE_GAP_ROLE_PERIPHERAL            (0u != (CY_BLE_GAP_ROLE & CY_BLE_GAP_PERIPHERAL))
  81:Generated_Source\PSoC6\pdl\middleware/ble/cy_ble_gap.h **** #define CY_BLE_GAP_ROLE_CENTRAL               (0u != (CY_BLE_GAP_ROLE & CY_BLE_GAP_CENTRAL))
  82:Generated_Source\PSoC6\pdl\middleware/ble/cy_ble_gap.h **** #define CY_BLE_GAP_ROLE_OBSERVER              (0u != (CY_BLE_GAP_ROLE & CY_BLE_GAP_OBSERVER))
  83:Generated_Source\PSoC6\pdl\middleware/ble/cy_ble_gap.h **** #define CY_BLE_GAP_ROLE_BROADCASTER           (0u != (CY_BLE_GAP_ROLE & CY_BLE_GAP_BROADCASTER))
  84:Generated_Source\PSoC6\pdl\middleware/ble/cy_ble_gap.h **** 
  85:Generated_Source\PSoC6\pdl\middleware/ble/cy_ble_gap.h **** #define CY_BLE_GAPP_CONF_COUNT                (CY_BLE_GAP_PERIPHERAL_COUNT + CY_BLE_GAP_BROADCASTER
  86:Generated_Source\PSoC6\pdl\middleware/ble/cy_ble_gap.h **** #define CY_BLE_GAPC_CONF_COUNT                (CY_BLE_GAP_CENTRAL_COUNT + CY_BLE_GAP_OBSERVER_COUNT
  87:Generated_Source\PSoC6\pdl\middleware/ble/cy_ble_gap.h **** 
  88:Generated_Source\PSoC6\pdl\middleware/ble/cy_ble_gap.h **** /***************************************
  89:Generated_Source\PSoC6\pdl\middleware/ble/cy_ble_gap.h **** * Type Definitions
  90:Generated_Source\PSoC6\pdl\middleware/ble/cy_ble_gap.h **** ***************************************/
  91:Generated_Source\PSoC6\pdl\middleware/ble/cy_ble_gap.h **** 
  92:Generated_Source\PSoC6\pdl\middleware/ble/cy_ble_gap.h **** #if (CY_BLE_MODE_PROFILE)
  93:Generated_Source\PSoC6\pdl\middleware/ble/cy_ble_gap.h **** 
  94:Generated_Source\PSoC6\pdl\middleware/ble/cy_ble_gap.h **** /***************************************
  95:Generated_Source\PSoC6\pdl\middleware/ble/cy_ble_gap.h **** * Enumerated Types and Structures
  96:Generated_Source\PSoC6\pdl\middleware/ble/cy_ble_gap.h **** ***************************************/
  97:Generated_Source\PSoC6\pdl\middleware/ble/cy_ble_gap.h **** 
  98:Generated_Source\PSoC6\pdl\middleware/ble/cy_ble_gap.h **** /**
  99:Generated_Source\PSoC6\pdl\middleware/ble/cy_ble_gap.h ****  * \addtogroup group_ble_common_api_gap_definitions
 100:Generated_Source\PSoC6\pdl\middleware/ble/cy_ble_gap.h ****  * @{
 101:Generated_Source\PSoC6\pdl\middleware/ble/cy_ble_gap.h ****  */
 102:Generated_Source\PSoC6\pdl\middleware/ble/cy_ble_gap.h **** 
 103:Generated_Source\PSoC6\pdl\middleware/ble/cy_ble_gap.h **** /** BLE state machine type */
 104:Generated_Source\PSoC6\pdl\middleware/ble/cy_ble_gap.h **** typedef enum
 105:Generated_Source\PSoC6\pdl\middleware/ble/cy_ble_gap.h **** {
 106:Generated_Source\PSoC6\pdl\middleware/ble/cy_ble_gap.h ****     CY_BLE_STATE_STOPPED,                             /**< BLE is turned off */
 107:Generated_Source\PSoC6\pdl\middleware/ble/cy_ble_gap.h ****     CY_BLE_STATE_INITIALIZING,                        /**< Initializing state */
 108:Generated_Source\PSoC6\pdl\middleware/ble/cy_ble_gap.h ****     CY_BLE_STATE_ON,                                  /**< BLE is turned on */
 109:Generated_Source\PSoC6\pdl\middleware/ble/cy_ble_gap.h **** #if (CY_BLE_GAP_ROLE_CENTRAL)
 110:Generated_Source\PSoC6\pdl\middleware/ble/cy_ble_gap.h ****     CY_BLE_STATE_CONNECTING,                          /**< Connecting */
 111:Generated_Source\PSoC6\pdl\middleware/ble/cy_ble_gap.h **** #endif /* CY_BLE_GAP_ROLE_CENTRAL */
 112:Generated_Source\PSoC6\pdl\middleware/ble/cy_ble_gap.h **** } cy_en_ble_state_t;
 113:Generated_Source\PSoC6\pdl\middleware/ble/cy_ble_gap.h **** 
 114:Generated_Source\PSoC6\pdl\middleware/ble/cy_ble_gap.h **** 
 115:Generated_Source\PSoC6\pdl\middleware/ble/cy_ble_gap.h **** /** Scanning state machine type */
 116:Generated_Source\PSoC6\pdl\middleware/ble/cy_ble_gap.h **** typedef enum
 117:Generated_Source\PSoC6\pdl\middleware/ble/cy_ble_gap.h **** {
 118:Generated_Source\PSoC6\pdl\middleware/ble/cy_ble_gap.h ****     CY_BLE_SCAN_STATE_STOPPED,                        /**< Scanning is stopped */
 119:Generated_Source\PSoC6\pdl\middleware/ble/cy_ble_gap.h ****     CY_BLE_SCAN_STATE_SCAN_INITIATED,                 /**< Scanning is initiated */
 120:Generated_Source\PSoC6\pdl\middleware/ble/cy_ble_gap.h ****     CY_BLE_SCAN_STATE_SCANNING,                       /**< Scanning process */
 121:Generated_Source\PSoC6\pdl\middleware/ble/cy_ble_gap.h ****     CY_BLE_SCAN_STATE_STOP_INITIATED                  /**< Stop scanning is initiated */
 122:Generated_Source\PSoC6\pdl\middleware/ble/cy_ble_gap.h **** } cy_en_ble_scan_state_t;
 123:Generated_Source\PSoC6\pdl\middleware/ble/cy_ble_gap.h **** 
 124:Generated_Source\PSoC6\pdl\middleware/ble/cy_ble_gap.h **** /** Advertising state machine type */
 125:Generated_Source\PSoC6\pdl\middleware/ble/cy_ble_gap.h **** typedef enum
 126:Generated_Source\PSoC6\pdl\middleware/ble/cy_ble_gap.h **** {
 127:Generated_Source\PSoC6\pdl\middleware/ble/cy_ble_gap.h ****     CY_BLE_ADV_STATE_STOPPED,                         /**< Advertising is stopped */
ARM GAS  C:\Users\salaz\AppData\Local\Temp\ccnyouLe.s 			page 10


 128:Generated_Source\PSoC6\pdl\middleware/ble/cy_ble_gap.h ****     CY_BLE_ADV_STATE_ADV_INITIATED,                   /**< Advertising is initiated */
 129:Generated_Source\PSoC6\pdl\middleware/ble/cy_ble_gap.h ****     CY_BLE_ADV_STATE_ADVERTISING,                     /**< Advertising process */
 130:Generated_Source\PSoC6\pdl\middleware/ble/cy_ble_gap.h ****     CY_BLE_ADV_STATE_STOP_INITIATED                   /**< Stop advertising is initiated */
 131:Generated_Source\PSoC6\pdl\middleware/ble/cy_ble_gap.h **** } cy_en_ble_adv_state_t;
 132:Generated_Source\PSoC6\pdl\middleware/ble/cy_ble_gap.h **** 
 133:Generated_Source\PSoC6\pdl\middleware/ble/cy_ble_gap.h **** /** Connection state machine type */
 134:Generated_Source\PSoC6\pdl\middleware/ble/cy_ble_gap.h **** typedef enum
 135:Generated_Source\PSoC6\pdl\middleware/ble/cy_ble_gap.h **** {
 136:Generated_Source\PSoC6\pdl\middleware/ble/cy_ble_gap.h ****     CY_BLE_CONN_STATE_DISCONNECTED,                   /**< Essentially idle state */
 137:Generated_Source\PSoC6\pdl\middleware/ble/cy_ble_gap.h ****     CY_BLE_CONN_STATE_CLIENT_DISCONNECTED_DISCOVERED, /**< Server is disconnected but discovered */
 138:Generated_Source\PSoC6\pdl\middleware/ble/cy_ble_gap.h ****     CY_BLE_CONN_STATE_CONNECTED,                      /**< Peer device is connected for this and fo
 139:Generated_Source\PSoC6\pdl\middleware/ble/cy_ble_gap.h ****     CY_BLE_CONN_STATE_CLIENT_SRVC_DISCOVERING,        /**< Server services are being discovered */
 140:Generated_Source\PSoC6\pdl\middleware/ble/cy_ble_gap.h ****     CY_BLE_CONN_STATE_CLIENT_INCL_DISCOVERING,        /**< Server included services are being disco
 141:Generated_Source\PSoC6\pdl\middleware/ble/cy_ble_gap.h ****     CY_BLE_CONN_STATE_CLIENT_CHAR_DISCOVERING,        /**< Server characteristics are being discove
 142:Generated_Source\PSoC6\pdl\middleware/ble/cy_ble_gap.h ****     CY_BLE_CONN_STATE_CLIENT_DESCR_DISCOVERING,       /**< Server char. descriptors are being disco
 143:Generated_Source\PSoC6\pdl\middleware/ble/cy_ble_gap.h ****     CY_BLE_CONN_STATE_CLIENT_DISCOVERED               /**< Server is discovered */
 144:Generated_Source\PSoC6\pdl\middleware/ble/cy_ble_gap.h **** } cy_en_ble_conn_state_t;
 145:Generated_Source\PSoC6\pdl\middleware/ble/cy_ble_gap.h **** 
 146:Generated_Source\PSoC6\pdl\middleware/ble/cy_ble_gap.h **** /** Structure with Generic Access Profile Service (GAPS) attribute handles */
 147:Generated_Source\PSoC6\pdl\middleware/ble/cy_ble_gap.h **** typedef struct
 148:Generated_Source\PSoC6\pdl\middleware/ble/cy_ble_gap.h **** {
 149:Generated_Source\PSoC6\pdl\middleware/ble/cy_ble_gap.h ****     /** Service handle*/
 150:Generated_Source\PSoC6\pdl\middleware/ble/cy_ble_gap.h ****     cy_ble_gatt_db_attr_handle_t serviceHandle;
 151:Generated_Source\PSoC6\pdl\middleware/ble/cy_ble_gap.h **** 
 152:Generated_Source\PSoC6\pdl\middleware/ble/cy_ble_gap.h ****     /** Handle of the GAPS Device Name Characteristic */
 153:Generated_Source\PSoC6\pdl\middleware/ble/cy_ble_gap.h ****     cy_ble_gatt_db_attr_handle_t deviceNameCharHandle;
 154:Generated_Source\PSoC6\pdl\middleware/ble/cy_ble_gap.h **** 
 155:Generated_Source\PSoC6\pdl\middleware/ble/cy_ble_gap.h ****     /** Handle of the GAPS Appearance Characteristic */
 156:Generated_Source\PSoC6\pdl\middleware/ble/cy_ble_gap.h ****     cy_ble_gatt_db_attr_handle_t appearanceCharHandle;
 157:Generated_Source\PSoC6\pdl\middleware/ble/cy_ble_gap.h **** 
 158:Generated_Source\PSoC6\pdl\middleware/ble/cy_ble_gap.h ****     /** Handle of the GAPS Peripheral Preferred Connection Parameters Characteristic */
 159:Generated_Source\PSoC6\pdl\middleware/ble/cy_ble_gap.h ****     cy_ble_gatt_db_attr_handle_t prefConnParamCharHandle;
 160:Generated_Source\PSoC6\pdl\middleware/ble/cy_ble_gap.h **** 
 161:Generated_Source\PSoC6\pdl\middleware/ble/cy_ble_gap.h ****     /** Handle of the GAPS Central Address Resolution characteristic */
 162:Generated_Source\PSoC6\pdl\middleware/ble/cy_ble_gap.h ****     cy_ble_gatt_db_attr_handle_t centralAddrResolutionCharHandle;
 163:Generated_Source\PSoC6\pdl\middleware/ble/cy_ble_gap.h **** 
 164:Generated_Source\PSoC6\pdl\middleware/ble/cy_ble_gap.h ****     /** Handle of the GAPS Resolvable Private Address Only characteristic */
 165:Generated_Source\PSoC6\pdl\middleware/ble/cy_ble_gap.h ****     cy_ble_gatt_db_attr_handle_t resolvablePrivateAddressOnly;
 166:Generated_Source\PSoC6\pdl\middleware/ble/cy_ble_gap.h **** } cy_stc_ble_gaps_t;
 167:Generated_Source\PSoC6\pdl\middleware/ble/cy_ble_gap.h **** 
 168:Generated_Source\PSoC6\pdl\middleware/ble/cy_ble_gap.h **** /** GAP Service characteristics server's GATT DB handles structure type */
 169:Generated_Source\PSoC6\pdl\middleware/ble/cy_ble_gap.h **** typedef struct
 170:Generated_Source\PSoC6\pdl\middleware/ble/cy_ble_gap.h **** {
 171:Generated_Source\PSoC6\pdl\middleware/ble/cy_ble_gap.h ****     /** Handle of the GAPS Device Name Characteristic */
 172:Generated_Source\PSoC6\pdl\middleware/ble/cy_ble_gap.h ****     cy_ble_gatt_db_attr_handle_t deviceNameCharHandle;
 173:Generated_Source\PSoC6\pdl\middleware/ble/cy_ble_gap.h **** 
 174:Generated_Source\PSoC6\pdl\middleware/ble/cy_ble_gap.h ****     /** Handle of the GAPS Appearance Characteristic */
 175:Generated_Source\PSoC6\pdl\middleware/ble/cy_ble_gap.h ****     cy_ble_gatt_db_attr_handle_t appearanceCharHandle;
 176:Generated_Source\PSoC6\pdl\middleware/ble/cy_ble_gap.h **** 
 177:Generated_Source\PSoC6\pdl\middleware/ble/cy_ble_gap.h ****     /** Handle of the GAPS Peripheral Privacy Flag Parameters Characteristic */
 178:Generated_Source\PSoC6\pdl\middleware/ble/cy_ble_gap.h ****     cy_ble_gatt_db_attr_handle_t periphPrivacyCharHandle;
 179:Generated_Source\PSoC6\pdl\middleware/ble/cy_ble_gap.h **** 
 180:Generated_Source\PSoC6\pdl\middleware/ble/cy_ble_gap.h ****     /** Handle of the GAPS Reconnection Address Characteristic */
 181:Generated_Source\PSoC6\pdl\middleware/ble/cy_ble_gap.h ****     cy_ble_gatt_db_attr_handle_t reconnAddrCharHandle;
 182:Generated_Source\PSoC6\pdl\middleware/ble/cy_ble_gap.h **** 
 183:Generated_Source\PSoC6\pdl\middleware/ble/cy_ble_gap.h ****     /** Handle of the GAPS Peripheral Preferred Connection Parameters Characteristic */
 184:Generated_Source\PSoC6\pdl\middleware/ble/cy_ble_gap.h ****     cy_ble_gatt_db_attr_handle_t prefConnParamCharHandle;
ARM GAS  C:\Users\salaz\AppData\Local\Temp\ccnyouLe.s 			page 11


 185:Generated_Source\PSoC6\pdl\middleware/ble/cy_ble_gap.h **** 
 186:Generated_Source\PSoC6\pdl\middleware/ble/cy_ble_gap.h ****     /** Handle of the GAPS Central Address Resolution characteristic */
 187:Generated_Source\PSoC6\pdl\middleware/ble/cy_ble_gap.h ****     cy_ble_gatt_db_attr_handle_t centralAddrResolutionCharHandle;
 188:Generated_Source\PSoC6\pdl\middleware/ble/cy_ble_gap.h **** 
 189:Generated_Source\PSoC6\pdl\middleware/ble/cy_ble_gap.h ****     /** Handle of the GAPS Resolvable Private Address Only characteristic */
 190:Generated_Source\PSoC6\pdl\middleware/ble/cy_ble_gap.h ****     cy_ble_gatt_db_attr_handle_t resolvablePrivateAddressOnly;
 191:Generated_Source\PSoC6\pdl\middleware/ble/cy_ble_gap.h **** }cy_stc_ble_gapc_t;
 192:Generated_Source\PSoC6\pdl\middleware/ble/cy_ble_gap.h **** 
 193:Generated_Source\PSoC6\pdl\middleware/ble/cy_ble_gap.h **** /* Stack mode defines */
 194:Generated_Source\PSoC6\pdl\middleware/ble/cy_ble_gap.h **** 
 195:Generated_Source\PSoC6\pdl\middleware/ble/cy_ble_gap.h **** /** Advertisement SIG assigned numbers */
 196:Generated_Source\PSoC6\pdl\middleware/ble/cy_ble_gap.h **** typedef enum
 197:Generated_Source\PSoC6\pdl\middleware/ble/cy_ble_gap.h **** {
 198:Generated_Source\PSoC6\pdl\middleware/ble/cy_ble_gap.h ****     /** Flags */
 199:Generated_Source\PSoC6\pdl\middleware/ble/cy_ble_gap.h ****     CY_BLE_GAP_ADV_FLAGS = 0x01u,
 200:Generated_Source\PSoC6\pdl\middleware/ble/cy_ble_gap.h **** 
 201:Generated_Source\PSoC6\pdl\middleware/ble/cy_ble_gap.h ****     /** Incomplete List of 16-bit Service Class UUIDs */
 202:Generated_Source\PSoC6\pdl\middleware/ble/cy_ble_gap.h ****     CY_BLE_GAP_ADV_INCOMPL_16UUID,
 203:Generated_Source\PSoC6\pdl\middleware/ble/cy_ble_gap.h **** 
 204:Generated_Source\PSoC6\pdl\middleware/ble/cy_ble_gap.h ****     /** Complete List of 16-bit Service Class UUIDs */
 205:Generated_Source\PSoC6\pdl\middleware/ble/cy_ble_gap.h ****     CY_BLE_GAP_ADV_COMPL_16UUID,
 206:Generated_Source\PSoC6\pdl\middleware/ble/cy_ble_gap.h **** 
 207:Generated_Source\PSoC6\pdl\middleware/ble/cy_ble_gap.h ****     /** Incomplete List of 32-bit Service Class UUIDs */
 208:Generated_Source\PSoC6\pdl\middleware/ble/cy_ble_gap.h ****     CY_BLE_GAP_ADV_INCOMPL_32_UUID,
 209:Generated_Source\PSoC6\pdl\middleware/ble/cy_ble_gap.h **** 
 210:Generated_Source\PSoC6\pdl\middleware/ble/cy_ble_gap.h ****     /** Complete List of 32-bit Service Class UUIDs */
 211:Generated_Source\PSoC6\pdl\middleware/ble/cy_ble_gap.h ****     CY_BLE_GAP_ADV_COMPL_32_UUID,
 212:Generated_Source\PSoC6\pdl\middleware/ble/cy_ble_gap.h **** 
 213:Generated_Source\PSoC6\pdl\middleware/ble/cy_ble_gap.h ****     /** Incomplete List of 128-bit Service Class UUIDs */
 214:Generated_Source\PSoC6\pdl\middleware/ble/cy_ble_gap.h ****     CY_BLE_GAP_ADV_INCOMPL_128_UUID,
 215:Generated_Source\PSoC6\pdl\middleware/ble/cy_ble_gap.h **** 
 216:Generated_Source\PSoC6\pdl\middleware/ble/cy_ble_gap.h ****     /** Complete List of 128-bit Service Class UUIDs */
 217:Generated_Source\PSoC6\pdl\middleware/ble/cy_ble_gap.h ****     CY_BLE_GAP_ADV_COMPL_128_UUID,
 218:Generated_Source\PSoC6\pdl\middleware/ble/cy_ble_gap.h **** 
 219:Generated_Source\PSoC6\pdl\middleware/ble/cy_ble_gap.h ****     /** Shortened Local Name */
 220:Generated_Source\PSoC6\pdl\middleware/ble/cy_ble_gap.h ****     CY_BLE_GAP_ADV_SHORT_NAME,
 221:Generated_Source\PSoC6\pdl\middleware/ble/cy_ble_gap.h **** 
 222:Generated_Source\PSoC6\pdl\middleware/ble/cy_ble_gap.h ****     /** Complete Local Name */
 223:Generated_Source\PSoC6\pdl\middleware/ble/cy_ble_gap.h ****     CY_BLE_GAP_ADV_COMPL_NAME,
 224:Generated_Source\PSoC6\pdl\middleware/ble/cy_ble_gap.h **** 
 225:Generated_Source\PSoC6\pdl\middleware/ble/cy_ble_gap.h ****     /** Tx Power Level */
 226:Generated_Source\PSoC6\pdl\middleware/ble/cy_ble_gap.h ****     CY_BLE_GAP_ADV_TX_PWR_LVL,
 227:Generated_Source\PSoC6\pdl\middleware/ble/cy_ble_gap.h **** 
 228:Generated_Source\PSoC6\pdl\middleware/ble/cy_ble_gap.h ****     /** Class of Device */
 229:Generated_Source\PSoC6\pdl\middleware/ble/cy_ble_gap.h ****     CY_BLE_GAP_ADV_CLASS_OF_DEVICE = 0x0Du,
 230:Generated_Source\PSoC6\pdl\middleware/ble/cy_ble_gap.h **** 
 231:Generated_Source\PSoC6\pdl\middleware/ble/cy_ble_gap.h ****     /** Simple Pairing Hash C */
 232:Generated_Source\PSoC6\pdl\middleware/ble/cy_ble_gap.h ****     CY_BLE_GAP_ADV_SMPL_PAIR_HASH_C,
 233:Generated_Source\PSoC6\pdl\middleware/ble/cy_ble_gap.h **** 
 234:Generated_Source\PSoC6\pdl\middleware/ble/cy_ble_gap.h ****     /** Simple Pairing Randomizer R */
 235:Generated_Source\PSoC6\pdl\middleware/ble/cy_ble_gap.h ****     CY_BLE_GAP_ADV_SMPL_PAIR_RANDOM_R,
 236:Generated_Source\PSoC6\pdl\middleware/ble/cy_ble_gap.h **** 
 237:Generated_Source\PSoC6\pdl\middleware/ble/cy_ble_gap.h ****     /** Device ID*/
 238:Generated_Source\PSoC6\pdl\middleware/ble/cy_ble_gap.h ****     CY_BLE_GAP_ADV_DEVICE_ID,
 239:Generated_Source\PSoC6\pdl\middleware/ble/cy_ble_gap.h **** 
 240:Generated_Source\PSoC6\pdl\middleware/ble/cy_ble_gap.h ****     /** Security Manager TK Value */
 241:Generated_Source\PSoC6\pdl\middleware/ble/cy_ble_gap.h ****     CY_BLE_GAP_ADV_SCRT_MNGR_TK_VAL = 0x10u,
ARM GAS  C:\Users\salaz\AppData\Local\Temp\ccnyouLe.s 			page 12


 242:Generated_Source\PSoC6\pdl\middleware/ble/cy_ble_gap.h **** 
 243:Generated_Source\PSoC6\pdl\middleware/ble/cy_ble_gap.h ****     /** Security Manager Out of Band Flags */
 244:Generated_Source\PSoC6\pdl\middleware/ble/cy_ble_gap.h ****     CY_BLE_GAP_ADV_SCRT_MNGR_OOB_FLAGS,
 245:Generated_Source\PSoC6\pdl\middleware/ble/cy_ble_gap.h **** 
 246:Generated_Source\PSoC6\pdl\middleware/ble/cy_ble_gap.h ****     /** Slave Connection Interval Range */
 247:Generated_Source\PSoC6\pdl\middleware/ble/cy_ble_gap.h ****     CY_BLE_GAP_ADV_SLAVE_CONN_INTRV_RANGE,
 248:Generated_Source\PSoC6\pdl\middleware/ble/cy_ble_gap.h **** 
 249:Generated_Source\PSoC6\pdl\middleware/ble/cy_ble_gap.h ****     /** List of 16-bit Service Solicitation UUIDs */
 250:Generated_Source\PSoC6\pdl\middleware/ble/cy_ble_gap.h ****     CY_BLE_GAP_ADV_SOLICIT_16UUID = 0x14u,
 251:Generated_Source\PSoC6\pdl\middleware/ble/cy_ble_gap.h **** 
 252:Generated_Source\PSoC6\pdl\middleware/ble/cy_ble_gap.h ****     /** List of 128-bit Service Solicitation UUIDs */
 253:Generated_Source\PSoC6\pdl\middleware/ble/cy_ble_gap.h ****     CY_BLE_GAP_ADV_SOLICIT_128UUID,
 254:Generated_Source\PSoC6\pdl\middleware/ble/cy_ble_gap.h **** 
 255:Generated_Source\PSoC6\pdl\middleware/ble/cy_ble_gap.h ****     /** Service Data - 16-bit UUID */
 256:Generated_Source\PSoC6\pdl\middleware/ble/cy_ble_gap.h ****     CY_BLE_GAP_ADV_SRVC_DATA_16UUID,
 257:Generated_Source\PSoC6\pdl\middleware/ble/cy_ble_gap.h **** 
 258:Generated_Source\PSoC6\pdl\middleware/ble/cy_ble_gap.h ****     /** Public Target Address */
 259:Generated_Source\PSoC6\pdl\middleware/ble/cy_ble_gap.h ****     CY_BLE_GAP_ADV_PUBLIC_TARGET_ADDR,
 260:Generated_Source\PSoC6\pdl\middleware/ble/cy_ble_gap.h **** 
 261:Generated_Source\PSoC6\pdl\middleware/ble/cy_ble_gap.h ****     /** Random Target Address */
 262:Generated_Source\PSoC6\pdl\middleware/ble/cy_ble_gap.h ****     CY_BLE_GAP_ADV_RANDOM_TARGET_ADDR,
 263:Generated_Source\PSoC6\pdl\middleware/ble/cy_ble_gap.h **** 
 264:Generated_Source\PSoC6\pdl\middleware/ble/cy_ble_gap.h ****     /** Appearance */
 265:Generated_Source\PSoC6\pdl\middleware/ble/cy_ble_gap.h ****     CY_BLE_GAP_ADV_APPEARANCE,
 266:Generated_Source\PSoC6\pdl\middleware/ble/cy_ble_gap.h **** 
 267:Generated_Source\PSoC6\pdl\middleware/ble/cy_ble_gap.h ****     /** Advertising Interval */
 268:Generated_Source\PSoC6\pdl\middleware/ble/cy_ble_gap.h ****     CY_BLE_GAP_ADV_ADVERT_INTERVAL,
 269:Generated_Source\PSoC6\pdl\middleware/ble/cy_ble_gap.h **** 
 270:Generated_Source\PSoC6\pdl\middleware/ble/cy_ble_gap.h ****     /** LE Bluetooth Device Address */
 271:Generated_Source\PSoC6\pdl\middleware/ble/cy_ble_gap.h ****     CY_BLE_GAP_ADV_LE_BT_DEVICE_ADDR,
 272:Generated_Source\PSoC6\pdl\middleware/ble/cy_ble_gap.h **** 
 273:Generated_Source\PSoC6\pdl\middleware/ble/cy_ble_gap.h ****     /** LE Role */
 274:Generated_Source\PSoC6\pdl\middleware/ble/cy_ble_gap.h ****     CY_BLE_GAP_ADV_LE_ROLE,
 275:Generated_Source\PSoC6\pdl\middleware/ble/cy_ble_gap.h **** 
 276:Generated_Source\PSoC6\pdl\middleware/ble/cy_ble_gap.h ****     /** Simple Pairing Hash C-256 */
 277:Generated_Source\PSoC6\pdl\middleware/ble/cy_ble_gap.h ****     CY_BLE_GAP_ADV_SMPL_PAIR_HASH_C256,
 278:Generated_Source\PSoC6\pdl\middleware/ble/cy_ble_gap.h **** 
 279:Generated_Source\PSoC6\pdl\middleware/ble/cy_ble_gap.h ****     /** Simple Pairing Randomizer R-256 */
 280:Generated_Source\PSoC6\pdl\middleware/ble/cy_ble_gap.h ****     CY_BLE_GAP_ADV_SMPL_PAIR_RANDOM_R256,
 281:Generated_Source\PSoC6\pdl\middleware/ble/cy_ble_gap.h **** 
 282:Generated_Source\PSoC6\pdl\middleware/ble/cy_ble_gap.h ****     /** List of 32-bit Service Solicitation UUIDs */
 283:Generated_Source\PSoC6\pdl\middleware/ble/cy_ble_gap.h ****     CY_BLE_GAP_ADV_SOLICIT_32UUID,
 284:Generated_Source\PSoC6\pdl\middleware/ble/cy_ble_gap.h **** 
 285:Generated_Source\PSoC6\pdl\middleware/ble/cy_ble_gap.h ****     /** Service Data - 32-bit UUID */
 286:Generated_Source\PSoC6\pdl\middleware/ble/cy_ble_gap.h ****     CY_BLE_GAP_ADV_SRVC_DATA_32UUID,
 287:Generated_Source\PSoC6\pdl\middleware/ble/cy_ble_gap.h **** 
 288:Generated_Source\PSoC6\pdl\middleware/ble/cy_ble_gap.h ****     /** Service Data - 128-bit UUID */
 289:Generated_Source\PSoC6\pdl\middleware/ble/cy_ble_gap.h ****     CY_BLE_GAP_ADV_SRVC_DATA_128UUID,
 290:Generated_Source\PSoC6\pdl\middleware/ble/cy_ble_gap.h **** 
 291:Generated_Source\PSoC6\pdl\middleware/ble/cy_ble_gap.h ****     /** 3D Information Data */
 292:Generated_Source\PSoC6\pdl\middleware/ble/cy_ble_gap.h ****     CY_BLE_GAP_ADV_3D_INFO_DATA = 0x3D,
 293:Generated_Source\PSoC6\pdl\middleware/ble/cy_ble_gap.h **** 
 294:Generated_Source\PSoC6\pdl\middleware/ble/cy_ble_gap.h ****     /** Manufacturer Specific Data */
 295:Generated_Source\PSoC6\pdl\middleware/ble/cy_ble_gap.h ****     CY_BLE_GAP_ADV_MANUFACTURER_SPECIFIC_DATA = 0xFF
 296:Generated_Source\PSoC6\pdl\middleware/ble/cy_ble_gap.h **** }cy_en_ble_gap_adv_assign_numbers_t;
 297:Generated_Source\PSoC6\pdl\middleware/ble/cy_ble_gap.h **** 
 298:Generated_Source\PSoC6\pdl\middleware/ble/cy_ble_gap.h **** /** GAPP advertising configuration parameters structure */
ARM GAS  C:\Users\salaz\AppData\Local\Temp\ccnyouLe.s 			page 13


 299:Generated_Source\PSoC6\pdl\middleware/ble/cy_ble_gap.h **** typedef struct
 300:Generated_Source\PSoC6\pdl\middleware/ble/cy_ble_gap.h **** {
 301:Generated_Source\PSoC6\pdl\middleware/ble/cy_ble_gap.h ****     /** The minimum interval for fast advertising the data and establishing the LE Connection */
 302:Generated_Source\PSoC6\pdl\middleware/ble/cy_ble_gap.h ****     uint16_t fastAdvIntervalMin;
 303:Generated_Source\PSoC6\pdl\middleware/ble/cy_ble_gap.h **** 
 304:Generated_Source\PSoC6\pdl\middleware/ble/cy_ble_gap.h ****     /** The maximum interval for fast advertising the data and establishing the LE Connection */
 305:Generated_Source\PSoC6\pdl\middleware/ble/cy_ble_gap.h ****     uint16_t fastAdvIntervalMax;
 306:Generated_Source\PSoC6\pdl\middleware/ble/cy_ble_gap.h **** 
 307:Generated_Source\PSoC6\pdl\middleware/ble/cy_ble_gap.h ****     /** The timeout value of  fast advertising with fast advertising interval parameters */
 308:Generated_Source\PSoC6\pdl\middleware/ble/cy_ble_gap.h ****     uint16_t fastAdvTimeOut;
 309:Generated_Source\PSoC6\pdl\middleware/ble/cy_ble_gap.h **** 
 310:Generated_Source\PSoC6\pdl\middleware/ble/cy_ble_gap.h ****     /** Slow advertising enable */
 311:Generated_Source\PSoC6\pdl\middleware/ble/cy_ble_gap.h ****     uint8_t  slowAdvEnable;
 312:Generated_Source\PSoC6\pdl\middleware/ble/cy_ble_gap.h **** 
 313:Generated_Source\PSoC6\pdl\middleware/ble/cy_ble_gap.h ****     /** The minimum interval for slow advertising the data and establishing the LE Connection */
 314:Generated_Source\PSoC6\pdl\middleware/ble/cy_ble_gap.h ****     uint16_t slowAdvIntervalMin;
 315:Generated_Source\PSoC6\pdl\middleware/ble/cy_ble_gap.h **** 
 316:Generated_Source\PSoC6\pdl\middleware/ble/cy_ble_gap.h ****     /** The maximum interval for slow  advertising the data and establishing the LE Connection */
 317:Generated_Source\PSoC6\pdl\middleware/ble/cy_ble_gap.h ****     uint16_t slowAdvIntervalMax;
 318:Generated_Source\PSoC6\pdl\middleware/ble/cy_ble_gap.h **** 
 319:Generated_Source\PSoC6\pdl\middleware/ble/cy_ble_gap.h ****     /** The timeout value of slow advertising with slow advertising interval parameters */
 320:Generated_Source\PSoC6\pdl\middleware/ble/cy_ble_gap.h ****     uint16_t slowAdvTimeOut;
 321:Generated_Source\PSoC6\pdl\middleware/ble/cy_ble_gap.h **** }cy_stc_ble_gapp_adv_params_t;
 322:Generated_Source\PSoC6\pdl\middleware/ble/cy_ble_gap.h **** 
 323:Generated_Source\PSoC6\pdl\middleware/ble/cy_ble_gap.h **** /** GAPC advertising configuration parameters structure */
 324:Generated_Source\PSoC6\pdl\middleware/ble/cy_ble_gap.h **** typedef struct
 325:Generated_Source\PSoC6\pdl\middleware/ble/cy_ble_gap.h **** {
 326:Generated_Source\PSoC6\pdl\middleware/ble/cy_ble_gap.h ****     /** The scan interval when operating in Fast connection */
 327:Generated_Source\PSoC6\pdl\middleware/ble/cy_ble_gap.h ****     uint16_t fastScanInterval;
 328:Generated_Source\PSoC6\pdl\middleware/ble/cy_ble_gap.h **** 
 329:Generated_Source\PSoC6\pdl\middleware/ble/cy_ble_gap.h ****     /** Defines the scan window when operating in Fast connection */
 330:Generated_Source\PSoC6\pdl\middleware/ble/cy_ble_gap.h ****     uint16_t fastScanWindow;
 331:Generated_Source\PSoC6\pdl\middleware/ble/cy_ble_gap.h **** 
 332:Generated_Source\PSoC6\pdl\middleware/ble/cy_ble_gap.h ****     /** The timeout value of scanning with fast scan parameters */
 333:Generated_Source\PSoC6\pdl\middleware/ble/cy_ble_gap.h ****     uint16_t fastScanTimeOut;
 334:Generated_Source\PSoC6\pdl\middleware/ble/cy_ble_gap.h **** 
 335:Generated_Source\PSoC6\pdl\middleware/ble/cy_ble_gap.h ****     /** Slow scan enable/disable */
 336:Generated_Source\PSoC6\pdl\middleware/ble/cy_ble_gap.h ****     uint8_t  slowScanEnabled;
 337:Generated_Source\PSoC6\pdl\middleware/ble/cy_ble_gap.h **** 
 338:Generated_Source\PSoC6\pdl\middleware/ble/cy_ble_gap.h ****     /** The scan interval when operating in Slow connection */
 339:Generated_Source\PSoC6\pdl\middleware/ble/cy_ble_gap.h ****     uint16_t slowScanInterval;
 340:Generated_Source\PSoC6\pdl\middleware/ble/cy_ble_gap.h **** 
 341:Generated_Source\PSoC6\pdl\middleware/ble/cy_ble_gap.h ****     /** Defines the scan window when operating in Slow connection */
 342:Generated_Source\PSoC6\pdl\middleware/ble/cy_ble_gap.h ****     uint16_t slowScanWindow;
 343:Generated_Source\PSoC6\pdl\middleware/ble/cy_ble_gap.h **** 
 344:Generated_Source\PSoC6\pdl\middleware/ble/cy_ble_gap.h ****     /** The timeout value of scanning with Slow scan parameters */
 345:Generated_Source\PSoC6\pdl\middleware/ble/cy_ble_gap.h ****     uint16_t slowScanTimeOut;
 346:Generated_Source\PSoC6\pdl\middleware/ble/cy_ble_gap.h **** 
 347:Generated_Source\PSoC6\pdl\middleware/ble/cy_ble_gap.h ****     /** The minimum permissible connection time value to be used during a connection event */
 348:Generated_Source\PSoC6\pdl\middleware/ble/cy_ble_gap.h ****     uint16_t gapcConnectionIntervalMin;
 349:Generated_Source\PSoC6\pdl\middleware/ble/cy_ble_gap.h **** 
 350:Generated_Source\PSoC6\pdl\middleware/ble/cy_ble_gap.h ****     /** The maximum permissible connection time value to be used during a connection event */
 351:Generated_Source\PSoC6\pdl\middleware/ble/cy_ble_gap.h ****     uint16_t gapcConnectionIntervalMax;
 352:Generated_Source\PSoC6\pdl\middleware/ble/cy_ble_gap.h **** 
 353:Generated_Source\PSoC6\pdl\middleware/ble/cy_ble_gap.h ****     /** Defines the maximum time between two received Data Packet PDUs before
 354:Generated_Source\PSoC6\pdl\middleware/ble/cy_ble_gap.h ****      *  the connection is considered lost */
 355:Generated_Source\PSoC6\pdl\middleware/ble/cy_ble_gap.h ****     uint16_t gapcConnectionSlaveLatency;
ARM GAS  C:\Users\salaz\AppData\Local\Temp\ccnyouLe.s 			page 14


 356:Generated_Source\PSoC6\pdl\middleware/ble/cy_ble_gap.h **** 
 357:Generated_Source\PSoC6\pdl\middleware/ble/cy_ble_gap.h ****     /** Defines the LE link supervision timeout interval */
 358:Generated_Source\PSoC6\pdl\middleware/ble/cy_ble_gap.h ****     uint16_t gapcConnectionTimeOut;
 359:Generated_Source\PSoC6\pdl\middleware/ble/cy_ble_gap.h **** }cy_stc_ble_gapc_scan_params_t;
 360:Generated_Source\PSoC6\pdl\middleware/ble/cy_ble_gap.h **** 
 361:Generated_Source\PSoC6\pdl\middleware/ble/cy_ble_gap.h **** /** Store BLE Application Data parameter into flash */
 362:Generated_Source\PSoC6\pdl\middleware/ble/cy_ble_gap.h **** typedef struct
 363:Generated_Source\PSoC6\pdl\middleware/ble/cy_ble_gap.h **** {
 364:Generated_Source\PSoC6\pdl\middleware/ble/cy_ble_gap.h ****     /** Source buffer */
 365:Generated_Source\PSoC6\pdl\middleware/ble/cy_ble_gap.h ****     const uint8_t *srcBuff;
 366:Generated_Source\PSoC6\pdl\middleware/ble/cy_ble_gap.h **** 
 367:Generated_Source\PSoC6\pdl\middleware/ble/cy_ble_gap.h ****     /** Destination buffer */
 368:Generated_Source\PSoC6\pdl\middleware/ble/cy_ble_gap.h ****     const uint8_t *destAddr;
 369:Generated_Source\PSoC6\pdl\middleware/ble/cy_ble_gap.h **** 
 370:Generated_Source\PSoC6\pdl\middleware/ble/cy_ble_gap.h ****     /** Source buffer length */
 371:Generated_Source\PSoC6\pdl\middleware/ble/cy_ble_gap.h ****     uint32_t      buffLen;
 372:Generated_Source\PSoC6\pdl\middleware/ble/cy_ble_gap.h ****     
 373:Generated_Source\PSoC6\pdl\middleware/ble/cy_ble_gap.h ****     /** Write mode: blocking (default) / non-blocking */
 374:Generated_Source\PSoC6\pdl\middleware/ble/cy_ble_gap.h ****     uint32_t      writeMode;
 375:Generated_Source\PSoC6\pdl\middleware/ble/cy_ble_gap.h ****     
 376:Generated_Source\PSoC6\pdl\middleware/ble/cy_ble_gap.h **** } cy_stc_ble_app_flash_param_t;
 377:Generated_Source\PSoC6\pdl\middleware/ble/cy_ble_gap.h **** 
 378:Generated_Source\PSoC6\pdl\middleware/ble/cy_ble_gap.h **** /** @} group_ble_common_api_gap_definitions */
 379:Generated_Source\PSoC6\pdl\middleware/ble/cy_ble_gap.h ****  
 380:Generated_Source\PSoC6\pdl\middleware/ble/cy_ble_gap.h **** /***************************************
 381:Generated_Source\PSoC6\pdl\middleware/ble/cy_ble_gap.h **** * API Constants
 382:Generated_Source\PSoC6\pdl\middleware/ble/cy_ble_gap.h **** ***************************************/
 383:Generated_Source\PSoC6\pdl\middleware/ble/cy_ble_gap.h **** #define CY_BLE_AD_TYPE_MORE16UUID                  (0x02u)
 384:Generated_Source\PSoC6\pdl\middleware/ble/cy_ble_gap.h **** #define CY_BLE_AD_TYPE_CMPL16UUID                  (0x03u)
 385:Generated_Source\PSoC6\pdl\middleware/ble/cy_ble_gap.h **** #define CY_BLE_AD_TYPE_MORE32UUID                  (0x04u)
 386:Generated_Source\PSoC6\pdl\middleware/ble/cy_ble_gap.h **** #define CY_BLE_AD_TYPE_CMPL32UUID                  (0x05u)
 387:Generated_Source\PSoC6\pdl\middleware/ble/cy_ble_gap.h **** #define CY_BLE_AD_TYPE_MORE128UUID                 (0x06u)
 388:Generated_Source\PSoC6\pdl\middleware/ble/cy_ble_gap.h **** #define CY_BLE_AD_TYPE_CMPL128UUID                 (0x07u)
 389:Generated_Source\PSoC6\pdl\middleware/ble/cy_ble_gap.h **** 
 390:Generated_Source\PSoC6\pdl\middleware/ble/cy_ble_gap.h **** #define CY_BLE_AD_TYPE_SERVICE_DATA                (0x16u)
 391:Generated_Source\PSoC6\pdl\middleware/ble/cy_ble_gap.h **** #define CY_BLE_AD_SERVICE_DATA_OVERHEAD            (0x03u)
 392:Generated_Source\PSoC6\pdl\middleware/ble/cy_ble_gap.h **** 
 393:Generated_Source\PSoC6\pdl\middleware/ble/cy_ble_gap.h **** #define CY_BLE_DISCOVERY_IDLE                      (0x00u)
 394:Generated_Source\PSoC6\pdl\middleware/ble/cy_ble_gap.h **** #define CY_BLE_DISCOVERY_SERVICE                   (0x01u)
 395:Generated_Source\PSoC6\pdl\middleware/ble/cy_ble_gap.h **** #define CY_BLE_DISCOVERY_CHAR                      (0x02u)
 396:Generated_Source\PSoC6\pdl\middleware/ble/cy_ble_gap.h **** #define CY_BLE_DISCOVERY_DESCR                     (0x03u)
 397:Generated_Source\PSoC6\pdl\middleware/ble/cy_ble_gap.h **** #define CY_BLE_DISCOVERY_DONE                      (0x04u)
 398:Generated_Source\PSoC6\pdl\middleware/ble/cy_ble_gap.h **** 
 399:Generated_Source\PSoC6\pdl\middleware/ble/cy_ble_gap.h **** /* Cy_BLE_NextCharDscrDiscovery parameters */
 400:Generated_Source\PSoC6\pdl\middleware/ble/cy_ble_gap.h **** #define CY_BLE_DISCOVERY_INIT                      (0x00u)
 401:Generated_Source\PSoC6\pdl\middleware/ble/cy_ble_gap.h **** #define CY_BLE_DISCOVERY_CONTINUE                  (0x01u)
 402:Generated_Source\PSoC6\pdl\middleware/ble/cy_ble_gap.h **** 
 403:Generated_Source\PSoC6\pdl\middleware/ble/cy_ble_gap.h **** #define CY_BLE_SFLASH_DIE_X_MASK                   (0x3Fu)
 404:Generated_Source\PSoC6\pdl\middleware/ble/cy_ble_gap.h **** #define CY_BLE_SFLASH_DIE_X_BITS                   (6u)
 405:Generated_Source\PSoC6\pdl\middleware/ble/cy_ble_gap.h **** #define CY_BLE_SFLASH_DIE_Y_MASK                   (0x3Fu)
 406:Generated_Source\PSoC6\pdl\middleware/ble/cy_ble_gap.h **** #define CY_BLE_SFLASH_DIE_Y_BITS                   (6u)
 407:Generated_Source\PSoC6\pdl\middleware/ble/cy_ble_gap.h **** #define CY_BLE_SFLASH_DIE_XY_BITS                  (CY_BLE_SFLASH_DIE_X_BITS + CY_BLE_SFLASH_DIE_Y_
 408:Generated_Source\PSoC6\pdl\middleware/ble/cy_ble_gap.h **** #define CY_BLE_SFLASH_DIE_WAFER_MASK               (0x1Fu)
 409:Generated_Source\PSoC6\pdl\middleware/ble/cy_ble_gap.h **** #define CY_BLE_SFLASH_DIE_WAFER_BITS               (5u)
 410:Generated_Source\PSoC6\pdl\middleware/ble/cy_ble_gap.h **** #define CY_BLE_SFLASH_DIE_XYWAFER_BITS             (CY_BLE_SFLASH_DIE_XY_BITS + CY_BLE_SFLASH_DIE_W
 411:Generated_Source\PSoC6\pdl\middleware/ble/cy_ble_gap.h **** #define CY_BLE_SFLASH_DIE_LOT_MASK                 (0x7Fu)
 412:Generated_Source\PSoC6\pdl\middleware/ble/cy_ble_gap.h **** #define CY_BLE_SFLASH_DIE_LOT_BITS                 (7u)
ARM GAS  C:\Users\salaz\AppData\Local\Temp\ccnyouLe.s 			page 15


 413:Generated_Source\PSoC6\pdl\middleware/ble/cy_ble_gap.h **** 
 414:Generated_Source\PSoC6\pdl\middleware/ble/cy_ble_gap.h **** /* Device address stored by user in ROW4 of the SFLASH */
 415:Generated_Source\PSoC6\pdl\middleware/ble/cy_ble_gap.h **** #define CY_BLE_SFLASH_DEVICE_ADDRESS_PTR           ((cy_stc_ble_gap_bd_addr_t*)(SFLASH->BLE_DEVICE_
 416:Generated_Source\PSoC6\pdl\middleware/ble/cy_ble_gap.h **** #define CY_BLE_AD_STRUCTURE_MAX_LENGTH             (31u)
 417:Generated_Source\PSoC6\pdl\middleware/ble/cy_ble_gap.h **** 
 418:Generated_Source\PSoC6\pdl\middleware/ble/cy_ble_gap.h **** /* AD types for complete, shortened local name and device address */
 419:Generated_Source\PSoC6\pdl\middleware/ble/cy_ble_gap.h **** #define CY_BLE_SHORT_LOCAL_NAME                    (0x08u)  /**< Shortened Local Name */
 420:Generated_Source\PSoC6\pdl\middleware/ble/cy_ble_gap.h **** #define CY_BLE_COMPLETE_LOCAL_NAME                 (0x09u)  /**< Complete Local Name */
 421:Generated_Source\PSoC6\pdl\middleware/ble/cy_ble_gap.h **** #define CY_BLE_ADV_DEVICE_ADDR                     (0x1Bu)  /**< LE Bluetooth Device Address */
 422:Generated_Source\PSoC6\pdl\middleware/ble/cy_ble_gap.h **** 
 423:Generated_Source\PSoC6\pdl\middleware/ble/cy_ble_gap.h **** #define CY_BLE_ADVERTISING_FAST                    (0x00u)
 424:Generated_Source\PSoC6\pdl\middleware/ble/cy_ble_gap.h **** #define CY_BLE_ADVERTISING_SLOW                    (0x01u)
 425:Generated_Source\PSoC6\pdl\middleware/ble/cy_ble_gap.h **** #define CY_BLE_ADVERTISING_CUSTOM                  (0x02u)
 426:Generated_Source\PSoC6\pdl\middleware/ble/cy_ble_gap.h **** 
 427:Generated_Source\PSoC6\pdl\middleware/ble/cy_ble_gap.h **** #define CY_BLE_SCANNING_FAST                       (0x00u)
 428:Generated_Source\PSoC6\pdl\middleware/ble/cy_ble_gap.h **** #define CY_BLE_SCANNING_SLOW                       (0x01u)
 429:Generated_Source\PSoC6\pdl\middleware/ble/cy_ble_gap.h **** #define CY_BLE_SCANNING_CUSTOM                     (0x02u)
 430:Generated_Source\PSoC6\pdl\middleware/ble/cy_ble_gap.h **** 
 431:Generated_Source\PSoC6\pdl\middleware/ble/cy_ble_gap.h **** #define CY_BLE_PENDING_STACK_FLASH_WRITE_BIT       (0x01u)
 432:Generated_Source\PSoC6\pdl\middleware/ble/cy_ble_gap.h **** #define CY_BLE_PENDING_CCCD_FLASH_WRITE_BIT        (0x02u)
 433:Generated_Source\PSoC6\pdl\middleware/ble/cy_ble_gap.h **** #define CY_BLE_PENDING_CCCD_FLASH_CLEAR_BIT        (0x04u)
 434:Generated_Source\PSoC6\pdl\middleware/ble/cy_ble_gap.h **** #define CY_BLE_PENDING_CCCD_FLASH_CLEAR_ALL_BIT    (0x08u)
 435:Generated_Source\PSoC6\pdl\middleware/ble/cy_ble_gap.h **** #define CY_BLE_PENDING_CCCD_FLASH_CLEAR_MASK \
 436:Generated_Source\PSoC6\pdl\middleware/ble/cy_ble_gap.h ****     (CY_BLE_PENDING_CCCD_FLASH_CLEAR_BIT | CY_BLE_PENDING_CCCD_FLASH_CLEAR_ALL_BIT)
 437:Generated_Source\PSoC6\pdl\middleware/ble/cy_ble_gap.h ****   
 438:Generated_Source\PSoC6\pdl\middleware/ble/cy_ble_gap.h **** /**
 439:Generated_Source\PSoC6\pdl\middleware/ble/cy_ble_gap.h ****  * \addtogroup group_ble_common_api_macros
 440:Generated_Source\PSoC6\pdl\middleware/ble/cy_ble_gap.h ****  * @{
 441:Generated_Source\PSoC6\pdl\middleware/ble/cy_ble_gap.h ****  */
 442:Generated_Source\PSoC6\pdl\middleware/ble/cy_ble_gap.h ****  
 443:Generated_Source\PSoC6\pdl\middleware/ble/cy_ble_gap.h **** /* GAP Advertisement Flags */
 444:Generated_Source\PSoC6\pdl\middleware/ble/cy_ble_gap.h **** #define CY_BLE_GAP_ADV_FLAG_LE_LIMITED_DISC_MODE        (0x01u)     /**< LE Limited Discoverable Mo
 445:Generated_Source\PSoC6\pdl\middleware/ble/cy_ble_gap.h **** #define CY_BLE_GAP_ADV_FLAG_LE_GENERAL_DISC_MODE        (0x02u)     /**< LE General Discoverable Mo
 446:Generated_Source\PSoC6\pdl\middleware/ble/cy_ble_gap.h **** #define CY_BLE_GAP_ADV_FLAG_BR_EDR_NOT_SUPPORTED        (0x04u)     /**< BR/EDR not supported. */
 447:Generated_Source\PSoC6\pdl\middleware/ble/cy_ble_gap.h **** #define CY_BLE_GAP_ADV_FLAG_LE_BR_EDR_CONTROLLER        (0x08u)     /**< Simultaneous LE and BR/EDR
 448:Generated_Source\PSoC6\pdl\middleware/ble/cy_ble_gap.h **** #define CY_BLE_GAP_ADV_FLAG_LE_BR_EDR_HOST              (0x10u)     /**< Simultaneous LE and BR/EDR
 449:Generated_Source\PSoC6\pdl\middleware/ble/cy_ble_gap.h **** #define CY_BLE_GAP_ADV_FLAGS_PACKET_LENGTH              (0x02u)     /**< Length of flags in an adve
 450:Generated_Source\PSoC6\pdl\middleware/ble/cy_ble_gap.h **** 
 451:Generated_Source\PSoC6\pdl\middleware/ble/cy_ble_gap.h **** /* GAP Advertising interval min and max */
 452:Generated_Source\PSoC6\pdl\middleware/ble/cy_ble_gap.h **** #define CY_BLE_GAP_ADV_ADVERT_INTERVAL_MIN              (0x0020u)   /**< Minimum Advertising interv
 453:Generated_Source\PSoC6\pdl\middleware/ble/cy_ble_gap.h ****                                                                      *   i.e. 20 ms. */
 454:Generated_Source\PSoC6\pdl\middleware/ble/cy_ble_gap.h **** #define CY_BLE_GAP_ADV_ADVERT_INTERVAL_NONCON_MIN       (0x00A0u)   /**< Minimum Advertising interv
 455:Generated_Source\PSoC6\pdl\middleware/ble/cy_ble_gap.h ****                                                                      *   for non connectable mode, 
 456:Generated_Source\PSoC6\pdl\middleware/ble/cy_ble_gap.h **** #define CY_BLE_GAP_ADV_ADVERT_INTERVAL_MAX              (0x4000u)   /**< Maximum Advertising interv
 457:Generated_Source\PSoC6\pdl\middleware/ble/cy_ble_gap.h ****                                                                      *   i.e. 10.24 s. */
 458:Generated_Source\PSoC6\pdl\middleware/ble/cy_ble_gap.h **** #define CY_BLE_GAP_ADV_ADVERT_INTERVAL_PACKET_LENGTH    (0x03u)     /**< Length of the Advertising 
 459:Generated_Source\PSoC6\pdl\middleware/ble/cy_ble_gap.h ****                                                                      *   an advertisement packet */
 460:Generated_Source\PSoC6\pdl\middleware/ble/cy_ble_gap.h **** #define CY_BLE_GAPC_CONNECTING_TIMEOUT                  (30u)       /**< Seconds */
 461:Generated_Source\PSoC6\pdl\middleware/ble/cy_ble_gap.h **** #define CY_BLE_INVALID_CONN_HANDLE_VALUE                (0xFFu)     /**< Invalid Connection Handle 
 462:Generated_Source\PSoC6\pdl\middleware/ble/cy_ble_gap.h **** 
 463:Generated_Source\PSoC6\pdl\middleware/ble/cy_ble_gap.h **** /* Write mode for Cy_BLE_StoreAppData */
 464:Generated_Source\PSoC6\pdl\middleware/ble/cy_ble_gap.h **** #define CY_BLE_STORE_DATA_MODE_BLOCKING                 (0x0u)      /**< Blocking write */
 465:Generated_Source\PSoC6\pdl\middleware/ble/cy_ble_gap.h **** #define CY_BLE_STORE_DATA_MODE_NON_BLOCKING             (0x1u)      /**< Non-blocking write */
 466:Generated_Source\PSoC6\pdl\middleware/ble/cy_ble_gap.h **** 
 467:Generated_Source\PSoC6\pdl\middleware/ble/cy_ble_gap.h **** /** @} group_ble_common_api_macros */
 468:Generated_Source\PSoC6\pdl\middleware/ble/cy_ble_gap.h **** 
 469:Generated_Source\PSoC6\pdl\middleware/ble/cy_ble_gap.h **** /***************************************
ARM GAS  C:\Users\salaz\AppData\Local\Temp\ccnyouLe.s 			page 16


 470:Generated_Source\PSoC6\pdl\middleware/ble/cy_ble_gap.h **** * Private Function Prototypes
 471:Generated_Source\PSoC6\pdl\middleware/ble/cy_ble_gap.h **** ***************************************/
 472:Generated_Source\PSoC6\pdl\middleware/ble/cy_ble_gap.h **** void Cy_BLE_ServiceInit(void);
 473:Generated_Source\PSoC6\pdl\middleware/ble/cy_ble_gap.h **** uint32_t Cy_BLE_GetDiscoveryIdx(cy_stc_ble_conn_handle_t connHandle);
 474:Generated_Source\PSoC6\pdl\middleware/ble/cy_ble_gap.h **** 
 475:Generated_Source\PSoC6\pdl\middleware/ble/cy_ble_gap.h **** /***************************************
 476:Generated_Source\PSoC6\pdl\middleware/ble/cy_ble_gap.h **** * Function Prototypes
 477:Generated_Source\PSoC6\pdl\middleware/ble/cy_ble_gap.h **** ***************************************/
 478:Generated_Source\PSoC6\pdl\middleware/ble/cy_ble_gap.h **** /**
 479:Generated_Source\PSoC6\pdl\middleware/ble/cy_ble_gap.h ****  * \addtogroup group_ble_common_api_functions
 480:Generated_Source\PSoC6\pdl\middleware/ble/cy_ble_gap.h ****  * @{
 481:Generated_Source\PSoC6\pdl\middleware/ble/cy_ble_gap.h ****  */
 482:Generated_Source\PSoC6\pdl\middleware/ble/cy_ble_gap.h **** 
 483:Generated_Source\PSoC6\pdl\middleware/ble/cy_ble_gap.h **** cy_en_ble_api_result_t Cy_BLE_StoreAppData(const cy_stc_ble_app_flash_param_t *param);
 484:Generated_Source\PSoC6\pdl\middleware/ble/cy_ble_gap.h **** 
 485:Generated_Source\PSoC6\pdl\middleware/ble/cy_ble_gap.h **** #if ((CY_BLE_GAP_ROLE_PERIPHERAL || CY_BLE_GAP_ROLE_CENTRAL) && (CY_BLE_BONDING_REQUIREMENT == CY_B
 486:Generated_Source\PSoC6\pdl\middleware/ble/cy_ble_gap.h **** cy_en_ble_api_result_t Cy_BLE_StoreBondingData(void);
 487:Generated_Source\PSoC6\pdl\middleware/ble/cy_ble_gap.h **** cy_en_ble_api_result_t Cy_BLE_GAP_RemoveBondedDevice(cy_stc_ble_gap_bd_addr_t* bdAddr);
 488:Generated_Source\PSoC6\pdl\middleware/ble/cy_ble_gap.h **** #endif /* (CY_BLE_GAP_ROLE_PERIPHERAL || CY_BLE_GAP_ROLE_CENTRAL) && (CY_BLE_BONDING_REQUIREMENT ==
 489:Generated_Source\PSoC6\pdl\middleware/ble/cy_ble_gap.h **** 
 490:Generated_Source\PSoC6\pdl\middleware/ble/cy_ble_gap.h **** #if (CY_BLE_GAP_ROLE_PERIPHERAL || CY_BLE_GAP_ROLE_CENTRAL)
 491:Generated_Source\PSoC6\pdl\middleware/ble/cy_ble_gap.h **** bool Cy_BLE_IsPeerConnected(uint8_t *bdAddr);
 492:Generated_Source\PSoC6\pdl\middleware/ble/cy_ble_gap.h **** bool Cy_BLE_IsDevicePaired(cy_stc_ble_conn_handle_t *connHandle);
 493:Generated_Source\PSoC6\pdl\middleware/ble/cy_ble_gap.h **** uint8_t Cy_BLE_GetDeviceRole(cy_stc_ble_conn_handle_t *connHandle);
 494:Generated_Source\PSoC6\pdl\middleware/ble/cy_ble_gap.h **** 
 495:Generated_Source\PSoC6\pdl\middleware/ble/cy_ble_gap.h **** cy_en_ble_api_result_t Cy_BLE_GetRssiPeer(uint8_t  bdHandle);
 496:Generated_Source\PSoC6\pdl\middleware/ble/cy_ble_gap.h **** #endif /* (CY_BLE_GAP_ROLE_PERIPHERAL || CY_BLE_GAP_ROLE_CENTRAL) */
 497:Generated_Source\PSoC6\pdl\middleware/ble/cy_ble_gap.h **** /** @} group_ble_common_api_functions */
 498:Generated_Source\PSoC6\pdl\middleware/ble/cy_ble_gap.h **** 
 499:Generated_Source\PSoC6\pdl\middleware/ble/cy_ble_gap.h **** /**
 500:Generated_Source\PSoC6\pdl\middleware/ble/cy_ble_gap.h ****  * \addtogroup group_ble_common_api_gap_peripheral_functions
 501:Generated_Source\PSoC6\pdl\middleware/ble/cy_ble_gap.h ****  * @{
 502:Generated_Source\PSoC6\pdl\middleware/ble/cy_ble_gap.h ****  */
 503:Generated_Source\PSoC6\pdl\middleware/ble/cy_ble_gap.h ****  
 504:Generated_Source\PSoC6\pdl\middleware/ble/cy_ble_gap.h **** #if (CY_BLE_GAP_ROLE_PERIPHERAL || CY_BLE_GAP_ROLE_BROADCASTER)
 505:Generated_Source\PSoC6\pdl\middleware/ble/cy_ble_gap.h **** cy_en_ble_api_result_t Cy_BLE_GAPP_StartAdvertisement(uint8_t advertisingIntervalType, uint8_t adve
 506:Generated_Source\PSoC6\pdl\middleware/ble/cy_ble_gap.h **** cy_en_ble_api_result_t Cy_BLE_GAPP_StopAdvertisement(void);
 507:Generated_Source\PSoC6\pdl\middleware/ble/cy_ble_gap.h **** 
 508:Generated_Source\PSoC6\pdl\middleware/ble/cy_ble_gap.h **** /** \cond IGNORE */
 509:Generated_Source\PSoC6\pdl\middleware/ble/cy_ble_gap.h **** void Cy_BLE_ChangeAdDeviceAddress(const cy_stc_ble_gap_bd_addr_t* bdAddr, uint8_t dest);
 510:Generated_Source\PSoC6\pdl\middleware/ble/cy_ble_gap.h **** /** \endcond */
 511:Generated_Source\PSoC6\pdl\middleware/ble/cy_ble_gap.h **** 
 512:Generated_Source\PSoC6\pdl\middleware/ble/cy_ble_gap.h **** #endif /* CY_BLE_GAP_ROLE_PERIPHERAL */
 513:Generated_Source\PSoC6\pdl\middleware/ble/cy_ble_gap.h **** 
 514:Generated_Source\PSoC6\pdl\middleware/ble/cy_ble_gap.h **** /** @} group_ble_common_api_gap_peripheral_functions */
 515:Generated_Source\PSoC6\pdl\middleware/ble/cy_ble_gap.h **** 
 516:Generated_Source\PSoC6\pdl\middleware/ble/cy_ble_gap.h **** /**
 517:Generated_Source\PSoC6\pdl\middleware/ble/cy_ble_gap.h ****  * \addtogroup group_ble_common_api_gap_central_functions
 518:Generated_Source\PSoC6\pdl\middleware/ble/cy_ble_gap.h ****  * @{
 519:Generated_Source\PSoC6\pdl\middleware/ble/cy_ble_gap.h ****  */
 520:Generated_Source\PSoC6\pdl\middleware/ble/cy_ble_gap.h ****  
 521:Generated_Source\PSoC6\pdl\middleware/ble/cy_ble_gap.h **** #if (CY_BLE_GAP_ROLE_CENTRAL || CY_BLE_GAP_ROLE_OBSERVER)
 522:Generated_Source\PSoC6\pdl\middleware/ble/cy_ble_gap.h **** cy_en_ble_api_result_t Cy_BLE_GAPC_StartScan(uint8_t scanningIntervalType, uint8_t scanParamIndex);
 523:Generated_Source\PSoC6\pdl\middleware/ble/cy_ble_gap.h **** cy_en_ble_api_result_t Cy_BLE_GAPC_StopScan(void);
 524:Generated_Source\PSoC6\pdl\middleware/ble/cy_ble_gap.h **** #endif /* CY_BLE_GAP_ROLE_CENTRAL || CY_BLE_GAP_ROLE_OBSERVER */
 525:Generated_Source\PSoC6\pdl\middleware/ble/cy_ble_gap.h **** 
 526:Generated_Source\PSoC6\pdl\middleware/ble/cy_ble_gap.h **** #if (CY_BLE_GAP_ROLE_CENTRAL)
ARM GAS  C:\Users\salaz\AppData\Local\Temp\ccnyouLe.s 			page 17


 527:Generated_Source\PSoC6\pdl\middleware/ble/cy_ble_gap.h **** cy_en_ble_api_result_t Cy_BLE_GAPC_ConnectDevice(const cy_stc_ble_gap_bd_addr_t * address, uint8_t 
 528:Generated_Source\PSoC6\pdl\middleware/ble/cy_ble_gap.h **** cy_en_ble_api_result_t Cy_BLE_GAPC_CancelDeviceConnection(void);
 529:Generated_Source\PSoC6\pdl\middleware/ble/cy_ble_gap.h **** #endif /* CY_BLE_GAP_ROLE_CENTRAL */
 530:Generated_Source\PSoC6\pdl\middleware/ble/cy_ble_gap.h **** 
 531:Generated_Source\PSoC6\pdl\middleware/ble/cy_ble_gap.h **** /** @} group_ble_common_api_gap_central_functions */
 532:Generated_Source\PSoC6\pdl\middleware/ble/cy_ble_gap.h **** 
 533:Generated_Source\PSoC6\pdl\middleware/ble/cy_ble_gap.h **** /***************************************
 534:Generated_Source\PSoC6\pdl\middleware/ble/cy_ble_gap.h **** * External data references
 535:Generated_Source\PSoC6\pdl\middleware/ble/cy_ble_gap.h **** ***************************************/
 536:Generated_Source\PSoC6\pdl\middleware/ble/cy_ble_gap.h **** extern volatile uint8_t cy_ble_eventHandlerFlag;
 537:Generated_Source\PSoC6\pdl\middleware/ble/cy_ble_gap.h **** extern cy_stc_ble_gap_bd_addr_t *cy_ble_sflashDeviceAddress;
 538:Generated_Source\PSoC6\pdl\middleware/ble/cy_ble_gap.h **** extern cy_stc_ble_gap_bd_addr_t cy_ble_deviceAddress;
 539:Generated_Source\PSoC6\pdl\middleware/ble/cy_ble_gap.h **** extern cy_en_ble_state_t cy_ble_state;
 540:Generated_Source\PSoC6\pdl\middleware/ble/cy_ble_gap.h **** 
 541:Generated_Source\PSoC6\pdl\middleware/ble/cy_ble_gap.h **** #if ((CY_BLE_GAP_ROLE_PERIPHERAL || CY_BLE_GAP_ROLE_CENTRAL))
 542:Generated_Source\PSoC6\pdl\middleware/ble/cy_ble_gap.h **** extern cy_stc_ble_gap_auth_info_t cy_ble_authInfo[CY_BLE_AUTH_INFO_COUNT];
 543:Generated_Source\PSoC6\pdl\middleware/ble/cy_ble_gap.h **** #endif /* ((CY_BLE_GAP_ROLE_PERIPHERAL || CY_BLE_GAP_ROLE_CENTRAL)) */
 544:Generated_Source\PSoC6\pdl\middleware/ble/cy_ble_gap.h **** 
 545:Generated_Source\PSoC6\pdl\middleware/ble/cy_ble_gap.h **** #if (CY_BLE_GAP_ROLE_PERIPHERAL || CY_BLE_GAP_ROLE_BROADCASTER)
 546:Generated_Source\PSoC6\pdl\middleware/ble/cy_ble_gap.h **** extern cy_en_ble_adv_state_t cy_ble_advState;
 547:Generated_Source\PSoC6\pdl\middleware/ble/cy_ble_gap.h **** extern uint8_t cy_ble_advIndex;
 548:Generated_Source\PSoC6\pdl\middleware/ble/cy_ble_gap.h **** #endif  /* (CY_BLE_GAP_ROLE_PERIPHERAL || CY_BLE_GAP_ROLE_BROADCASTER) */
 549:Generated_Source\PSoC6\pdl\middleware/ble/cy_ble_gap.h **** 
 550:Generated_Source\PSoC6\pdl\middleware/ble/cy_ble_gap.h **** #if (CY_BLE_GAP_ROLE_CENTRAL || CY_BLE_GAP_ROLE_OBSERVER)
 551:Generated_Source\PSoC6\pdl\middleware/ble/cy_ble_gap.h **** extern cy_en_ble_scan_state_t cy_ble_scanState;
 552:Generated_Source\PSoC6\pdl\middleware/ble/cy_ble_gap.h **** extern uint8_t cy_ble_scanIndex;
 553:Generated_Source\PSoC6\pdl\middleware/ble/cy_ble_gap.h **** #endif /* (CY_BLE_GAP_ROLE_CENTRAL || CY_BLE_GAP_ROLE_OBSERVER) */
 554:Generated_Source\PSoC6\pdl\middleware/ble/cy_ble_gap.h **** 
 555:Generated_Source\PSoC6\pdl\middleware/ble/cy_ble_gap.h **** #if ((CY_BLE_GAP_ROLE_PERIPHERAL || CY_BLE_GAP_ROLE_CENTRAL))
 556:Generated_Source\PSoC6\pdl\middleware/ble/cy_ble_gap.h **** extern cy_stc_ble_conn_handle_t cy_ble_connHandle[CY_BLE_CONN_COUNT];
 557:Generated_Source\PSoC6\pdl\middleware/ble/cy_ble_gap.h **** extern cy_en_ble_conn_state_t cy_ble_connState[CY_BLE_CONN_COUNT];
 558:Generated_Source\PSoC6\pdl\middleware/ble/cy_ble_gap.h **** 
 559:Generated_Source\PSoC6\pdl\middleware/ble/cy_ble_gap.h **** extern volatile uint8_t cy_ble_devConnRole[CY_BLE_CONN_COUNT];                                     
 560:Generated_Source\PSoC6\pdl\middleware/ble/cy_ble_gap.h **** extern volatile bool cy_ble_pairStatus[CY_BLE_CONN_COUNT];
 561:Generated_Source\PSoC6\pdl\middleware/ble/cy_ble_gap.h **** 
 562:Generated_Source\PSoC6\pdl\middleware/ble/cy_ble_gap.h **** #endif /* ((CY_BLE_GAP_ROLE_PERIPHERAL || CY_BLE_GAP_ROLE_CENTRAL)) */
 563:Generated_Source\PSoC6\pdl\middleware/ble/cy_ble_gap.h **** 
 564:Generated_Source\PSoC6\pdl\middleware/ble/cy_ble_gap.h **** #if (CY_BLE_GAP_ROLE_CENTRAL || CY_BLE_GAP_ROLE_OBSERVER)
 565:Generated_Source\PSoC6\pdl\middleware/ble/cy_ble_gap.h **** extern cy_stc_ble_gapc_disc_info_t cy_ble_discoveryInfo[CY_BLE_GAPC_CONF_COUNT];
 566:Generated_Source\PSoC6\pdl\middleware/ble/cy_ble_gap.h **** #endif /* CY_BLE_GAP_ROLE_CENTRAL || CY_BLE_GAP_ROLE_OBSERVER */
 567:Generated_Source\PSoC6\pdl\middleware/ble/cy_ble_gap.h **** 
 568:Generated_Source\PSoC6\pdl\middleware/ble/cy_ble_gap.h **** #if (CY_BLE_GAP_ROLE_CENTRAL)
 569:Generated_Source\PSoC6\pdl\middleware/ble/cy_ble_gap.h **** extern cy_stc_ble_gapc_conn_info_t cy_ble_connectionParameters;
 570:Generated_Source\PSoC6\pdl\middleware/ble/cy_ble_gap.h **** extern cy_stc_ble_timer_info_t cy_ble_connectingTimeout;
 571:Generated_Source\PSoC6\pdl\middleware/ble/cy_ble_gap.h **** #endif /* CY_BLE_GAP_ROLE_CENTRAL */
 572:Generated_Source\PSoC6\pdl\middleware/ble/cy_ble_gap.h **** 
 573:Generated_Source\PSoC6\pdl\middleware/ble/cy_ble_gap.h **** #if (CY_BLE_GAP_ROLE_PERIPHERAL || CY_BLE_GAP_ROLE_BROADCASTER)
 574:Generated_Source\PSoC6\pdl\middleware/ble/cy_ble_gap.h **** extern cy_stc_ble_gapp_disc_mode_info_t cy_ble_discoveryModeInfo[CY_BLE_GAPP_CONF_COUNT];
 575:Generated_Source\PSoC6\pdl\middleware/ble/cy_ble_gap.h **** extern cy_stc_ble_gapp_disc_param_t cy_ble_discoveryParam[CY_BLE_GAPP_CONF_COUNT];
 576:Generated_Source\PSoC6\pdl\middleware/ble/cy_ble_gap.h **** extern cy_stc_ble_gapp_disc_data_t cy_ble_discoveryData[CY_BLE_GAPP_CONF_COUNT];
 577:Generated_Source\PSoC6\pdl\middleware/ble/cy_ble_gap.h **** extern cy_stc_ble_gapp_scan_rsp_data_t cy_ble_scanRspData[CY_BLE_GAPP_CONF_COUNT];
 578:Generated_Source\PSoC6\pdl\middleware/ble/cy_ble_gap.h **** #endif /* CY_BLE_GAP_ROLE_PERIPHERAL || CY_BLE_GAP_ROLE_BROADCASTER */
 579:Generated_Source\PSoC6\pdl\middleware/ble/cy_ble_gap.h **** 
 580:Generated_Source\PSoC6\pdl\middleware/ble/cy_ble_gap.h **** #if ((CY_BLE_GAP_ROLE_PERIPHERAL || CY_BLE_GAP_ROLE_CENTRAL) && (CY_BLE_BONDING_REQUIREMENT == CY_B
 581:Generated_Source\PSoC6\pdl\middleware/ble/cy_ble_gap.h **** 
 582:Generated_Source\PSoC6\pdl\middleware/ble/cy_ble_gap.h **** /**
 583:Generated_Source\PSoC6\pdl\middleware/ble/cy_ble_gap.h ****  * \addtogroup group_ble_common_api_global_variables
ARM GAS  C:\Users\salaz\AppData\Local\Temp\ccnyouLe.s 			page 18


 584:Generated_Source\PSoC6\pdl\middleware/ble/cy_ble_gap.h ****  * @{
 585:Generated_Source\PSoC6\pdl\middleware/ble/cy_ble_gap.h ****  */  
 586:Generated_Source\PSoC6\pdl\middleware/ble/cy_ble_gap.h **** /** This is a two-bit variable that contains status of pending write to flash operation.
 587:Generated_Source\PSoC6\pdl\middleware/ble/cy_ble_gap.h ****  * This variable is initialized to zero in Cy_BLE_Init().
 588:Generated_Source\PSoC6\pdl\middleware/ble/cy_ble_gap.h ****  * CY_BLE_PENDING_CCCD_FLASH_WRITE_BIT flag is set after write to CCCD event when a
 589:Generated_Source\PSoC6\pdl\middleware/ble/cy_ble_gap.h ****  * peer device supports bonding (cy_ble_peerBonding[eventParam->connHandle.attId] == CY_BLE_GAP_BON
 590:Generated_Source\PSoC6\pdl\middleware/ble/cy_ble_gap.h ****  * CY_BLE_PENDING_STACK_FLASH_WRITE_BIT flag is set after CY_BLE_EVT_PENDING_FLASH_WRITE event.
 591:Generated_Source\PSoC6\pdl\middleware/ble/cy_ble_gap.h ****  * Cy_BLE_StoreBondingData() should be called to store pending bonding data.
 592:Generated_Source\PSoC6\pdl\middleware/ble/cy_ble_gap.h ****  * This function automatically clears pending bits after write operation is complete.
 593:Generated_Source\PSoC6\pdl\middleware/ble/cy_ble_gap.h ****  */
 594:Generated_Source\PSoC6\pdl\middleware/ble/cy_ble_gap.h **** extern uint8_t cy_ble_pendingFlashWrite;
 595:Generated_Source\PSoC6\pdl\middleware/ble/cy_ble_gap.h **** /** @} group_ble_common_api_global_variables */
 596:Generated_Source\PSoC6\pdl\middleware/ble/cy_ble_gap.h ****     
 597:Generated_Source\PSoC6\pdl\middleware/ble/cy_ble_gap.h **** /** Bonding type setting of peer device, CY_BLE_GAP_BONDING_NONE or CY_BLE_GAP_BONDING.
 598:Generated_Source\PSoC6\pdl\middleware/ble/cy_ble_gap.h ****  * It is initialized after pairing with peer device and used for cy_ble_pendingFlashWrite variable
 599:Generated_Source\PSoC6\pdl\middleware/ble/cy_ble_gap.h ****  * setting.
 600:Generated_Source\PSoC6\pdl\middleware/ble/cy_ble_gap.h ****  */
 601:Generated_Source\PSoC6\pdl\middleware/ble/cy_ble_gap.h **** extern uint8_t cy_ble_peerBonding[CY_BLE_CONN_COUNT];
 602:Generated_Source\PSoC6\pdl\middleware/ble/cy_ble_gap.h **** 
 603:Generated_Source\PSoC6\pdl\middleware/ble/cy_ble_gap.h **** #endif  /* (CY_BLE_BONDING_REQUIREMENT == CY_BLE_BONDING_YES) */
 604:Generated_Source\PSoC6\pdl\middleware/ble/cy_ble_gap.h **** 
 605:Generated_Source\PSoC6\pdl\middleware/ble/cy_ble_gap.h **** 
 606:Generated_Source\PSoC6\pdl\middleware/ble/cy_ble_gap.h **** /***************************************
 607:Generated_Source\PSoC6\pdl\middleware/ble/cy_ble_gap.h **** * Exported Functions (MACROS)
 608:Generated_Source\PSoC6\pdl\middleware/ble/cy_ble_gap.h **** ***************************************/
 609:Generated_Source\PSoC6\pdl\middleware/ble/cy_ble_gap.h **** #if ((CY_BLE_GAP_ROLE_PERIPHERAL || CY_BLE_GAP_ROLE_CENTRAL))
 610:Generated_Source\PSoC6\pdl\middleware/ble/cy_ble_gap.h ****    
 611:Generated_Source\PSoC6\pdl\middleware/ble/cy_ble_gap.h **** /******************************************************************************
 612:Generated_Source\PSoC6\pdl\middleware/ble/cy_ble_gap.h **** * Function Name: Cy_BLE_GetConnHandleIdx
 613:Generated_Source\PSoC6\pdl\middleware/ble/cy_ble_gap.h **** ***************************************************************************//**
 614:Generated_Source\PSoC6\pdl\middleware/ble/cy_ble_gap.h **** *
 615:Generated_Source\PSoC6\pdl\middleware/ble/cy_ble_gap.h **** *  This function searches the array of connection handles (cy_ble_connHandle[])
 616:Generated_Source\PSoC6\pdl\middleware/ble/cy_ble_gap.h **** *  for the location (index) of a handle that corresponds to the input parameter
 617:Generated_Source\PSoC6\pdl\middleware/ble/cy_ble_gap.h **** *  connHandle. bdHandle.
 618:Generated_Source\PSoC6\pdl\middleware/ble/cy_ble_gap.h **** *
 619:Generated_Source\PSoC6\pdl\middleware/ble/cy_ble_gap.h **** *  This function is designated for internal usage. 
 620:Generated_Source\PSoC6\pdl\middleware/ble/cy_ble_gap.h **** *    
 621:Generated_Source\PSoC6\pdl\middleware/ble/cy_ble_gap.h **** *  \param connHandle: The connection handle.
 622:Generated_Source\PSoC6\pdl\middleware/ble/cy_ble_gap.h **** *
 623:Generated_Source\PSoC6\pdl\middleware/ble/cy_ble_gap.h **** *  \return
 624:Generated_Source\PSoC6\pdl\middleware/ble/cy_ble_gap.h **** *  retValue: the index of connHandle  
 625:Generated_Source\PSoC6\pdl\middleware/ble/cy_ble_gap.h **** *    
 626:Generated_Source\PSoC6\pdl\middleware/ble/cy_ble_gap.h **** ******************************************************************************/
 627:Generated_Source\PSoC6\pdl\middleware/ble/cy_ble_gap.h **** __STATIC_INLINE uint8_t Cy_BLE_GetConnHandleIdx(cy_stc_ble_conn_handle_t connHandle)
 628:Generated_Source\PSoC6\pdl\middleware/ble/cy_ble_gap.h **** {
 629:Generated_Source\PSoC6\pdl\middleware/ble/cy_ble_gap.h ****     uint8_t idx;
 630:Generated_Source\PSoC6\pdl\middleware/ble/cy_ble_gap.h ****     uint8_t retValue = CY_BLE_CONN_COUNT;
 631:Generated_Source\PSoC6\pdl\middleware/ble/cy_ble_gap.h **** 
 632:Generated_Source\PSoC6\pdl\middleware/ble/cy_ble_gap.h ****     for(idx = 0u; idx < CY_BLE_CONN_COUNT; idx++)
 633:Generated_Source\PSoC6\pdl\middleware/ble/cy_ble_gap.h ****     {
 634:Generated_Source\PSoC6\pdl\middleware/ble/cy_ble_gap.h ****         if(cy_ble_connHandle[idx].bdHandle == connHandle.bdHandle)
 635:Generated_Source\PSoC6\pdl\middleware/ble/cy_ble_gap.h ****         {
 636:Generated_Source\PSoC6\pdl\middleware/ble/cy_ble_gap.h ****             retValue = idx;
 637:Generated_Source\PSoC6\pdl\middleware/ble/cy_ble_gap.h ****             break;
 638:Generated_Source\PSoC6\pdl\middleware/ble/cy_ble_gap.h ****         }
 639:Generated_Source\PSoC6\pdl\middleware/ble/cy_ble_gap.h ****     }
 640:Generated_Source\PSoC6\pdl\middleware/ble/cy_ble_gap.h ****     if(retValue == CY_BLE_CONN_COUNT)
ARM GAS  C:\Users\salaz\AppData\Local\Temp\ccnyouLe.s 			page 19


 641:Generated_Source\PSoC6\pdl\middleware/ble/cy_ble_gap.h ****     {
 642:Generated_Source\PSoC6\pdl\middleware/ble/cy_ble_gap.h ****         /* HALT in debug mode */
 643:Generated_Source\PSoC6\pdl\middleware/ble/cy_ble_gap.h ****         CY_ASSERT(retValue != CY_BLE_CONN_COUNT);
 644:Generated_Source\PSoC6\pdl\middleware/ble/cy_ble_gap.h ****         retValue = 0u;
 645:Generated_Source\PSoC6\pdl\middleware/ble/cy_ble_gap.h ****     }
 646:Generated_Source\PSoC6\pdl\middleware/ble/cy_ble_gap.h **** 
 647:Generated_Source\PSoC6\pdl\middleware/ble/cy_ble_gap.h ****     return(retValue);
 648:Generated_Source\PSoC6\pdl\middleware/ble/cy_ble_gap.h **** }
 649:Generated_Source\PSoC6\pdl\middleware/ble/cy_ble_gap.h **** #endif  /* ((CY_BLE_GAP_ROLE_PERIPHERAL || CY_BLE_GAP_ROLE_CENTRAL)) */
 650:Generated_Source\PSoC6\pdl\middleware/ble/cy_ble_gap.h **** 
 651:Generated_Source\PSoC6\pdl\middleware/ble/cy_ble_gap.h **** /**
 652:Generated_Source\PSoC6\pdl\middleware/ble/cy_ble_gap.h ****  * \addtogroup group_ble_common_api_functions
 653:Generated_Source\PSoC6\pdl\middleware/ble/cy_ble_gap.h ****  * @{
 654:Generated_Source\PSoC6\pdl\middleware/ble/cy_ble_gap.h **** */
 655:Generated_Source\PSoC6\pdl\middleware/ble/cy_ble_gap.h **** /******************************************************************************
 656:Generated_Source\PSoC6\pdl\middleware/ble/cy_ble_gap.h **** * Function Name: Cy_BLE_GetState
 657:Generated_Source\PSoC6\pdl\middleware/ble/cy_ble_gap.h **** ***************************************************************************//**
 658:Generated_Source\PSoC6\pdl\middleware/ble/cy_ble_gap.h **** *
 659:Generated_Source\PSoC6\pdl\middleware/ble/cy_ble_gap.h **** *  This function is used to determine the current state of the BLE Middleware
 660:Generated_Source\PSoC6\pdl\middleware/ble/cy_ble_gap.h **** *  state machine :
 661:Generated_Source\PSoC6\pdl\middleware/ble/cy_ble_gap.h **** *
 662:Generated_Source\PSoC6\pdl\middleware/ble/cy_ble_gap.h **** *  \image html ble_middleware_state_machine.png
 663:Generated_Source\PSoC6\pdl\middleware/ble/cy_ble_gap.h **** *
 664:Generated_Source\PSoC6\pdl\middleware/ble/cy_ble_gap.h **** *  The BLE Middleware is in the state #CY_BLE_STATE_INITIALIZING after the 
 665:Generated_Source\PSoC6\pdl\middleware/ble/cy_ble_gap.h **** *  Cy_BLE_Enable() is called and until the #CY_BLE_EVT_STACK_ON event is not 
 666:Generated_Source\PSoC6\pdl\middleware/ble/cy_ble_gap.h **** *  received. After successful initialization the state is changed to 
 667:Generated_Source\PSoC6\pdl\middleware/ble/cy_ble_gap.h **** *  #CY_BLE_STATE_ON.
 668:Generated_Source\PSoC6\pdl\middleware/ble/cy_ble_gap.h **** *
 669:Generated_Source\PSoC6\pdl\middleware/ble/cy_ble_gap.h **** *  The BLE Middleware is in the state #CY_BLE_STATE_STOPPED 
 670:Generated_Source\PSoC6\pdl\middleware/ble/cy_ble_gap.h **** *  when the #CY_BLE_EVT_STACK_SHUTDOWN_COMPLETE event is received (after the 
 671:Generated_Source\PSoC6\pdl\middleware/ble/cy_ble_gap.h **** *  Cy_BLE_Disable() is called).
 672:Generated_Source\PSoC6\pdl\middleware/ble/cy_ble_gap.h **** *  
 673:Generated_Source\PSoC6\pdl\middleware/ble/cy_ble_gap.h **** *  For GAP Central role when the Cy_BLE_GAPC_ConnectDevice() is called, the state
 674:Generated_Source\PSoC6\pdl\middleware/ble/cy_ble_gap.h **** *  is changed to #CY_BLE_STATE_CONNECTING. After successful connection indicated
 675:Generated_Source\PSoC6\pdl\middleware/ble/cy_ble_gap.h **** *  by #CY_BLE_EVT_GAP_DEVICE_CONNECTED or #CY_BLE_EVT_GAP_ENHANCE_CONN_COMPLETE
 676:Generated_Source\PSoC6\pdl\middleware/ble/cy_ble_gap.h **** *  event or the timeout indicated by #CY_BLE_EVT_TIMEOUT event, the state is
 677:Generated_Source\PSoC6\pdl\middleware/ble/cy_ble_gap.h **** *  changed to #CY_BLE_STATE_ON.
 678:Generated_Source\PSoC6\pdl\middleware/ble/cy_ble_gap.h **** *
 679:Generated_Source\PSoC6\pdl\middleware/ble/cy_ble_gap.h **** * \return
 680:Generated_Source\PSoC6\pdl\middleware/ble/cy_ble_gap.h **** * \ref cy_en_ble_state_t : The current BLE Middleware state. The following are 
 681:Generated_Source\PSoC6\pdl\middleware/ble/cy_ble_gap.h **** *                         possible states:
 682:Generated_Source\PSoC6\pdl\middleware/ble/cy_ble_gap.h **** *
 683:Generated_Source\PSoC6\pdl\middleware/ble/cy_ble_gap.h **** *   State                      | Description
 684:Generated_Source\PSoC6\pdl\middleware/ble/cy_ble_gap.h **** *   -------------------------- | -----------
 685:Generated_Source\PSoC6\pdl\middleware/ble/cy_ble_gap.h **** *   CY_BLE_STATE_STOPPED       | BLE is turned off.
 686:Generated_Source\PSoC6\pdl\middleware/ble/cy_ble_gap.h **** *   CY_BLE_STATE_INITIALIZING  | BLE is initializing (waiting for #CY_BLE_EVT_STACK_ON event).
 687:Generated_Source\PSoC6\pdl\middleware/ble/cy_ble_gap.h **** *   CY_BLE_STATE_ON            | BLE is turned on.
 688:Generated_Source\PSoC6\pdl\middleware/ble/cy_ble_gap.h **** *   CY_BLE_STATE_CONNECTING    | BLE is connecting.
 689:Generated_Source\PSoC6\pdl\middleware/ble/cy_ble_gap.h **** 
 690:Generated_Source\PSoC6\pdl\middleware/ble/cy_ble_gap.h **** ******************************************************************************/
 691:Generated_Source\PSoC6\pdl\middleware/ble/cy_ble_gap.h **** #define Cy_BLE_GetState()    (cy_ble_state)
 692:Generated_Source\PSoC6\pdl\middleware/ble/cy_ble_gap.h **** 
 693:Generated_Source\PSoC6\pdl\middleware/ble/cy_ble_gap.h **** /** \cond IGNORE */
 694:Generated_Source\PSoC6\pdl\middleware/ble/cy_ble_gap.h **** /******************************************************************************
 695:Generated_Source\PSoC6\pdl\middleware/ble/cy_ble_gap.h **** * Function Name: Cy_BLE_SetState
 696:Generated_Source\PSoC6\pdl\middleware/ble/cy_ble_gap.h **** ***************************************************************************//**
 697:Generated_Source\PSoC6\pdl\middleware/ble/cy_ble_gap.h **** *
ARM GAS  C:\Users\salaz\AppData\Local\Temp\ccnyouLe.s 			page 20


 698:Generated_Source\PSoC6\pdl\middleware/ble/cy_ble_gap.h **** *  Used to set the BLE Middleware state machine's state.
 699:Generated_Source\PSoC6\pdl\middleware/ble/cy_ble_gap.h **** *
 700:Generated_Source\PSoC6\pdl\middleware/ble/cy_ble_gap.h **** *  \param state: The desired state to which the event handler's
 701:Generated_Source\PSoC6\pdl\middleware/ble/cy_ble_gap.h **** *   state machine should be set. The parameter state is a variable
 702:Generated_Source\PSoC6\pdl\middleware/ble/cy_ble_gap.h **** *   of type cy_en_ble_state_t.
 703:Generated_Source\PSoC6\pdl\middleware/ble/cy_ble_gap.h **** *
 704:Generated_Source\PSoC6\pdl\middleware/ble/cy_ble_gap.h **** * \return
 705:Generated_Source\PSoC6\pdl\middleware/ble/cy_ble_gap.h **** *  None
 706:Generated_Source\PSoC6\pdl\middleware/ble/cy_ble_gap.h **** *
 707:Generated_Source\PSoC6\pdl\middleware/ble/cy_ble_gap.h **** ******************************************************************************/
 708:Generated_Source\PSoC6\pdl\middleware/ble/cy_ble_gap.h **** #define Cy_BLE_SetState(state)    (cy_ble_state = (state))
 709:Generated_Source\PSoC6\pdl\middleware/ble/cy_ble_gap.h **** /** \endcond */
 710:Generated_Source\PSoC6\pdl\middleware/ble/cy_ble_gap.h **** 
 711:Generated_Source\PSoC6\pdl\middleware/ble/cy_ble_gap.h **** #if (CY_BLE_GAP_ROLE_PERIPHERAL || CY_BLE_GAP_ROLE_BROADCASTER)
 712:Generated_Source\PSoC6\pdl\middleware/ble/cy_ble_gap.h **** 
 713:Generated_Source\PSoC6\pdl\middleware/ble/cy_ble_gap.h **** 
 714:Generated_Source\PSoC6\pdl\middleware/ble/cy_ble_gap.h **** /******************************************************************************
 715:Generated_Source\PSoC6\pdl\middleware/ble/cy_ble_gap.h **** * Function Name: Cy_BLE_GetAdvertisementState
 716:Generated_Source\PSoC6\pdl\middleware/ble/cy_ble_gap.h **** ***************************************************************************//**
 717:Generated_Source\PSoC6\pdl\middleware/ble/cy_ble_gap.h **** *    
 718:Generated_Source\PSoC6\pdl\middleware/ble/cy_ble_gap.h **** *  This function returns the state of the link layer hardware advertisement
 719:Generated_Source\PSoC6\pdl\middleware/ble/cy_ble_gap.h **** *  engine.
 720:Generated_Source\PSoC6\pdl\middleware/ble/cy_ble_gap.h **** *
 721:Generated_Source\PSoC6\pdl\middleware/ble/cy_ble_gap.h **** *  \image html ble_advertisement_state_machine.png
 722:Generated_Source\PSoC6\pdl\middleware/ble/cy_ble_gap.h **** *
 723:Generated_Source\PSoC6\pdl\middleware/ble/cy_ble_gap.h **** *  When Cy_BLE_GAPP_StartAdvertisement() is called, the state is set to
 724:Generated_Source\PSoC6\pdl\middleware/ble/cy_ble_gap.h **** *  #CY_BLE_ADV_STATE_ADV_INITIATED. It automatically changes to
 725:Generated_Source\PSoC6\pdl\middleware/ble/cy_ble_gap.h **** *  #CY_BLE_ADV_STATE_ADVERTISING when #CY_BLE_EVT_GAPP_ADVERTISEMENT_START_STOP
 726:Generated_Source\PSoC6\pdl\middleware/ble/cy_ble_gap.h **** *  event is received. When Cy_BLE_GAPP_StopAdvertisement() is called, the
 727:Generated_Source\PSoC6\pdl\middleware/ble/cy_ble_gap.h **** *  state is set to #CY_BLE_ADV_STATE_STOP_INITIATED. It automatically changes
 728:Generated_Source\PSoC6\pdl\middleware/ble/cy_ble_gap.h **** *  to #CY_BLE_ADV_STATE_STOPPED when the #CY_BLE_EVT_GAPP_ADVERTISEMENT_START_STOP
 729:Generated_Source\PSoC6\pdl\middleware/ble/cy_ble_gap.h **** *  event is received.
 730:Generated_Source\PSoC6\pdl\middleware/ble/cy_ble_gap.h **** *
 731:Generated_Source\PSoC6\pdl\middleware/ble/cy_ble_gap.h **** * \return
 732:Generated_Source\PSoC6\pdl\middleware/ble/cy_ble_gap.h **** * \ref cy_en_ble_adv_state_t :The current advertising state. The following are 
 733:Generated_Source\PSoC6\pdl\middleware/ble/cy_ble_gap.h **** *                              possible states.
 734:Generated_Source\PSoC6\pdl\middleware/ble/cy_ble_gap.h **** *
 735:Generated_Source\PSoC6\pdl\middleware/ble/cy_ble_gap.h **** *               State                |         Description
 736:Generated_Source\PSoC6\pdl\middleware/ble/cy_ble_gap.h **** *   -------------------------------- | -----------------------------
 737:Generated_Source\PSoC6\pdl\middleware/ble/cy_ble_gap.h **** *   CY_BLE_ADV_STATE_STOPPED         | Advertising is stopped.
 738:Generated_Source\PSoC6\pdl\middleware/ble/cy_ble_gap.h **** *   CY_BLE_ADV_STATE_ADV_INITIATED   | Advertising is initiated.
 739:Generated_Source\PSoC6\pdl\middleware/ble/cy_ble_gap.h **** *   CY_BLE_ADV_STATE_ADVERTISING     | Advertising is initiated.
 740:Generated_Source\PSoC6\pdl\middleware/ble/cy_ble_gap.h **** *   CY_BLE_ADV_STATE_STOP_INITIATED  | Stop advertising is initiated.
 741:Generated_Source\PSoC6\pdl\middleware/ble/cy_ble_gap.h **** *
 742:Generated_Source\PSoC6\pdl\middleware/ble/cy_ble_gap.h **** ******************************************************************************/
 743:Generated_Source\PSoC6\pdl\middleware/ble/cy_ble_gap.h **** __STATIC_INLINE cy_en_ble_adv_state_t Cy_BLE_GetAdvertisementState(void)
 744:Generated_Source\PSoC6\pdl\middleware/ble/cy_ble_gap.h **** {
 745:Generated_Source\PSoC6\pdl\middleware/ble/cy_ble_gap.h ****     return(cy_ble_advState);
 322              		.loc 2 745 0
 323 0192 734B     		ldr	r3, .L32+80
 324 0194 1978     		ldrb	r1, [r3]
 325              	.LVL27:
 326              	.LBE31:
 327              	.LBE30:
  64:Transmission.c ****             break;
  65:Transmission.c ****         }
  66:Transmission.c ****         case CY_BLE_EVT_GAPP_ADVERTISEMENT_START_STOP:
ARM GAS  C:\Users\salaz\AppData\Local\Temp\ccnyouLe.s 			page 21


  67:Transmission.c ****         {
  68:Transmission.c ****             is_advertising = (Cy_BLE_GetAdvertisementState() == CY_BLE_ADV_STATE_ADVERTISING);
 328              		.loc 1 68 0
 329 0196 0239     		subs	r1, r1, #2
 330 0198 4A42     		rsbs	r2, r1, #0
 331 019a 4A41     		adcs	r2, r2, r1
 332 019c D1B2     		uxtb	r1, r2
 333 019e 5C4B     		ldr	r3, .L32
 334 01a0 1970     		strb	r1, [r3]
  69:Transmission.c ****             DEBUG_PRINTF("CY_BLE_EVT_GAPP_ADVERTISEMENT_START_STOP %u \r\n", (uint8)is_advertising)
 335              		.loc 1 69 0
 336 01a2 7048     		ldr	r0, .L32+84
 337              	.LVL28:
 338 01a4 FFF7FEFF 		bl	printf
 339              	.LVL29:
 340              	.L18:
 341              	.LBB32:
 342              	.LBB33:
 343              		.file 3 "Generated_Source\\PSoC6\\pdl\\drivers/peripheral/scb/cy_scb_common.h"
   1:Generated_Source\PSoC6\pdl\drivers/peripheral/scb/cy_scb_common.h **** /***************************************************************************//**
   2:Generated_Source\PSoC6\pdl\drivers/peripheral/scb/cy_scb_common.h **** * \file cy_scb_common.h
   3:Generated_Source\PSoC6\pdl\drivers/peripheral/scb/cy_scb_common.h **** * \version 2.10
   4:Generated_Source\PSoC6\pdl\drivers/peripheral/scb/cy_scb_common.h **** *
   5:Generated_Source\PSoC6\pdl\drivers/peripheral/scb/cy_scb_common.h **** * Provides common API declarations of the SCB driver.
   6:Generated_Source\PSoC6\pdl\drivers/peripheral/scb/cy_scb_common.h **** *
   7:Generated_Source\PSoC6\pdl\drivers/peripheral/scb/cy_scb_common.h **** ********************************************************************************
   8:Generated_Source\PSoC6\pdl\drivers/peripheral/scb/cy_scb_common.h **** * \copyright
   9:Generated_Source\PSoC6\pdl\drivers/peripheral/scb/cy_scb_common.h **** * Copyright 2016-2018, Cypress Semiconductor Corporation.  All rights reserved.
  10:Generated_Source\PSoC6\pdl\drivers/peripheral/scb/cy_scb_common.h **** * You may use this file only in accordance with the license, terms, conditions,
  11:Generated_Source\PSoC6\pdl\drivers/peripheral/scb/cy_scb_common.h **** * disclaimers, and limitations in the end user license agreement accompanying
  12:Generated_Source\PSoC6\pdl\drivers/peripheral/scb/cy_scb_common.h **** * the software package with which this file was provided.
  13:Generated_Source\PSoC6\pdl\drivers/peripheral/scb/cy_scb_common.h **** *******************************************************************************/
  14:Generated_Source\PSoC6\pdl\drivers/peripheral/scb/cy_scb_common.h **** 
  15:Generated_Source\PSoC6\pdl\drivers/peripheral/scb/cy_scb_common.h **** /**
  16:Generated_Source\PSoC6\pdl\drivers/peripheral/scb/cy_scb_common.h **** * \defgroup group_scb Serial Communication Block (SCB)
  17:Generated_Source\PSoC6\pdl\drivers/peripheral/scb/cy_scb_common.h **** * \{
  18:Generated_Source\PSoC6\pdl\drivers/peripheral/scb/cy_scb_common.h **** * \defgroup group_scb_common Common
  19:Generated_Source\PSoC6\pdl\drivers/peripheral/scb/cy_scb_common.h **** * \defgroup group_scb_ezi2c  EZI2C (SCB)
  20:Generated_Source\PSoC6\pdl\drivers/peripheral/scb/cy_scb_common.h **** * \defgroup group_scb_i2c    I2C (SCB)
  21:Generated_Source\PSoC6\pdl\drivers/peripheral/scb/cy_scb_common.h **** * \defgroup group_scb_spi    SPI (SCB)
  22:Generated_Source\PSoC6\pdl\drivers/peripheral/scb/cy_scb_common.h **** * \defgroup group_scb_uart   UART (SCB)
  23:Generated_Source\PSoC6\pdl\drivers/peripheral/scb/cy_scb_common.h **** * \} */
  24:Generated_Source\PSoC6\pdl\drivers/peripheral/scb/cy_scb_common.h **** 
  25:Generated_Source\PSoC6\pdl\drivers/peripheral/scb/cy_scb_common.h **** /**
  26:Generated_Source\PSoC6\pdl\drivers/peripheral/scb/cy_scb_common.h **** * \addtogroup group_scb_common
  27:Generated_Source\PSoC6\pdl\drivers/peripheral/scb/cy_scb_common.h **** * \{
  28:Generated_Source\PSoC6\pdl\drivers/peripheral/scb/cy_scb_common.h **** *
  29:Generated_Source\PSoC6\pdl\drivers/peripheral/scb/cy_scb_common.h **** * Common API for the Serial Communication Block.
  30:Generated_Source\PSoC6\pdl\drivers/peripheral/scb/cy_scb_common.h **** *
  31:Generated_Source\PSoC6\pdl\drivers/peripheral/scb/cy_scb_common.h **** * This is the common API that provides an interface to the SCB hardware.
  32:Generated_Source\PSoC6\pdl\drivers/peripheral/scb/cy_scb_common.h **** * The I2C, SPI, and UART drivers use this common API.
  33:Generated_Source\PSoC6\pdl\drivers/peripheral/scb/cy_scb_common.h **** * Most users will use individual drivers and do not need to use the common
  34:Generated_Source\PSoC6\pdl\drivers/peripheral/scb/cy_scb_common.h **** * API for the SCB. However, you can use the common SCB API to implement
  35:Generated_Source\PSoC6\pdl\drivers/peripheral/scb/cy_scb_common.h **** * a custom driver based on the SCB hardware.
  36:Generated_Source\PSoC6\pdl\drivers/peripheral/scb/cy_scb_common.h **** *
  37:Generated_Source\PSoC6\pdl\drivers/peripheral/scb/cy_scb_common.h **** * \section group_scb_common_configuration Configuration Considerations
  38:Generated_Source\PSoC6\pdl\drivers/peripheral/scb/cy_scb_common.h **** *
ARM GAS  C:\Users\salaz\AppData\Local\Temp\ccnyouLe.s 			page 22


  39:Generated_Source\PSoC6\pdl\drivers/peripheral/scb/cy_scb_common.h **** * This is not a driver and it does not require configuration.
  40:Generated_Source\PSoC6\pdl\drivers/peripheral/scb/cy_scb_common.h **** *
  41:Generated_Source\PSoC6\pdl\drivers/peripheral/scb/cy_scb_common.h **** * \section group_scb_common_more_information More Information
  42:Generated_Source\PSoC6\pdl\drivers/peripheral/scb/cy_scb_common.h **** *
  43:Generated_Source\PSoC6\pdl\drivers/peripheral/scb/cy_scb_common.h **** * Refer to the SCB chapter of the technical reference manual (TRM).
  44:Generated_Source\PSoC6\pdl\drivers/peripheral/scb/cy_scb_common.h **** *
  45:Generated_Source\PSoC6\pdl\drivers/peripheral/scb/cy_scb_common.h **** * \section group_scb_common_MISRA MISRA-C Compliance
  46:Generated_Source\PSoC6\pdl\drivers/peripheral/scb/cy_scb_common.h **** * <table class="doxtable">
  47:Generated_Source\PSoC6\pdl\drivers/peripheral/scb/cy_scb_common.h **** *   <tr>
  48:Generated_Source\PSoC6\pdl\drivers/peripheral/scb/cy_scb_common.h **** *     <th>MISRA rule</th>
  49:Generated_Source\PSoC6\pdl\drivers/peripheral/scb/cy_scb_common.h **** *     <th>Rule Class (Required/Advisory)</th>
  50:Generated_Source\PSoC6\pdl\drivers/peripheral/scb/cy_scb_common.h **** *     <th>Rule Description</th>
  51:Generated_Source\PSoC6\pdl\drivers/peripheral/scb/cy_scb_common.h **** *     <th>Description of Deviation(s)</th>
  52:Generated_Source\PSoC6\pdl\drivers/peripheral/scb/cy_scb_common.h **** *   </tr>
  53:Generated_Source\PSoC6\pdl\drivers/peripheral/scb/cy_scb_common.h **** *   <tr>
  54:Generated_Source\PSoC6\pdl\drivers/peripheral/scb/cy_scb_common.h **** *     <td>11.4</td>
  55:Generated_Source\PSoC6\pdl\drivers/peripheral/scb/cy_scb_common.h **** *     <td>A</td>
  56:Generated_Source\PSoC6\pdl\drivers/peripheral/scb/cy_scb_common.h **** *     <td>A cast should not be performed between a pointer to object type and
  57:Generated_Source\PSoC6\pdl\drivers/peripheral/scb/cy_scb_common.h **** *         a different pointer to object type.</td>
  58:Generated_Source\PSoC6\pdl\drivers/peripheral/scb/cy_scb_common.h **** *     <td>The pointer to the buffer memory is void to allow handling of
  59:Generated_Source\PSoC6\pdl\drivers/peripheral/scb/cy_scb_common.h **** *         different data types: uint8_t (4-8 bits) or uint16_t (9-16 bits).
  60:Generated_Source\PSoC6\pdl\drivers/peripheral/scb/cy_scb_common.h **** *         The cast operation is safe because the configuration is verified
  61:Generated_Source\PSoC6\pdl\drivers/peripheral/scb/cy_scb_common.h **** *         before operation is performed.
  62:Generated_Source\PSoC6\pdl\drivers/peripheral/scb/cy_scb_common.h **** *         </td>
  63:Generated_Source\PSoC6\pdl\drivers/peripheral/scb/cy_scb_common.h **** *   </tr>
  64:Generated_Source\PSoC6\pdl\drivers/peripheral/scb/cy_scb_common.h **** * </table>
  65:Generated_Source\PSoC6\pdl\drivers/peripheral/scb/cy_scb_common.h **** *
  66:Generated_Source\PSoC6\pdl\drivers/peripheral/scb/cy_scb_common.h **** * \section group_scb_common_changelog Changelog
  67:Generated_Source\PSoC6\pdl\drivers/peripheral/scb/cy_scb_common.h **** * <table class="doxtable">
  68:Generated_Source\PSoC6\pdl\drivers/peripheral/scb/cy_scb_common.h **** *   <tr><th>Version</th><th>Changes</th><th>Reason for Change</th></tr>
  69:Generated_Source\PSoC6\pdl\drivers/peripheral/scb/cy_scb_common.h **** *   <tr>
  70:Generated_Source\PSoC6\pdl\drivers/peripheral/scb/cy_scb_common.h **** *     <td>2.10</td>
  71:Generated_Source\PSoC6\pdl\drivers/peripheral/scb/cy_scb_common.h **** *     <td>None.</td>
  72:Generated_Source\PSoC6\pdl\drivers/peripheral/scb/cy_scb_common.h **** *     <td>SCB I2C driver updated.</td>
  73:Generated_Source\PSoC6\pdl\drivers/peripheral/scb/cy_scb_common.h **** *   </tr>
  74:Generated_Source\PSoC6\pdl\drivers/peripheral/scb/cy_scb_common.h **** *   <tr>
  75:Generated_Source\PSoC6\pdl\drivers/peripheral/scb/cy_scb_common.h **** *     <td rowspan="2"> 2.0</td>
  76:Generated_Source\PSoC6\pdl\drivers/peripheral/scb/cy_scb_common.h **** *     <td>Added parameters validation for public API.
  77:Generated_Source\PSoC6\pdl\drivers/peripheral/scb/cy_scb_common.h **** *     <td></td>
  78:Generated_Source\PSoC6\pdl\drivers/peripheral/scb/cy_scb_common.h **** *   </tr>
  79:Generated_Source\PSoC6\pdl\drivers/peripheral/scb/cy_scb_common.h **** *   <tr>
  80:Generated_Source\PSoC6\pdl\drivers/peripheral/scb/cy_scb_common.h **** *     <td>Fixed functions which return interrupt status to return only defined
  81:Generated_Source\PSoC6\pdl\drivers/peripheral/scb/cy_scb_common.h **** *         set of interrupt statuses.</td>
  82:Generated_Source\PSoC6\pdl\drivers/peripheral/scb/cy_scb_common.h **** *     <td></td>
  83:Generated_Source\PSoC6\pdl\drivers/peripheral/scb/cy_scb_common.h **** *   </tr>
  84:Generated_Source\PSoC6\pdl\drivers/peripheral/scb/cy_scb_common.h **** *   <tr>
  85:Generated_Source\PSoC6\pdl\drivers/peripheral/scb/cy_scb_common.h **** *     <td>1.0</td>
  86:Generated_Source\PSoC6\pdl\drivers/peripheral/scb/cy_scb_common.h **** *     <td>Initial version.</td>
  87:Generated_Source\PSoC6\pdl\drivers/peripheral/scb/cy_scb_common.h **** *     <td></td>
  88:Generated_Source\PSoC6\pdl\drivers/peripheral/scb/cy_scb_common.h **** *   </tr>
  89:Generated_Source\PSoC6\pdl\drivers/peripheral/scb/cy_scb_common.h **** * </table>
  90:Generated_Source\PSoC6\pdl\drivers/peripheral/scb/cy_scb_common.h **** *
  91:Generated_Source\PSoC6\pdl\drivers/peripheral/scb/cy_scb_common.h **** * \defgroup group_scb_common_macros Macros
  92:Generated_Source\PSoC6\pdl\drivers/peripheral/scb/cy_scb_common.h **** * \defgroup group_scb_common_functions Functions
  93:Generated_Source\PSoC6\pdl\drivers/peripheral/scb/cy_scb_common.h **** * \defgroup group_scb_common_data_structures Data Structures
  94:Generated_Source\PSoC6\pdl\drivers/peripheral/scb/cy_scb_common.h **** *
  95:Generated_Source\PSoC6\pdl\drivers/peripheral/scb/cy_scb_common.h **** */
ARM GAS  C:\Users\salaz\AppData\Local\Temp\ccnyouLe.s 			page 23


  96:Generated_Source\PSoC6\pdl\drivers/peripheral/scb/cy_scb_common.h **** 
  97:Generated_Source\PSoC6\pdl\drivers/peripheral/scb/cy_scb_common.h **** #if !defined(CY_SCB_COMMON_H)
  98:Generated_Source\PSoC6\pdl\drivers/peripheral/scb/cy_scb_common.h **** #define CY_SCB_COMMON_H
  99:Generated_Source\PSoC6\pdl\drivers/peripheral/scb/cy_scb_common.h **** 
 100:Generated_Source\PSoC6\pdl\drivers/peripheral/scb/cy_scb_common.h **** #include <stdint.h>
 101:Generated_Source\PSoC6\pdl\drivers/peripheral/scb/cy_scb_common.h **** #include <stddef.h>
 102:Generated_Source\PSoC6\pdl\drivers/peripheral/scb/cy_scb_common.h **** #include <stdbool.h>
 103:Generated_Source\PSoC6\pdl\drivers/peripheral/scb/cy_scb_common.h **** #include "cy_device_headers.h"
 104:Generated_Source\PSoC6\pdl\drivers/peripheral/scb/cy_scb_common.h **** #include "syslib/cy_syslib.h"
 105:Generated_Source\PSoC6\pdl\drivers/peripheral/scb/cy_scb_common.h **** #include "syspm/cy_syspm.h"
 106:Generated_Source\PSoC6\pdl\drivers/peripheral/scb/cy_scb_common.h **** 
 107:Generated_Source\PSoC6\pdl\drivers/peripheral/scb/cy_scb_common.h **** #ifndef CY_IP_MXSCB
 108:Generated_Source\PSoC6\pdl\drivers/peripheral/scb/cy_scb_common.h ****     #error "The SCB driver is not supported on this device"
 109:Generated_Source\PSoC6\pdl\drivers/peripheral/scb/cy_scb_common.h **** #endif
 110:Generated_Source\PSoC6\pdl\drivers/peripheral/scb/cy_scb_common.h **** 
 111:Generated_Source\PSoC6\pdl\drivers/peripheral/scb/cy_scb_common.h **** #if defined(__cplusplus)
 112:Generated_Source\PSoC6\pdl\drivers/peripheral/scb/cy_scb_common.h **** extern "C" {
 113:Generated_Source\PSoC6\pdl\drivers/peripheral/scb/cy_scb_common.h **** #endif
 114:Generated_Source\PSoC6\pdl\drivers/peripheral/scb/cy_scb_common.h **** 
 115:Generated_Source\PSoC6\pdl\drivers/peripheral/scb/cy_scb_common.h **** 
 116:Generated_Source\PSoC6\pdl\drivers/peripheral/scb/cy_scb_common.h **** /***************************************
 117:Generated_Source\PSoC6\pdl\drivers/peripheral/scb/cy_scb_common.h **** *        Function Prototypes
 118:Generated_Source\PSoC6\pdl\drivers/peripheral/scb/cy_scb_common.h **** ***************************************/
 119:Generated_Source\PSoC6\pdl\drivers/peripheral/scb/cy_scb_common.h **** 
 120:Generated_Source\PSoC6\pdl\drivers/peripheral/scb/cy_scb_common.h **** /**
 121:Generated_Source\PSoC6\pdl\drivers/peripheral/scb/cy_scb_common.h **** * \addtogroup group_scb_common_functions
 122:Generated_Source\PSoC6\pdl\drivers/peripheral/scb/cy_scb_common.h **** * \{
 123:Generated_Source\PSoC6\pdl\drivers/peripheral/scb/cy_scb_common.h **** */
 124:Generated_Source\PSoC6\pdl\drivers/peripheral/scb/cy_scb_common.h **** __STATIC_INLINE uint32_t Cy_SCB_ReadRxFifo    (CySCB_Type const *base);
 125:Generated_Source\PSoC6\pdl\drivers/peripheral/scb/cy_scb_common.h **** __STATIC_INLINE void     Cy_SCB_SetRxFifoLevel(CySCB_Type *base, uint32_t level);
 126:Generated_Source\PSoC6\pdl\drivers/peripheral/scb/cy_scb_common.h **** __STATIC_INLINE uint32_t Cy_SCB_GetNumInRxFifo(CySCB_Type const *base);
 127:Generated_Source\PSoC6\pdl\drivers/peripheral/scb/cy_scb_common.h **** __STATIC_INLINE uint32_t Cy_SCB_GetRxSrValid  (CySCB_Type const *base);
 128:Generated_Source\PSoC6\pdl\drivers/peripheral/scb/cy_scb_common.h **** __STATIC_INLINE void     Cy_SCB_ClearRxFifo   (CySCB_Type *base);
 129:Generated_Source\PSoC6\pdl\drivers/peripheral/scb/cy_scb_common.h **** 
 130:Generated_Source\PSoC6\pdl\drivers/peripheral/scb/cy_scb_common.h **** __STATIC_INLINE void     Cy_SCB_WriteTxFifo   (CySCB_Type *base, uint32_t data);
 131:Generated_Source\PSoC6\pdl\drivers/peripheral/scb/cy_scb_common.h **** __STATIC_INLINE void     Cy_SCB_SetTxFifoLevel(CySCB_Type *base, uint32_t level);
 132:Generated_Source\PSoC6\pdl\drivers/peripheral/scb/cy_scb_common.h **** __STATIC_INLINE uint32_t Cy_SCB_GetNumInTxFifo(CySCB_Type const *base);
 133:Generated_Source\PSoC6\pdl\drivers/peripheral/scb/cy_scb_common.h **** __STATIC_INLINE uint32_t Cy_SCB_GetTxSrValid  (CySCB_Type const *base);
 134:Generated_Source\PSoC6\pdl\drivers/peripheral/scb/cy_scb_common.h **** __STATIC_INLINE bool     Cy_SCB_IsTxComplete  (CySCB_Type const *base);
 135:Generated_Source\PSoC6\pdl\drivers/peripheral/scb/cy_scb_common.h **** __STATIC_INLINE void     Cy_SCB_ClearTxFifo   (CySCB_Type *base);
 136:Generated_Source\PSoC6\pdl\drivers/peripheral/scb/cy_scb_common.h **** 
 137:Generated_Source\PSoC6\pdl\drivers/peripheral/scb/cy_scb_common.h **** __STATIC_INLINE void     Cy_SCB_SetByteMode(CySCB_Type *base, bool byteMode);
 138:Generated_Source\PSoC6\pdl\drivers/peripheral/scb/cy_scb_common.h **** 
 139:Generated_Source\PSoC6\pdl\drivers/peripheral/scb/cy_scb_common.h **** __STATIC_INLINE uint32_t Cy_SCB_GetInterruptCause(CySCB_Type const *base);
 140:Generated_Source\PSoC6\pdl\drivers/peripheral/scb/cy_scb_common.h **** 
 141:Generated_Source\PSoC6\pdl\drivers/peripheral/scb/cy_scb_common.h **** __STATIC_INLINE uint32_t Cy_SCB_GetRxInterruptStatus(CySCB_Type const *base);
 142:Generated_Source\PSoC6\pdl\drivers/peripheral/scb/cy_scb_common.h **** __STATIC_INLINE void     Cy_SCB_SetRxInterruptMask  (CySCB_Type *base, uint32_t interruptMask);
 143:Generated_Source\PSoC6\pdl\drivers/peripheral/scb/cy_scb_common.h **** __STATIC_INLINE uint32_t Cy_SCB_GetRxInterruptMask  (CySCB_Type const *base);
 144:Generated_Source\PSoC6\pdl\drivers/peripheral/scb/cy_scb_common.h **** __STATIC_INLINE uint32_t Cy_SCB_GetRxInterruptStatusMasked(CySCB_Type const *base);
 145:Generated_Source\PSoC6\pdl\drivers/peripheral/scb/cy_scb_common.h **** __STATIC_INLINE void     Cy_SCB_ClearRxInterrupt    (CySCB_Type *base, uint32_t interruptMask);
 146:Generated_Source\PSoC6\pdl\drivers/peripheral/scb/cy_scb_common.h **** __STATIC_INLINE void     Cy_SCB_SetRxInterrupt      (CySCB_Type *base, uint32_t interruptMask);
 147:Generated_Source\PSoC6\pdl\drivers/peripheral/scb/cy_scb_common.h **** 
 148:Generated_Source\PSoC6\pdl\drivers/peripheral/scb/cy_scb_common.h **** __STATIC_INLINE uint32_t Cy_SCB_GetTxInterruptStatus(CySCB_Type const *base);
 149:Generated_Source\PSoC6\pdl\drivers/peripheral/scb/cy_scb_common.h **** __STATIC_INLINE void     Cy_SCB_SetTxInterruptMask  (CySCB_Type *base, uint32_t interruptMask);
 150:Generated_Source\PSoC6\pdl\drivers/peripheral/scb/cy_scb_common.h **** __STATIC_INLINE uint32_t Cy_SCB_GetTxInterruptMask  (CySCB_Type const *base);
 151:Generated_Source\PSoC6\pdl\drivers/peripheral/scb/cy_scb_common.h **** __STATIC_INLINE uint32_t Cy_SCB_GetTxInterruptStatusMasked(CySCB_Type const *base);
 152:Generated_Source\PSoC6\pdl\drivers/peripheral/scb/cy_scb_common.h **** __STATIC_INLINE void     Cy_SCB_ClearTxInterrupt    (CySCB_Type *base, uint32_t interruptMask);
ARM GAS  C:\Users\salaz\AppData\Local\Temp\ccnyouLe.s 			page 24


 153:Generated_Source\PSoC6\pdl\drivers/peripheral/scb/cy_scb_common.h **** __STATIC_INLINE void     Cy_SCB_SetTxInterrupt      (CySCB_Type *base, uint32_t interruptMask);
 154:Generated_Source\PSoC6\pdl\drivers/peripheral/scb/cy_scb_common.h **** 
 155:Generated_Source\PSoC6\pdl\drivers/peripheral/scb/cy_scb_common.h **** __STATIC_INLINE uint32_t Cy_SCB_GetMasterInterruptStatus(CySCB_Type const *base);
 156:Generated_Source\PSoC6\pdl\drivers/peripheral/scb/cy_scb_common.h **** __STATIC_INLINE void     Cy_SCB_SetMasterInterruptMask  (CySCB_Type *base, uint32_t interruptMask);
 157:Generated_Source\PSoC6\pdl\drivers/peripheral/scb/cy_scb_common.h **** __STATIC_INLINE uint32_t Cy_SCB_GetMasterInterruptMask  (CySCB_Type const *base);
 158:Generated_Source\PSoC6\pdl\drivers/peripheral/scb/cy_scb_common.h **** __STATIC_INLINE uint32_t Cy_SCB_GetMasterInterruptStatusMasked(CySCB_Type const *base);
 159:Generated_Source\PSoC6\pdl\drivers/peripheral/scb/cy_scb_common.h **** __STATIC_INLINE void     Cy_SCB_ClearMasterInterrupt    (CySCB_Type *base, uint32_t interruptMask);
 160:Generated_Source\PSoC6\pdl\drivers/peripheral/scb/cy_scb_common.h **** __STATIC_INLINE void     Cy_SCB_SetMasterInterrupt      (CySCB_Type *base, uint32_t interruptMask);
 161:Generated_Source\PSoC6\pdl\drivers/peripheral/scb/cy_scb_common.h **** 
 162:Generated_Source\PSoC6\pdl\drivers/peripheral/scb/cy_scb_common.h **** __STATIC_INLINE uint32_t Cy_SCB_GetSlaveInterruptStatus(CySCB_Type const *base);
 163:Generated_Source\PSoC6\pdl\drivers/peripheral/scb/cy_scb_common.h **** __STATIC_INLINE void     Cy_SCB_SetSlaveInterruptMask  (CySCB_Type *base, uint32_t interruptMask);
 164:Generated_Source\PSoC6\pdl\drivers/peripheral/scb/cy_scb_common.h **** __STATIC_INLINE uint32_t Cy_SCB_GetSlaveInterruptMask  (CySCB_Type const *base);
 165:Generated_Source\PSoC6\pdl\drivers/peripheral/scb/cy_scb_common.h **** __STATIC_INLINE uint32_t Cy_SCB_GetSlaveInterruptStatusMasked(CySCB_Type const *base);
 166:Generated_Source\PSoC6\pdl\drivers/peripheral/scb/cy_scb_common.h **** __STATIC_INLINE void     Cy_SCB_ClearSlaveInterrupt    (CySCB_Type *base, uint32_t interruptMask);
 167:Generated_Source\PSoC6\pdl\drivers/peripheral/scb/cy_scb_common.h **** __STATIC_INLINE void     Cy_SCB_SetSlaveInterrupt      (CySCB_Type *base, uint32_t interruptMask);
 168:Generated_Source\PSoC6\pdl\drivers/peripheral/scb/cy_scb_common.h **** 
 169:Generated_Source\PSoC6\pdl\drivers/peripheral/scb/cy_scb_common.h **** __STATIC_INLINE uint32_t Cy_SCB_GetI2CInterruptStatus(CySCB_Type const *base);
 170:Generated_Source\PSoC6\pdl\drivers/peripheral/scb/cy_scb_common.h **** __STATIC_INLINE void     Cy_SCB_SetI2CInterruptMask  (CySCB_Type *base, uint32_t interruptMask);
 171:Generated_Source\PSoC6\pdl\drivers/peripheral/scb/cy_scb_common.h **** __STATIC_INLINE uint32_t Cy_SCB_GetI2CInterruptMask  (CySCB_Type const *base);
 172:Generated_Source\PSoC6\pdl\drivers/peripheral/scb/cy_scb_common.h **** __STATIC_INLINE uint32_t Cy_SCB_GetI2CInterruptStatusMasked(CySCB_Type const *base);
 173:Generated_Source\PSoC6\pdl\drivers/peripheral/scb/cy_scb_common.h **** __STATIC_INLINE void     Cy_SCB_ClearI2CInterrupt    (CySCB_Type *base, uint32_t interruptMask);
 174:Generated_Source\PSoC6\pdl\drivers/peripheral/scb/cy_scb_common.h **** 
 175:Generated_Source\PSoC6\pdl\drivers/peripheral/scb/cy_scb_common.h **** __STATIC_INLINE uint32_t Cy_SCB_GetSpiInterruptStatus(CySCB_Type const *base);
 176:Generated_Source\PSoC6\pdl\drivers/peripheral/scb/cy_scb_common.h **** __STATIC_INLINE void     Cy_SCB_SetSpiInterruptMask  (CySCB_Type *base, uint32_t interruptMask);
 177:Generated_Source\PSoC6\pdl\drivers/peripheral/scb/cy_scb_common.h **** __STATIC_INLINE uint32_t Cy_SCB_GetSpiInterruptMask  (CySCB_Type const *base);
 178:Generated_Source\PSoC6\pdl\drivers/peripheral/scb/cy_scb_common.h **** __STATIC_INLINE uint32_t Cy_SCB_GetSpiInterruptStatusMasked(CySCB_Type const *base);
 179:Generated_Source\PSoC6\pdl\drivers/peripheral/scb/cy_scb_common.h **** __STATIC_INLINE void     Cy_SCB_ClearSpiInterrupt    (CySCB_Type *base, uint32_t interruptMask);
 180:Generated_Source\PSoC6\pdl\drivers/peripheral/scb/cy_scb_common.h **** 
 181:Generated_Source\PSoC6\pdl\drivers/peripheral/scb/cy_scb_common.h **** 
 182:Generated_Source\PSoC6\pdl\drivers/peripheral/scb/cy_scb_common.h **** /***************************************
 183:Generated_Source\PSoC6\pdl\drivers/peripheral/scb/cy_scb_common.h **** *     Internal Function Prototypes
 184:Generated_Source\PSoC6\pdl\drivers/peripheral/scb/cy_scb_common.h **** ***************************************/
 185:Generated_Source\PSoC6\pdl\drivers/peripheral/scb/cy_scb_common.h **** 
 186:Generated_Source\PSoC6\pdl\drivers/peripheral/scb/cy_scb_common.h **** /** \cond INTERNAL */
 187:Generated_Source\PSoC6\pdl\drivers/peripheral/scb/cy_scb_common.h **** void     Cy_SCB_ReadArrayNoCheck  (CySCB_Type const *base, void *buffer, uint32_t size);
 188:Generated_Source\PSoC6\pdl\drivers/peripheral/scb/cy_scb_common.h **** uint32_t Cy_SCB_ReadArray         (CySCB_Type const *base, void *buffer, uint32_t size);
 189:Generated_Source\PSoC6\pdl\drivers/peripheral/scb/cy_scb_common.h **** void     Cy_SCB_ReadArrayBlocking (CySCB_Type const *base, void *buffer, uint32_t size);
 190:Generated_Source\PSoC6\pdl\drivers/peripheral/scb/cy_scb_common.h **** uint32_t Cy_SCB_Write             (CySCB_Type *base, uint32_t data);
 191:Generated_Source\PSoC6\pdl\drivers/peripheral/scb/cy_scb_common.h **** void     Cy_SCB_WriteArrayNoCheck (CySCB_Type *base, void *buffer, uint32_t size);
 192:Generated_Source\PSoC6\pdl\drivers/peripheral/scb/cy_scb_common.h **** uint32_t Cy_SCB_WriteArray        (CySCB_Type *base, void *buffer, uint32_t size);
 193:Generated_Source\PSoC6\pdl\drivers/peripheral/scb/cy_scb_common.h **** void     Cy_SCB_WriteArrayBlocking(CySCB_Type *base, void *buffer, uint32_t size);
 194:Generated_Source\PSoC6\pdl\drivers/peripheral/scb/cy_scb_common.h **** void     Cy_SCB_WriteString       (CySCB_Type *base, char_t const string[]);
 195:Generated_Source\PSoC6\pdl\drivers/peripheral/scb/cy_scb_common.h **** void     Cy_SCB_WriteDefaultArrayNoCheck(CySCB_Type *base, uint32_t txData, uint32_t size);
 196:Generated_Source\PSoC6\pdl\drivers/peripheral/scb/cy_scb_common.h **** uint32_t Cy_SCB_WriteDefaultArray (CySCB_Type *base, uint32_t txData, uint32_t size);
 197:Generated_Source\PSoC6\pdl\drivers/peripheral/scb/cy_scb_common.h **** 
 198:Generated_Source\PSoC6\pdl\drivers/peripheral/scb/cy_scb_common.h **** __STATIC_INLINE uint32_t Cy_SCB_GetFifoSize (CySCB_Type const *base);
 199:Generated_Source\PSoC6\pdl\drivers/peripheral/scb/cy_scb_common.h **** __STATIC_INLINE void     Cy_SCB_FwBlockReset(CySCB_Type *base);
 200:Generated_Source\PSoC6\pdl\drivers/peripheral/scb/cy_scb_common.h **** __STATIC_INLINE bool     Cy_SCB_IsRxDataWidthByte(CySCB_Type const *base);
 201:Generated_Source\PSoC6\pdl\drivers/peripheral/scb/cy_scb_common.h **** __STATIC_INLINE bool     Cy_SCB_IsTxDataWidthByte(CySCB_Type const *base);
 202:Generated_Source\PSoC6\pdl\drivers/peripheral/scb/cy_scb_common.h **** __STATIC_INLINE uint32_t Cy_SCB_GetRxFifoLevel   (CySCB_Type const *base);
 203:Generated_Source\PSoC6\pdl\drivers/peripheral/scb/cy_scb_common.h **** /** \endcond */
 204:Generated_Source\PSoC6\pdl\drivers/peripheral/scb/cy_scb_common.h **** 
 205:Generated_Source\PSoC6\pdl\drivers/peripheral/scb/cy_scb_common.h **** /** \} group_scb_common_functions */
 206:Generated_Source\PSoC6\pdl\drivers/peripheral/scb/cy_scb_common.h **** 
 207:Generated_Source\PSoC6\pdl\drivers/peripheral/scb/cy_scb_common.h **** /***************************************
 208:Generated_Source\PSoC6\pdl\drivers/peripheral/scb/cy_scb_common.h **** *            API Constants
 209:Generated_Source\PSoC6\pdl\drivers/peripheral/scb/cy_scb_common.h **** ***************************************/
ARM GAS  C:\Users\salaz\AppData\Local\Temp\ccnyouLe.s 			page 25


 210:Generated_Source\PSoC6\pdl\drivers/peripheral/scb/cy_scb_common.h **** 
 211:Generated_Source\PSoC6\pdl\drivers/peripheral/scb/cy_scb_common.h **** /**
 212:Generated_Source\PSoC6\pdl\drivers/peripheral/scb/cy_scb_common.h **** * \addtogroup group_scb_common_macros
 213:Generated_Source\PSoC6\pdl\drivers/peripheral/scb/cy_scb_common.h **** * \{
 214:Generated_Source\PSoC6\pdl\drivers/peripheral/scb/cy_scb_common.h **** */
 215:Generated_Source\PSoC6\pdl\drivers/peripheral/scb/cy_scb_common.h **** 
 216:Generated_Source\PSoC6\pdl\drivers/peripheral/scb/cy_scb_common.h **** /** Driver major version */
 217:Generated_Source\PSoC6\pdl\drivers/peripheral/scb/cy_scb_common.h **** #define CY_SCB_DRV_VERSION_MAJOR    (2)
 218:Generated_Source\PSoC6\pdl\drivers/peripheral/scb/cy_scb_common.h **** 
 219:Generated_Source\PSoC6\pdl\drivers/peripheral/scb/cy_scb_common.h **** /** Driver minor version */
 220:Generated_Source\PSoC6\pdl\drivers/peripheral/scb/cy_scb_common.h **** #define CY_SCB_DRV_VERSION_MINOR    (10)
 221:Generated_Source\PSoC6\pdl\drivers/peripheral/scb/cy_scb_common.h **** 
 222:Generated_Source\PSoC6\pdl\drivers/peripheral/scb/cy_scb_common.h **** /** SCB driver identifier */
 223:Generated_Source\PSoC6\pdl\drivers/peripheral/scb/cy_scb_common.h **** #define CY_SCB_ID           CY_PDL_DRV_ID(0x2AU)
 224:Generated_Source\PSoC6\pdl\drivers/peripheral/scb/cy_scb_common.h **** 
 225:Generated_Source\PSoC6\pdl\drivers/peripheral/scb/cy_scb_common.h **** /** Position for SCB driver sub mode */
 226:Generated_Source\PSoC6\pdl\drivers/peripheral/scb/cy_scb_common.h **** #define CY_SCB_SUB_MODE_Pos (13UL)
 227:Generated_Source\PSoC6\pdl\drivers/peripheral/scb/cy_scb_common.h **** 
 228:Generated_Source\PSoC6\pdl\drivers/peripheral/scb/cy_scb_common.h **** /** EZI2C mode identifier */
 229:Generated_Source\PSoC6\pdl\drivers/peripheral/scb/cy_scb_common.h **** #define CY_SCB_EZI2C_ID     (0x0UL << CY_SCB_SUB_MODE_Pos)
 230:Generated_Source\PSoC6\pdl\drivers/peripheral/scb/cy_scb_common.h **** 
 231:Generated_Source\PSoC6\pdl\drivers/peripheral/scb/cy_scb_common.h **** /** EZI2C mode identifier */
 232:Generated_Source\PSoC6\pdl\drivers/peripheral/scb/cy_scb_common.h **** #define CY_SCB_I2C_ID       (0x1UL << CY_SCB_SUB_MODE_Pos)
 233:Generated_Source\PSoC6\pdl\drivers/peripheral/scb/cy_scb_common.h **** 
 234:Generated_Source\PSoC6\pdl\drivers/peripheral/scb/cy_scb_common.h **** /** EZI2C mode identifier */
 235:Generated_Source\PSoC6\pdl\drivers/peripheral/scb/cy_scb_common.h **** #define CY_SCB_SPI_ID       (0x2UL << CY_SCB_SUB_MODE_Pos)
 236:Generated_Source\PSoC6\pdl\drivers/peripheral/scb/cy_scb_common.h **** 
 237:Generated_Source\PSoC6\pdl\drivers/peripheral/scb/cy_scb_common.h **** /** EZI2C mode identifier */
 238:Generated_Source\PSoC6\pdl\drivers/peripheral/scb/cy_scb_common.h **** #define CY_SCB_UART_ID      (0x3UL << CY_SCB_SUB_MODE_Pos)
 239:Generated_Source\PSoC6\pdl\drivers/peripheral/scb/cy_scb_common.h **** 
 240:Generated_Source\PSoC6\pdl\drivers/peripheral/scb/cy_scb_common.h **** /**
 241:Generated_Source\PSoC6\pdl\drivers/peripheral/scb/cy_scb_common.h **** * \defgroup group_scb_common_macros_intr_cause SCB Interrupt Causes
 242:Generated_Source\PSoC6\pdl\drivers/peripheral/scb/cy_scb_common.h **** * \{
 243:Generated_Source\PSoC6\pdl\drivers/peripheral/scb/cy_scb_common.h **** */
 244:Generated_Source\PSoC6\pdl\drivers/peripheral/scb/cy_scb_common.h **** /** Interrupt from Master interrupt sources */
 245:Generated_Source\PSoC6\pdl\drivers/peripheral/scb/cy_scb_common.h **** #define CY_SCB_MASTER_INTR SCB_INTR_CAUSE_M_Msk
 246:Generated_Source\PSoC6\pdl\drivers/peripheral/scb/cy_scb_common.h **** 
 247:Generated_Source\PSoC6\pdl\drivers/peripheral/scb/cy_scb_common.h **** /** Interrupt from Slave interrupt sources  */
 248:Generated_Source\PSoC6\pdl\drivers/peripheral/scb/cy_scb_common.h **** #define CY_SCB_SLAVE_INTR  SCB_INTR_CAUSE_S_Msk
 249:Generated_Source\PSoC6\pdl\drivers/peripheral/scb/cy_scb_common.h **** 
 250:Generated_Source\PSoC6\pdl\drivers/peripheral/scb/cy_scb_common.h **** /** Interrupt from TX interrupt sources */
 251:Generated_Source\PSoC6\pdl\drivers/peripheral/scb/cy_scb_common.h **** #define CY_SCB_TX_INTR     SCB_INTR_CAUSE_TX_Msk
 252:Generated_Source\PSoC6\pdl\drivers/peripheral/scb/cy_scb_common.h **** 
 253:Generated_Source\PSoC6\pdl\drivers/peripheral/scb/cy_scb_common.h **** /** Interrupt from RX interrupt sources */
 254:Generated_Source\PSoC6\pdl\drivers/peripheral/scb/cy_scb_common.h **** #define CY_SCB_RX_INTR     SCB_INTR_CAUSE_RX_Msk
 255:Generated_Source\PSoC6\pdl\drivers/peripheral/scb/cy_scb_common.h **** 
 256:Generated_Source\PSoC6\pdl\drivers/peripheral/scb/cy_scb_common.h **** /** Interrupt from I2C externally clocked interrupt sources */
 257:Generated_Source\PSoC6\pdl\drivers/peripheral/scb/cy_scb_common.h **** #define CY_SCB_I2C_INTR    SCB_INTR_CAUSE_I2C_EC_Msk
 258:Generated_Source\PSoC6\pdl\drivers/peripheral/scb/cy_scb_common.h **** 
 259:Generated_Source\PSoC6\pdl\drivers/peripheral/scb/cy_scb_common.h **** /** Interrupt from SPI externally clocked interrupt sources */
 260:Generated_Source\PSoC6\pdl\drivers/peripheral/scb/cy_scb_common.h **** #define CY_SCB_SPI_INTR    SCB_INTR_CAUSE_SPI_EC_Msk
 261:Generated_Source\PSoC6\pdl\drivers/peripheral/scb/cy_scb_common.h **** /** \} group_scb_common_macros_intr_cause */
 262:Generated_Source\PSoC6\pdl\drivers/peripheral/scb/cy_scb_common.h **** 
 263:Generated_Source\PSoC6\pdl\drivers/peripheral/scb/cy_scb_common.h **** /**
 264:Generated_Source\PSoC6\pdl\drivers/peripheral/scb/cy_scb_common.h **** * \defgroup group_scb_common_macros_tx_intr TX Interrupt Statuses
 265:Generated_Source\PSoC6\pdl\drivers/peripheral/scb/cy_scb_common.h **** * \{
 266:Generated_Source\PSoC6\pdl\drivers/peripheral/scb/cy_scb_common.h **** */
ARM GAS  C:\Users\salaz\AppData\Local\Temp\ccnyouLe.s 			page 26


 267:Generated_Source\PSoC6\pdl\drivers/peripheral/scb/cy_scb_common.h **** /**
 268:Generated_Source\PSoC6\pdl\drivers/peripheral/scb/cy_scb_common.h **** * The number of data elements in the TX FIFO is less than the value
 269:Generated_Source\PSoC6\pdl\drivers/peripheral/scb/cy_scb_common.h **** * of the TX FIFO level
 270:Generated_Source\PSoC6\pdl\drivers/peripheral/scb/cy_scb_common.h **** */
 271:Generated_Source\PSoC6\pdl\drivers/peripheral/scb/cy_scb_common.h **** #define CY_SCB_TX_INTR_LEVEL           SCB_INTR_TX_TRIGGER_Msk
 272:Generated_Source\PSoC6\pdl\drivers/peripheral/scb/cy_scb_common.h **** 
 273:Generated_Source\PSoC6\pdl\drivers/peripheral/scb/cy_scb_common.h **** /** The TX FIFO is not full */
 274:Generated_Source\PSoC6\pdl\drivers/peripheral/scb/cy_scb_common.h **** #define CY_SCB_TX_INTR_NOT_FULL        SCB_INTR_TX_NOT_FULL_Msk
 275:Generated_Source\PSoC6\pdl\drivers/peripheral/scb/cy_scb_common.h **** 
 276:Generated_Source\PSoC6\pdl\drivers/peripheral/scb/cy_scb_common.h **** /** The TX FIFO is empty */
 277:Generated_Source\PSoC6\pdl\drivers/peripheral/scb/cy_scb_common.h **** #define CY_SCB_TX_INTR_EMPTY           SCB_INTR_TX_EMPTY_Msk
 278:Generated_Source\PSoC6\pdl\drivers/peripheral/scb/cy_scb_common.h **** 
 279:Generated_Source\PSoC6\pdl\drivers/peripheral/scb/cy_scb_common.h **** /** An attempt to write to a full TX FIFO */
 280:Generated_Source\PSoC6\pdl\drivers/peripheral/scb/cy_scb_common.h **** #define CY_SCB_TX_INTR_OVERFLOW        SCB_INTR_TX_OVERFLOW_Msk
 281:Generated_Source\PSoC6\pdl\drivers/peripheral/scb/cy_scb_common.h **** 
 282:Generated_Source\PSoC6\pdl\drivers/peripheral/scb/cy_scb_common.h **** /** An attempt to read from an empty TX FIFO */
 283:Generated_Source\PSoC6\pdl\drivers/peripheral/scb/cy_scb_common.h **** #define CY_SCB_TX_INTR_UNDERFLOW       SCB_INTR_TX_UNDERFLOW_Msk
 284:Generated_Source\PSoC6\pdl\drivers/peripheral/scb/cy_scb_common.h **** 
 285:Generated_Source\PSoC6\pdl\drivers/peripheral/scb/cy_scb_common.h **** /** The UART transfer is complete: all data elements from the TX FIFO are sent
 286:Generated_Source\PSoC6\pdl\drivers/peripheral/scb/cy_scb_common.h **** */
 287:Generated_Source\PSoC6\pdl\drivers/peripheral/scb/cy_scb_common.h **** #define CY_SCB_TX_INTR_UART_DONE       SCB_INTR_TX_UART_DONE_Msk
 288:Generated_Source\PSoC6\pdl\drivers/peripheral/scb/cy_scb_common.h **** 
 289:Generated_Source\PSoC6\pdl\drivers/peripheral/scb/cy_scb_common.h **** /** SmartCard only: UART received a NACK */
 290:Generated_Source\PSoC6\pdl\drivers/peripheral/scb/cy_scb_common.h **** #define CY_SCB_TX_INTR_UART_NACK       SCB_INTR_TX_UART_NACK_Msk
 291:Generated_Source\PSoC6\pdl\drivers/peripheral/scb/cy_scb_common.h **** 
 292:Generated_Source\PSoC6\pdl\drivers/peripheral/scb/cy_scb_common.h **** /**
 293:Generated_Source\PSoC6\pdl\drivers/peripheral/scb/cy_scb_common.h **** * SmartCard only: the value on the TX line of the UART does not match the
 294:Generated_Source\PSoC6\pdl\drivers/peripheral/scb/cy_scb_common.h **** * value on the RX line
 295:Generated_Source\PSoC6\pdl\drivers/peripheral/scb/cy_scb_common.h **** */
 296:Generated_Source\PSoC6\pdl\drivers/peripheral/scb/cy_scb_common.h **** #define CY_SCB_TX_INTR_UART_ARB_LOST   SCB_INTR_TX_UART_ARB_LOST_Msk
 297:Generated_Source\PSoC6\pdl\drivers/peripheral/scb/cy_scb_common.h **** /** \} group_scb_common_macros_tx_intr */
 298:Generated_Source\PSoC6\pdl\drivers/peripheral/scb/cy_scb_common.h **** 
 299:Generated_Source\PSoC6\pdl\drivers/peripheral/scb/cy_scb_common.h **** /**
 300:Generated_Source\PSoC6\pdl\drivers/peripheral/scb/cy_scb_common.h **** * \defgroup group_scb_common_macros_rx_intr RX Interrupt Statuses
 301:Generated_Source\PSoC6\pdl\drivers/peripheral/scb/cy_scb_common.h **** * \{
 302:Generated_Source\PSoC6\pdl\drivers/peripheral/scb/cy_scb_common.h **** */
 303:Generated_Source\PSoC6\pdl\drivers/peripheral/scb/cy_scb_common.h **** /**
 304:Generated_Source\PSoC6\pdl\drivers/peripheral/scb/cy_scb_common.h **** * The number of data elements in the RX FIFO is greater than the value of the
 305:Generated_Source\PSoC6\pdl\drivers/peripheral/scb/cy_scb_common.h **** * RX FIFO level
 306:Generated_Source\PSoC6\pdl\drivers/peripheral/scb/cy_scb_common.h **** */
 307:Generated_Source\PSoC6\pdl\drivers/peripheral/scb/cy_scb_common.h **** #define CY_SCB_RX_INTR_LEVEL             SCB_INTR_RX_TRIGGER_Msk
 308:Generated_Source\PSoC6\pdl\drivers/peripheral/scb/cy_scb_common.h **** 
 309:Generated_Source\PSoC6\pdl\drivers/peripheral/scb/cy_scb_common.h **** /** The RX FIFO is not empty */
 310:Generated_Source\PSoC6\pdl\drivers/peripheral/scb/cy_scb_common.h **** #define CY_SCB_RX_INTR_NOT_EMPTY         SCB_INTR_RX_NOT_EMPTY_Msk
 311:Generated_Source\PSoC6\pdl\drivers/peripheral/scb/cy_scb_common.h **** 
 312:Generated_Source\PSoC6\pdl\drivers/peripheral/scb/cy_scb_common.h **** /** The RX FIFO is full */
 313:Generated_Source\PSoC6\pdl\drivers/peripheral/scb/cy_scb_common.h **** #define CY_SCB_RX_INTR_FULL              SCB_INTR_RX_FULL_Msk
 314:Generated_Source\PSoC6\pdl\drivers/peripheral/scb/cy_scb_common.h **** 
 315:Generated_Source\PSoC6\pdl\drivers/peripheral/scb/cy_scb_common.h **** /** An attempt to write to a full RX FIFO */
 316:Generated_Source\PSoC6\pdl\drivers/peripheral/scb/cy_scb_common.h **** #define CY_SCB_RX_INTR_OVERFLOW          SCB_INTR_RX_OVERFLOW_Msk
 317:Generated_Source\PSoC6\pdl\drivers/peripheral/scb/cy_scb_common.h **** 
 318:Generated_Source\PSoC6\pdl\drivers/peripheral/scb/cy_scb_common.h **** /** An attempt to read from an empty RX FIFO */
 319:Generated_Source\PSoC6\pdl\drivers/peripheral/scb/cy_scb_common.h **** #define CY_SCB_RX_INTR_UNDERFLOW         SCB_INTR_RX_UNDERFLOW_Msk
 320:Generated_Source\PSoC6\pdl\drivers/peripheral/scb/cy_scb_common.h **** 
 321:Generated_Source\PSoC6\pdl\drivers/peripheral/scb/cy_scb_common.h **** /** A UART framing error detected */
 322:Generated_Source\PSoC6\pdl\drivers/peripheral/scb/cy_scb_common.h **** #define CY_SCB_RX_INTR_UART_FRAME_ERROR  SCB_INTR_RX_FRAME_ERROR_Msk
 323:Generated_Source\PSoC6\pdl\drivers/peripheral/scb/cy_scb_common.h **** 
ARM GAS  C:\Users\salaz\AppData\Local\Temp\ccnyouLe.s 			page 27


 324:Generated_Source\PSoC6\pdl\drivers/peripheral/scb/cy_scb_common.h **** /** A UART parity error detected  */
 325:Generated_Source\PSoC6\pdl\drivers/peripheral/scb/cy_scb_common.h **** #define CY_SCB_RX_INTR_UART_PARITY_ERROR SCB_INTR_RX_PARITY_ERROR_Msk
 326:Generated_Source\PSoC6\pdl\drivers/peripheral/scb/cy_scb_common.h **** 
 327:Generated_Source\PSoC6\pdl\drivers/peripheral/scb/cy_scb_common.h **** /** A UART break detected */
 328:Generated_Source\PSoC6\pdl\drivers/peripheral/scb/cy_scb_common.h **** #define CY_SCB_RX_INTR_UART_BREAK_DETECT SCB_INTR_RX_BREAK_DETECT_Msk
 329:Generated_Source\PSoC6\pdl\drivers/peripheral/scb/cy_scb_common.h **** /** \} group_scb_common_macros_rx_intr */
 330:Generated_Source\PSoC6\pdl\drivers/peripheral/scb/cy_scb_common.h **** 
 331:Generated_Source\PSoC6\pdl\drivers/peripheral/scb/cy_scb_common.h **** /**
 332:Generated_Source\PSoC6\pdl\drivers/peripheral/scb/cy_scb_common.h **** * \defgroup group_scb_common_macros_slave_intr Slave Interrupt Statuses
 333:Generated_Source\PSoC6\pdl\drivers/peripheral/scb/cy_scb_common.h **** * \{
 334:Generated_Source\PSoC6\pdl\drivers/peripheral/scb/cy_scb_common.h **** */
 335:Generated_Source\PSoC6\pdl\drivers/peripheral/scb/cy_scb_common.h **** /**
 336:Generated_Source\PSoC6\pdl\drivers/peripheral/scb/cy_scb_common.h **** * I2C slave lost arbitration: the value driven on the SDA line is not the same
 337:Generated_Source\PSoC6\pdl\drivers/peripheral/scb/cy_scb_common.h **** * as the value observed on the SDA line
 338:Generated_Source\PSoC6\pdl\drivers/peripheral/scb/cy_scb_common.h **** */
 339:Generated_Source\PSoC6\pdl\drivers/peripheral/scb/cy_scb_common.h **** #define CY_SCB_SLAVE_INTR_I2C_ARB_LOST      SCB_INTR_S_I2C_ARB_LOST_Msk
 340:Generated_Source\PSoC6\pdl\drivers/peripheral/scb/cy_scb_common.h **** 
 341:Generated_Source\PSoC6\pdl\drivers/peripheral/scb/cy_scb_common.h **** /** The I2C slave received a NAK */
 342:Generated_Source\PSoC6\pdl\drivers/peripheral/scb/cy_scb_common.h **** #define CY_SCB_SLAVE_INTR_I2C_NACK          SCB_INTR_S_I2C_NACK_Msk
 343:Generated_Source\PSoC6\pdl\drivers/peripheral/scb/cy_scb_common.h **** 
 344:Generated_Source\PSoC6\pdl\drivers/peripheral/scb/cy_scb_common.h **** /** The I2C slave received  an ACK */
 345:Generated_Source\PSoC6\pdl\drivers/peripheral/scb/cy_scb_common.h **** #define CY_SCB_SLAVE_INTR_I2C_ACK           SCB_INTR_S_I2C_ACK_Msk
 346:Generated_Source\PSoC6\pdl\drivers/peripheral/scb/cy_scb_common.h **** 
 347:Generated_Source\PSoC6\pdl\drivers/peripheral/scb/cy_scb_common.h **** /**
 348:Generated_Source\PSoC6\pdl\drivers/peripheral/scb/cy_scb_common.h **** * A Stop or Repeated Start event for a write transfer intended for this slave
 349:Generated_Source\PSoC6\pdl\drivers/peripheral/scb/cy_scb_common.h **** * was detected.
 350:Generated_Source\PSoC6\pdl\drivers/peripheral/scb/cy_scb_common.h **** */
 351:Generated_Source\PSoC6\pdl\drivers/peripheral/scb/cy_scb_common.h **** #define CY_SCB_SLAVE_INTR_I2C_WRITE_STOP    SCB_INTR_S_I2C_WRITE_STOP_Msk
 352:Generated_Source\PSoC6\pdl\drivers/peripheral/scb/cy_scb_common.h **** 
 353:Generated_Source\PSoC6\pdl\drivers/peripheral/scb/cy_scb_common.h **** /** A Stop or Repeated Start event intended for this slave was detected */
 354:Generated_Source\PSoC6\pdl\drivers/peripheral/scb/cy_scb_common.h **** #define CY_SCB_SLAVE_INTR_I2C_STOP          SCB_INTR_S_I2C_STOP_Msk
 355:Generated_Source\PSoC6\pdl\drivers/peripheral/scb/cy_scb_common.h **** 
 356:Generated_Source\PSoC6\pdl\drivers/peripheral/scb/cy_scb_common.h **** /** The I2C slave received a Start condition */
 357:Generated_Source\PSoC6\pdl\drivers/peripheral/scb/cy_scb_common.h **** #define CY_SCB_SLAVE_INTR_I2C_START         SCB_INTR_S_I2C_START_Msk
 358:Generated_Source\PSoC6\pdl\drivers/peripheral/scb/cy_scb_common.h **** 
 359:Generated_Source\PSoC6\pdl\drivers/peripheral/scb/cy_scb_common.h **** /** The I2C slave received the matching address */
 360:Generated_Source\PSoC6\pdl\drivers/peripheral/scb/cy_scb_common.h **** #define CY_SCB_SLAVE_INTR_I2C_ADDR_MATCH    SCB_INTR_S_I2C_ADDR_MATCH_Msk
 361:Generated_Source\PSoC6\pdl\drivers/peripheral/scb/cy_scb_common.h **** 
 362:Generated_Source\PSoC6\pdl\drivers/peripheral/scb/cy_scb_common.h **** /** The I2C Slave received the general call address */
 363:Generated_Source\PSoC6\pdl\drivers/peripheral/scb/cy_scb_common.h **** #define CY_SCB_SLAVE_INTR_I2C_GENERAL_ADDR  SCB_INTR_S_I2C_GENERAL_Msk
 364:Generated_Source\PSoC6\pdl\drivers/peripheral/scb/cy_scb_common.h **** 
 365:Generated_Source\PSoC6\pdl\drivers/peripheral/scb/cy_scb_common.h **** /** The I2C slave bus error (detection of unexpected Start or Stop condition) */
 366:Generated_Source\PSoC6\pdl\drivers/peripheral/scb/cy_scb_common.h **** #define CY_SCB_SLAVE_INTR_I2C_BUS_ERROR     SCB_INTR_S_I2C_BUS_ERROR_Msk
 367:Generated_Source\PSoC6\pdl\drivers/peripheral/scb/cy_scb_common.h **** 
 368:Generated_Source\PSoC6\pdl\drivers/peripheral/scb/cy_scb_common.h **** /**
 369:Generated_Source\PSoC6\pdl\drivers/peripheral/scb/cy_scb_common.h **** * The SPI slave select line is deselected at an expected time during an
 370:Generated_Source\PSoC6\pdl\drivers/peripheral/scb/cy_scb_common.h **** * SPI transfer.
 371:Generated_Source\PSoC6\pdl\drivers/peripheral/scb/cy_scb_common.h **** */
 372:Generated_Source\PSoC6\pdl\drivers/peripheral/scb/cy_scb_common.h **** #define CY_SCB_SLAVE_INTR_SPI_BUS_ERROR     SCB_INTR_S_SPI_BUS_ERROR_Msk
 373:Generated_Source\PSoC6\pdl\drivers/peripheral/scb/cy_scb_common.h **** /** \} group_scb_common_macros_slave_intr */
 374:Generated_Source\PSoC6\pdl\drivers/peripheral/scb/cy_scb_common.h **** 
 375:Generated_Source\PSoC6\pdl\drivers/peripheral/scb/cy_scb_common.h **** /**
 376:Generated_Source\PSoC6\pdl\drivers/peripheral/scb/cy_scb_common.h **** * \defgroup group_scb_common_macros_master_intr Master Interrupt Statuses
 377:Generated_Source\PSoC6\pdl\drivers/peripheral/scb/cy_scb_common.h **** * \{
 378:Generated_Source\PSoC6\pdl\drivers/peripheral/scb/cy_scb_common.h **** */
 379:Generated_Source\PSoC6\pdl\drivers/peripheral/scb/cy_scb_common.h **** /** The I2C master lost arbitration */
 380:Generated_Source\PSoC6\pdl\drivers/peripheral/scb/cy_scb_common.h **** #define CY_SCB_MASTER_INTR_I2C_ARB_LOST    SCB_INTR_M_I2C_ARB_LOST_Msk
ARM GAS  C:\Users\salaz\AppData\Local\Temp\ccnyouLe.s 			page 28


 381:Generated_Source\PSoC6\pdl\drivers/peripheral/scb/cy_scb_common.h **** 
 382:Generated_Source\PSoC6\pdl\drivers/peripheral/scb/cy_scb_common.h **** /** The I2C master received a NACK */
 383:Generated_Source\PSoC6\pdl\drivers/peripheral/scb/cy_scb_common.h **** #define CY_SCB_MASTER_INTR_I2C_NACK        SCB_INTR_M_I2C_NACK_Msk
 384:Generated_Source\PSoC6\pdl\drivers/peripheral/scb/cy_scb_common.h **** 
 385:Generated_Source\PSoC6\pdl\drivers/peripheral/scb/cy_scb_common.h **** /** The I2C master received an ACK */
 386:Generated_Source\PSoC6\pdl\drivers/peripheral/scb/cy_scb_common.h **** #define CY_SCB_MASTER_INTR_I2C_ACK         SCB_INTR_M_I2C_ACK_Msk
 387:Generated_Source\PSoC6\pdl\drivers/peripheral/scb/cy_scb_common.h **** 
 388:Generated_Source\PSoC6\pdl\drivers/peripheral/scb/cy_scb_common.h **** /** The I2C master generated a Stop */
 389:Generated_Source\PSoC6\pdl\drivers/peripheral/scb/cy_scb_common.h **** #define CY_SCB_MASTER_INTR_I2C_STOP        SCB_INTR_M_I2C_STOP_Msk
 390:Generated_Source\PSoC6\pdl\drivers/peripheral/scb/cy_scb_common.h **** 
 391:Generated_Source\PSoC6\pdl\drivers/peripheral/scb/cy_scb_common.h **** /** The I2C master bus error (detection of unexpected START or STOP condition)
 392:Generated_Source\PSoC6\pdl\drivers/peripheral/scb/cy_scb_common.h **** */
 393:Generated_Source\PSoC6\pdl\drivers/peripheral/scb/cy_scb_common.h **** #define CY_SCB_MASTER_INTR_I2C_BUS_ERROR   SCB_INTR_M_I2C_BUS_ERROR_Msk
 394:Generated_Source\PSoC6\pdl\drivers/peripheral/scb/cy_scb_common.h **** 
 395:Generated_Source\PSoC6\pdl\drivers/peripheral/scb/cy_scb_common.h **** /**
 396:Generated_Source\PSoC6\pdl\drivers/peripheral/scb/cy_scb_common.h **** * The SPI master transfer is complete: all data elements transferred from the
 397:Generated_Source\PSoC6\pdl\drivers/peripheral/scb/cy_scb_common.h **** * TX FIFO and TX shift register.
 398:Generated_Source\PSoC6\pdl\drivers/peripheral/scb/cy_scb_common.h **** */
 399:Generated_Source\PSoC6\pdl\drivers/peripheral/scb/cy_scb_common.h **** #define CY_SCB_MASTER_INTR_SPI_DONE        SCB_INTR_M_SPI_DONE_Msk
 400:Generated_Source\PSoC6\pdl\drivers/peripheral/scb/cy_scb_common.h **** /** \} group_scb_common_macros_master_intr */
 401:Generated_Source\PSoC6\pdl\drivers/peripheral/scb/cy_scb_common.h **** 
 402:Generated_Source\PSoC6\pdl\drivers/peripheral/scb/cy_scb_common.h **** /**
 403:Generated_Source\PSoC6\pdl\drivers/peripheral/scb/cy_scb_common.h **** * \defgroup group_scb_common_macros_i2c_intr I2C Interrupt Statuses
 404:Generated_Source\PSoC6\pdl\drivers/peripheral/scb/cy_scb_common.h **** * \{
 405:Generated_Source\PSoC6\pdl\drivers/peripheral/scb/cy_scb_common.h **** */
 406:Generated_Source\PSoC6\pdl\drivers/peripheral/scb/cy_scb_common.h **** /**
 407:Generated_Source\PSoC6\pdl\drivers/peripheral/scb/cy_scb_common.h **** * Wake up request: the I2C slave received the matching address.
 408:Generated_Source\PSoC6\pdl\drivers/peripheral/scb/cy_scb_common.h **** * Note that this interrupt source triggers in active mode.
 409:Generated_Source\PSoC6\pdl\drivers/peripheral/scb/cy_scb_common.h **** */
 410:Generated_Source\PSoC6\pdl\drivers/peripheral/scb/cy_scb_common.h **** #define CY_SCB_I2C_INTR_WAKEUP     SCB_INTR_I2C_EC_WAKE_UP_Msk
 411:Generated_Source\PSoC6\pdl\drivers/peripheral/scb/cy_scb_common.h **** /** \} group_scb_common_macros_i2c_intr */
 412:Generated_Source\PSoC6\pdl\drivers/peripheral/scb/cy_scb_common.h **** 
 413:Generated_Source\PSoC6\pdl\drivers/peripheral/scb/cy_scb_common.h **** /**
 414:Generated_Source\PSoC6\pdl\drivers/peripheral/scb/cy_scb_common.h **** * \defgroup group_scb_common_macros_SpiIntrStatuses SPI Interrupt Statuses
 415:Generated_Source\PSoC6\pdl\drivers/peripheral/scb/cy_scb_common.h **** * \{
 416:Generated_Source\PSoC6\pdl\drivers/peripheral/scb/cy_scb_common.h **** */
 417:Generated_Source\PSoC6\pdl\drivers/peripheral/scb/cy_scb_common.h **** /**
 418:Generated_Source\PSoC6\pdl\drivers/peripheral/scb/cy_scb_common.h **** * Wake up request: the SPI slave detects an active edge of the slave select
 419:Generated_Source\PSoC6\pdl\drivers/peripheral/scb/cy_scb_common.h **** * signal. Note that this interrupt source triggers in active mode.
 420:Generated_Source\PSoC6\pdl\drivers/peripheral/scb/cy_scb_common.h **** */
 421:Generated_Source\PSoC6\pdl\drivers/peripheral/scb/cy_scb_common.h **** #define CY_SCB_SPI_INTR_WAKEUP     SCB_INTR_SPI_EC_WAKE_UP_Msk
 422:Generated_Source\PSoC6\pdl\drivers/peripheral/scb/cy_scb_common.h **** /** \} group_scb_common_macros_SpiIntrStatuses */
 423:Generated_Source\PSoC6\pdl\drivers/peripheral/scb/cy_scb_common.h **** 
 424:Generated_Source\PSoC6\pdl\drivers/peripheral/scb/cy_scb_common.h **** 
 425:Generated_Source\PSoC6\pdl\drivers/peripheral/scb/cy_scb_common.h **** /***************************************
 426:Generated_Source\PSoC6\pdl\drivers/peripheral/scb/cy_scb_common.h **** *         Internal Constants
 427:Generated_Source\PSoC6\pdl\drivers/peripheral/scb/cy_scb_common.h **** ***************************************/
 428:Generated_Source\PSoC6\pdl\drivers/peripheral/scb/cy_scb_common.h **** 
 429:Generated_Source\PSoC6\pdl\drivers/peripheral/scb/cy_scb_common.h **** /** \cond INTERNAL */
 430:Generated_Source\PSoC6\pdl\drivers/peripheral/scb/cy_scb_common.h **** 
 431:Generated_Source\PSoC6\pdl\drivers/peripheral/scb/cy_scb_common.h **** /* Default registers values */
 432:Generated_Source\PSoC6\pdl\drivers/peripheral/scb/cy_scb_common.h **** #define CY_SCB_CTRL_DEF_VAL         (_VAL2FLD(SCB_CTRL_OVS, 15UL) | \
 433:Generated_Source\PSoC6\pdl\drivers/peripheral/scb/cy_scb_common.h ****                                      _VAL2FLD(SCB_CTRL_MODE, 3UL))
 434:Generated_Source\PSoC6\pdl\drivers/peripheral/scb/cy_scb_common.h **** 
 435:Generated_Source\PSoC6\pdl\drivers/peripheral/scb/cy_scb_common.h **** #define CY_SCB_I2C_CTRL_DEF_VAL     (_VAL2FLD(SCB_I2C_CTRL_HIGH_PHASE_OVS, 8UL)        | \
 436:Generated_Source\PSoC6\pdl\drivers/peripheral/scb/cy_scb_common.h ****                                      _VAL2FLD(SCB_I2C_CTRL_HIGH_PHASE_OVS, 8UL)        | \
 437:Generated_Source\PSoC6\pdl\drivers/peripheral/scb/cy_scb_common.h ****                                      _VAL2FLD(SCB_I2C_CTRL_M_READY_DATA_ACK, 1UL)      | \
ARM GAS  C:\Users\salaz\AppData\Local\Temp\ccnyouLe.s 			page 29


 438:Generated_Source\PSoC6\pdl\drivers/peripheral/scb/cy_scb_common.h ****                                      _VAL2FLD(SCB_I2C_CTRL_M_NOT_READY_DATA_NACK, 1UL) | \
 439:Generated_Source\PSoC6\pdl\drivers/peripheral/scb/cy_scb_common.h ****                                      _VAL2FLD(SCB_I2C_CTRL_S_GENERAL_IGNORE, 1UL)      | \
 440:Generated_Source\PSoC6\pdl\drivers/peripheral/scb/cy_scb_common.h ****                                      _VAL2FLD(SCB_I2C_CTRL_S_READY_ADDR_ACK, 1UL)      | \
 441:Generated_Source\PSoC6\pdl\drivers/peripheral/scb/cy_scb_common.h ****                                      _VAL2FLD(SCB_I2C_CTRL_S_READY_DATA_ACK, 1UL)      | \
 442:Generated_Source\PSoC6\pdl\drivers/peripheral/scb/cy_scb_common.h ****                                      _VAL2FLD(SCB_I2C_CTRL_S_NOT_READY_ADDR_NACK, 1UL) | \
 443:Generated_Source\PSoC6\pdl\drivers/peripheral/scb/cy_scb_common.h ****                                      _VAL2FLD(SCB_I2C_CTRL_S_NOT_READY_DATA_NACK, 1UL))
 444:Generated_Source\PSoC6\pdl\drivers/peripheral/scb/cy_scb_common.h **** 
 445:Generated_Source\PSoC6\pdl\drivers/peripheral/scb/cy_scb_common.h **** #define CY_SCB_I2C_CFG_DEF_VAL      (_VAL2FLD(SCB_I2C_CFG_SDA_IN_FILT_TRIM, 3UL)   | \
 446:Generated_Source\PSoC6\pdl\drivers/peripheral/scb/cy_scb_common.h ****                                      _VAL2FLD(SCB_I2C_CFG_SDA_IN_FILT_SEL, 1UL)    | \
 447:Generated_Source\PSoC6\pdl\drivers/peripheral/scb/cy_scb_common.h ****                                      _VAL2FLD(SCB_I2C_CFG_SCL_IN_FILT_SEL, 1UL)    | \
 448:Generated_Source\PSoC6\pdl\drivers/peripheral/scb/cy_scb_common.h ****                                      _VAL2FLD(SCB_I2C_CFG_SDA_OUT_FILT0_TRIM, 2UL) | \
 449:Generated_Source\PSoC6\pdl\drivers/peripheral/scb/cy_scb_common.h ****                                      _VAL2FLD(SCB_I2C_CFG_SDA_OUT_FILT1_TRIM, 2UL) | \
 450:Generated_Source\PSoC6\pdl\drivers/peripheral/scb/cy_scb_common.h ****                                      _VAL2FLD(SCB_I2C_CFG_SDA_OUT_FILT2_TRIM, 2UL))
 451:Generated_Source\PSoC6\pdl\drivers/peripheral/scb/cy_scb_common.h **** 
 452:Generated_Source\PSoC6\pdl\drivers/peripheral/scb/cy_scb_common.h **** #define CY_SCB_SPI_CTRL_DEF_VAL     _VAL2FLD(SCB_SPI_CTRL_MODE, 3UL)
 453:Generated_Source\PSoC6\pdl\drivers/peripheral/scb/cy_scb_common.h **** #define CY_SCB_UART_CTRL_DEF_VAL    _VAL2FLD(SCB_UART_CTRL_MODE, 3UL)
 454:Generated_Source\PSoC6\pdl\drivers/peripheral/scb/cy_scb_common.h **** 
 455:Generated_Source\PSoC6\pdl\drivers/peripheral/scb/cy_scb_common.h **** #define CY_SCB_UART_RX_CTRL_DEF_VAL (_VAL2FLD(SCB_UART_RX_CTRL_STOP_BITS, 2UL) | \
 456:Generated_Source\PSoC6\pdl\drivers/peripheral/scb/cy_scb_common.h ****                                      _VAL2FLD(SCB_UART_RX_CTRL_BREAK_WIDTH, 10UL))
 457:Generated_Source\PSoC6\pdl\drivers/peripheral/scb/cy_scb_common.h **** 
 458:Generated_Source\PSoC6\pdl\drivers/peripheral/scb/cy_scb_common.h **** #define CY_SCB_UART_TX_CTRL_DEF_VAL _VAL2FLD(SCB_UART_TX_CTRL_STOP_BITS, 2UL)
 459:Generated_Source\PSoC6\pdl\drivers/peripheral/scb/cy_scb_common.h **** 
 460:Generated_Source\PSoC6\pdl\drivers/peripheral/scb/cy_scb_common.h **** #define CY_SCB_RX_CTRL_DEF_VAL      (_VAL2FLD(SCB_RX_CTRL_DATA_WIDTH, 7UL) | \
 461:Generated_Source\PSoC6\pdl\drivers/peripheral/scb/cy_scb_common.h ****                                      _VAL2FLD(SCB_RX_CTRL_MSB_FIRST,  1UL))
 462:Generated_Source\PSoC6\pdl\drivers/peripheral/scb/cy_scb_common.h **** 
 463:Generated_Source\PSoC6\pdl\drivers/peripheral/scb/cy_scb_common.h **** #define CY_SCB_TX_CTRL_DEF_VAL      (_VAL2FLD(SCB_TX_CTRL_DATA_WIDTH, 7UL) | \
 464:Generated_Source\PSoC6\pdl\drivers/peripheral/scb/cy_scb_common.h ****                                      _VAL2FLD(SCB_TX_CTRL_MSB_FIRST,  1UL))
 465:Generated_Source\PSoC6\pdl\drivers/peripheral/scb/cy_scb_common.h **** 
 466:Generated_Source\PSoC6\pdl\drivers/peripheral/scb/cy_scb_common.h **** /* SCB CTRL modes */
 467:Generated_Source\PSoC6\pdl\drivers/peripheral/scb/cy_scb_common.h **** #define CY_SCB_CTRL_MODE_I2C   (0UL)
 468:Generated_Source\PSoC6\pdl\drivers/peripheral/scb/cy_scb_common.h **** #define CY_SCB_CTRL_MODE_SPI   (1UL)
 469:Generated_Source\PSoC6\pdl\drivers/peripheral/scb/cy_scb_common.h **** #define CY_SCB_CTRL_MODE_UART  (2UL)
 470:Generated_Source\PSoC6\pdl\drivers/peripheral/scb/cy_scb_common.h **** 
 471:Generated_Source\PSoC6\pdl\drivers/peripheral/scb/cy_scb_common.h **** /* The position and mask to set the I2C mode */
 472:Generated_Source\PSoC6\pdl\drivers/peripheral/scb/cy_scb_common.h **** #define CY_SCB_I2C_CTRL_MODE_Pos    SCB_I2C_CTRL_SLAVE_MODE_Pos
 473:Generated_Source\PSoC6\pdl\drivers/peripheral/scb/cy_scb_common.h **** #define CY_SCB_I2C_CTRL_MODE_Msk    (SCB_I2C_CTRL_SLAVE_MODE_Msk | \
 474:Generated_Source\PSoC6\pdl\drivers/peripheral/scb/cy_scb_common.h ****                                      SCB_I2C_CTRL_MASTER_MODE_Msk)
 475:Generated_Source\PSoC6\pdl\drivers/peripheral/scb/cy_scb_common.h **** 
 476:Generated_Source\PSoC6\pdl\drivers/peripheral/scb/cy_scb_common.h **** /* Cypress ID #282226:
 477:Generated_Source\PSoC6\pdl\drivers/peripheral/scb/cy_scb_common.h **** * SCB_I2C_CFG_SDA_IN_FILT_TRIM[1]: SCB clock enable (1), clock disable (0).
 478:Generated_Source\PSoC6\pdl\drivers/peripheral/scb/cy_scb_common.h **** */
 479:Generated_Source\PSoC6\pdl\drivers/peripheral/scb/cy_scb_common.h **** #define CY_SCB_I2C_CFG_CLK_ENABLE_Msk  (_VAL2FLD(SCB_I2C_CFG_SDA_IN_FILT_TRIM, 2UL))
 480:Generated_Source\PSoC6\pdl\drivers/peripheral/scb/cy_scb_common.h **** 
 481:Generated_Source\PSoC6\pdl\drivers/peripheral/scb/cy_scb_common.h **** /* I2C has fixed data width */
 482:Generated_Source\PSoC6\pdl\drivers/peripheral/scb/cy_scb_common.h **** #define CY_SCB_I2C_DATA_WIDTH   (7UL)
 483:Generated_Source\PSoC6\pdl\drivers/peripheral/scb/cy_scb_common.h **** 
 484:Generated_Source\PSoC6\pdl\drivers/peripheral/scb/cy_scb_common.h **** /* RX and TX control register values */
 485:Generated_Source\PSoC6\pdl\drivers/peripheral/scb/cy_scb_common.h **** #define CY_SCB_I2C_RX_CTRL      (_VAL2FLD(SCB_RX_CTRL_DATA_WIDTH, CY_SCB_I2C_DATA_WIDTH) | \
 486:Generated_Source\PSoC6\pdl\drivers/peripheral/scb/cy_scb_common.h ****                                  SCB_RX_CTRL_MSB_FIRST_Msk)
 487:Generated_Source\PSoC6\pdl\drivers/peripheral/scb/cy_scb_common.h **** #define CY_SCB_I2C_TX_CTRL      (_VAL2FLD(SCB_TX_CTRL_DATA_WIDTH, CY_SCB_I2C_DATA_WIDTH) | \
 488:Generated_Source\PSoC6\pdl\drivers/peripheral/scb/cy_scb_common.h ****                                  SCB_TX_CTRL_MSB_FIRST_Msk | SCB_TX_CTRL_OPEN_DRAIN_Msk)
 489:Generated_Source\PSoC6\pdl\drivers/peripheral/scb/cy_scb_common.h **** 
 490:Generated_Source\PSoC6\pdl\drivers/peripheral/scb/cy_scb_common.h **** /* The position and mask to make an address byte */
 491:Generated_Source\PSoC6\pdl\drivers/peripheral/scb/cy_scb_common.h **** #define CY_SCB_I2C_ADDRESS_Pos  (1UL)
 492:Generated_Source\PSoC6\pdl\drivers/peripheral/scb/cy_scb_common.h **** #define CY_SCB_I2C_ADDRESS_Msk  (0xFEUL)
 493:Generated_Source\PSoC6\pdl\drivers/peripheral/scb/cy_scb_common.h **** 
 494:Generated_Source\PSoC6\pdl\drivers/peripheral/scb/cy_scb_common.h **** /* SPI slave select polarity */
ARM GAS  C:\Users\salaz\AppData\Local\Temp\ccnyouLe.s 			page 30


 495:Generated_Source\PSoC6\pdl\drivers/peripheral/scb/cy_scb_common.h **** #define CY_SCB_SPI_CTRL_SSEL_POLARITY_Pos   SCB_SPI_CTRL_SSEL_POLARITY0_Pos
 496:Generated_Source\PSoC6\pdl\drivers/peripheral/scb/cy_scb_common.h **** #define CY_SCB_SPI_CTRL_SSEL_POLARITY_Msk   (SCB_SPI_CTRL_SSEL_POLARITY0_Msk | \
 497:Generated_Source\PSoC6\pdl\drivers/peripheral/scb/cy_scb_common.h ****                                              SCB_SPI_CTRL_SSEL_POLARITY1_Msk | \
 498:Generated_Source\PSoC6\pdl\drivers/peripheral/scb/cy_scb_common.h ****                                              SCB_SPI_CTRL_SSEL_POLARITY2_Msk | \
 499:Generated_Source\PSoC6\pdl\drivers/peripheral/scb/cy_scb_common.h ****                                              SCB_SPI_CTRL_SSEL_POLARITY3_Msk)
 500:Generated_Source\PSoC6\pdl\drivers/peripheral/scb/cy_scb_common.h **** 
 501:Generated_Source\PSoC6\pdl\drivers/peripheral/scb/cy_scb_common.h **** /* SPI clock modes: CPHA and CPOL */
 502:Generated_Source\PSoC6\pdl\drivers/peripheral/scb/cy_scb_common.h **** #define CY_SCB_SPI_CTRL_CLK_MODE_Pos    SCB_SPI_CTRL_CPHA_Pos
 503:Generated_Source\PSoC6\pdl\drivers/peripheral/scb/cy_scb_common.h **** #define CY_SCB_SPI_CTRL_CLK_MODE_Msk    (SCB_SPI_CTRL_CPHA_Msk | SCB_SPI_CTRL_CPOL_Msk)
 504:Generated_Source\PSoC6\pdl\drivers/peripheral/scb/cy_scb_common.h **** 
 505:Generated_Source\PSoC6\pdl\drivers/peripheral/scb/cy_scb_common.h **** /* UART parity and parity enable combination */
 506:Generated_Source\PSoC6\pdl\drivers/peripheral/scb/cy_scb_common.h **** #define CY_SCB_UART_RX_CTRL_SET_PARITY_Msk      (SCB_UART_RX_CTRL_PARITY_ENABLED_Msk | \
 507:Generated_Source\PSoC6\pdl\drivers/peripheral/scb/cy_scb_common.h ****                                                  SCB_UART_RX_CTRL_PARITY_Msk)
 508:Generated_Source\PSoC6\pdl\drivers/peripheral/scb/cy_scb_common.h **** #define CY_SCB_UART_RX_CTRL_SET_PARITY_Pos      SCB_UART_RX_CTRL_PARITY_Pos
 509:Generated_Source\PSoC6\pdl\drivers/peripheral/scb/cy_scb_common.h **** 
 510:Generated_Source\PSoC6\pdl\drivers/peripheral/scb/cy_scb_common.h **** #define CY_SCB_UART_TX_CTRL_SET_PARITY_Msk      (SCB_UART_TX_CTRL_PARITY_ENABLED_Msk | \
 511:Generated_Source\PSoC6\pdl\drivers/peripheral/scb/cy_scb_common.h ****                                                  SCB_UART_TX_CTRL_PARITY_Msk)
 512:Generated_Source\PSoC6\pdl\drivers/peripheral/scb/cy_scb_common.h **** #define CY_SCB_UART_TX_CTRL_SET_PARITY_Pos      SCB_UART_TX_CTRL_PARITY_Pos
 513:Generated_Source\PSoC6\pdl\drivers/peripheral/scb/cy_scb_common.h **** 
 514:Generated_Source\PSoC6\pdl\drivers/peripheral/scb/cy_scb_common.h **** /* Max number of bits for byte mode */
 515:Generated_Source\PSoC6\pdl\drivers/peripheral/scb/cy_scb_common.h **** #define CY_SCB_BYTE_WIDTH   (8UL)
 516:Generated_Source\PSoC6\pdl\drivers/peripheral/scb/cy_scb_common.h **** 
 517:Generated_Source\PSoC6\pdl\drivers/peripheral/scb/cy_scb_common.h **** /* Single unit to wait */
 518:Generated_Source\PSoC6\pdl\drivers/peripheral/scb/cy_scb_common.h **** #define CY_SCB_WAIT_1_UNIT  (1U)
 519:Generated_Source\PSoC6\pdl\drivers/peripheral/scb/cy_scb_common.h **** 
 520:Generated_Source\PSoC6\pdl\drivers/peripheral/scb/cy_scb_common.h **** /* Clear interrupt sources */
 521:Generated_Source\PSoC6\pdl\drivers/peripheral/scb/cy_scb_common.h **** #define CY_SCB_CLEAR_ALL_INTR_SRC   (0UL)
 522:Generated_Source\PSoC6\pdl\drivers/peripheral/scb/cy_scb_common.h **** 
 523:Generated_Source\PSoC6\pdl\drivers/peripheral/scb/cy_scb_common.h **** /* Hardware FIFO size */
 524:Generated_Source\PSoC6\pdl\drivers/peripheral/scb/cy_scb_common.h **** #define CY_SCB_FIFO_SIZE(base)    (SCB_GET_EZ_DATA_NR(base) / 2UL)
 525:Generated_Source\PSoC6\pdl\drivers/peripheral/scb/cy_scb_common.h **** 
 526:Generated_Source\PSoC6\pdl\drivers/peripheral/scb/cy_scb_common.h **** /* Provides a list of allowed sources */
 527:Generated_Source\PSoC6\pdl\drivers/peripheral/scb/cy_scb_common.h **** #define CY_SCB_TX_INTR_MASK     (CY_SCB_TX_INTR_LEVEL     | CY_SCB_TX_INTR_NOT_FULL  | CY_SCB_TX_IN
 528:Generated_Source\PSoC6\pdl\drivers/peripheral/scb/cy_scb_common.h ****                                  CY_SCB_TX_INTR_OVERFLOW  | CY_SCB_TX_INTR_UNDERFLOW | CY_SCB_TX_IN
 529:Generated_Source\PSoC6\pdl\drivers/peripheral/scb/cy_scb_common.h ****                                  CY_SCB_TX_INTR_UART_NACK | CY_SCB_TX_INTR_UART_ARB_LOST)
 530:Generated_Source\PSoC6\pdl\drivers/peripheral/scb/cy_scb_common.h **** 
 531:Generated_Source\PSoC6\pdl\drivers/peripheral/scb/cy_scb_common.h **** #define CY_SCB_RX_INTR_MASK     (CY_SCB_RX_INTR_LEVEL             | CY_SCB_RX_INTR_NOT_EMPTY | CY_S
 532:Generated_Source\PSoC6\pdl\drivers/peripheral/scb/cy_scb_common.h ****                                  CY_SCB_RX_INTR_OVERFLOW          | CY_SCB_RX_INTR_UNDERFLOW       
 533:Generated_Source\PSoC6\pdl\drivers/peripheral/scb/cy_scb_common.h ****                                  CY_SCB_RX_INTR_UART_FRAME_ERROR  | CY_SCB_RX_INTR_UART_PARITY_ERRO
 534:Generated_Source\PSoC6\pdl\drivers/peripheral/scb/cy_scb_common.h ****                                  CY_SCB_RX_INTR_UART_BREAK_DETECT)
 535:Generated_Source\PSoC6\pdl\drivers/peripheral/scb/cy_scb_common.h **** 
 536:Generated_Source\PSoC6\pdl\drivers/peripheral/scb/cy_scb_common.h **** 
 537:Generated_Source\PSoC6\pdl\drivers/peripheral/scb/cy_scb_common.h **** #define CY_SCB_SLAVE_INTR_MASK  (CY_SCB_SLAVE_INTR_I2C_ARB_LOST   | CY_SCB_SLAVE_INTR_I2C_NACK | CY
 538:Generated_Source\PSoC6\pdl\drivers/peripheral/scb/cy_scb_common.h ****                                  CY_SCB_SLAVE_INTR_I2C_WRITE_STOP | CY_SCB_SLAVE_INTR_I2C_STOP | CY
 539:Generated_Source\PSoC6\pdl\drivers/peripheral/scb/cy_scb_common.h ****                                  CY_SCB_SLAVE_INTR_I2C_ADDR_MATCH | CY_SCB_SLAVE_INTR_I2C_GENERAL_A
 540:Generated_Source\PSoC6\pdl\drivers/peripheral/scb/cy_scb_common.h ****                                  CY_SCB_SLAVE_INTR_I2C_BUS_ERROR  | CY_SCB_SLAVE_INTR_SPI_BUS_ERROR
 541:Generated_Source\PSoC6\pdl\drivers/peripheral/scb/cy_scb_common.h **** 
 542:Generated_Source\PSoC6\pdl\drivers/peripheral/scb/cy_scb_common.h **** #define CY_SCB_MASTER_INTR_MASK (CY_SCB_MASTER_INTR_I2C_ARB_LOST  | CY_SCB_MASTER_INTR_I2C_NACK | \
 543:Generated_Source\PSoC6\pdl\drivers/peripheral/scb/cy_scb_common.h ****                                  CY_SCB_MASTER_INTR_I2C_ACK       | CY_SCB_MASTER_INTR_I2C_STOP | \
 544:Generated_Source\PSoC6\pdl\drivers/peripheral/scb/cy_scb_common.h ****                                  CY_SCB_MASTER_INTR_I2C_BUS_ERROR | CY_SCB_MASTER_INTR_SPI_DONE)
 545:Generated_Source\PSoC6\pdl\drivers/peripheral/scb/cy_scb_common.h **** 
 546:Generated_Source\PSoC6\pdl\drivers/peripheral/scb/cy_scb_common.h **** #define CY_SCB_I2C_INTR_MASK    CY_SCB_I2C_INTR_WAKEUP
 547:Generated_Source\PSoC6\pdl\drivers/peripheral/scb/cy_scb_common.h **** 
 548:Generated_Source\PSoC6\pdl\drivers/peripheral/scb/cy_scb_common.h **** #define CY_SCB_SPI_INTR_MASK    CY_SCB_SPI_INTR_WAKEUP
 549:Generated_Source\PSoC6\pdl\drivers/peripheral/scb/cy_scb_common.h **** 
 550:Generated_Source\PSoC6\pdl\drivers/peripheral/scb/cy_scb_common.h **** #define CY_SCB_IS_INTR_VALID(intr, mask)            ( 0UL == ((intr) & ((uint32_t) ~(mask))) )
 551:Generated_Source\PSoC6\pdl\drivers/peripheral/scb/cy_scb_common.h **** #define CY_SCB_IS_TRIGGER_LEVEL_VALID(base, level)  ((level) < Cy_SCB_GetFifoSize(base))
ARM GAS  C:\Users\salaz\AppData\Local\Temp\ccnyouLe.s 			page 31


 552:Generated_Source\PSoC6\pdl\drivers/peripheral/scb/cy_scb_common.h **** 
 553:Generated_Source\PSoC6\pdl\drivers/peripheral/scb/cy_scb_common.h **** #define CY_SCB_IS_I2C_ADDR_VALID(addr)              ( (0U == ((addr) & 0x80U)) )
 554:Generated_Source\PSoC6\pdl\drivers/peripheral/scb/cy_scb_common.h **** #define CY_SCB_IS_BUFFER_VALID(buffer, size)        ( (NULL != (buffer)) && ((size) > 0UL) )
 555:Generated_Source\PSoC6\pdl\drivers/peripheral/scb/cy_scb_common.h **** #define CY_SCB_IS_I2C_BUFFER_VALID(buffer, size)    ( (0UL == (size)) ? true : (NULL != (buffer)) )
 556:Generated_Source\PSoC6\pdl\drivers/peripheral/scb/cy_scb_common.h **** /** \endcond */
 557:Generated_Source\PSoC6\pdl\drivers/peripheral/scb/cy_scb_common.h **** 
 558:Generated_Source\PSoC6\pdl\drivers/peripheral/scb/cy_scb_common.h **** /** \} group_scb_common_macros */
 559:Generated_Source\PSoC6\pdl\drivers/peripheral/scb/cy_scb_common.h **** 
 560:Generated_Source\PSoC6\pdl\drivers/peripheral/scb/cy_scb_common.h **** 
 561:Generated_Source\PSoC6\pdl\drivers/peripheral/scb/cy_scb_common.h **** /***************************************
 562:Generated_Source\PSoC6\pdl\drivers/peripheral/scb/cy_scb_common.h **** * Inline Function Implementation
 563:Generated_Source\PSoC6\pdl\drivers/peripheral/scb/cy_scb_common.h **** ***************************************/
 564:Generated_Source\PSoC6\pdl\drivers/peripheral/scb/cy_scb_common.h **** 
 565:Generated_Source\PSoC6\pdl\drivers/peripheral/scb/cy_scb_common.h **** /**
 566:Generated_Source\PSoC6\pdl\drivers/peripheral/scb/cy_scb_common.h **** * \addtogroup group_scb_common_functions
 567:Generated_Source\PSoC6\pdl\drivers/peripheral/scb/cy_scb_common.h **** * \{
 568:Generated_Source\PSoC6\pdl\drivers/peripheral/scb/cy_scb_common.h **** */
 569:Generated_Source\PSoC6\pdl\drivers/peripheral/scb/cy_scb_common.h **** 
 570:Generated_Source\PSoC6\pdl\drivers/peripheral/scb/cy_scb_common.h **** /*******************************************************************************
 571:Generated_Source\PSoC6\pdl\drivers/peripheral/scb/cy_scb_common.h **** * Function Name: Cy_SCB_ReadRxFifo
 572:Generated_Source\PSoC6\pdl\drivers/peripheral/scb/cy_scb_common.h **** ****************************************************************************//**
 573:Generated_Source\PSoC6\pdl\drivers/peripheral/scb/cy_scb_common.h **** *
 574:Generated_Source\PSoC6\pdl\drivers/peripheral/scb/cy_scb_common.h **** * Reads a data element directly out of the RX FIFO.
 575:Generated_Source\PSoC6\pdl\drivers/peripheral/scb/cy_scb_common.h **** * This function does not check whether the RX FIFO has data before reading it.
 576:Generated_Source\PSoC6\pdl\drivers/peripheral/scb/cy_scb_common.h **** *
 577:Generated_Source\PSoC6\pdl\drivers/peripheral/scb/cy_scb_common.h **** * \param base
 578:Generated_Source\PSoC6\pdl\drivers/peripheral/scb/cy_scb_common.h **** * The pointer to the SCB instance.
 579:Generated_Source\PSoC6\pdl\drivers/peripheral/scb/cy_scb_common.h **** *
 580:Generated_Source\PSoC6\pdl\drivers/peripheral/scb/cy_scb_common.h **** * \return
 581:Generated_Source\PSoC6\pdl\drivers/peripheral/scb/cy_scb_common.h **** * Data from RX FIFO.
 582:Generated_Source\PSoC6\pdl\drivers/peripheral/scb/cy_scb_common.h **** *
 583:Generated_Source\PSoC6\pdl\drivers/peripheral/scb/cy_scb_common.h **** *******************************************************************************/
 584:Generated_Source\PSoC6\pdl\drivers/peripheral/scb/cy_scb_common.h **** __STATIC_INLINE uint32_t Cy_SCB_ReadRxFifo(CySCB_Type const *base)
 585:Generated_Source\PSoC6\pdl\drivers/peripheral/scb/cy_scb_common.h **** {
 586:Generated_Source\PSoC6\pdl\drivers/peripheral/scb/cy_scb_common.h ****     return (base->RX_FIFO_RD);
 587:Generated_Source\PSoC6\pdl\drivers/peripheral/scb/cy_scb_common.h **** }
 588:Generated_Source\PSoC6\pdl\drivers/peripheral/scb/cy_scb_common.h **** 
 589:Generated_Source\PSoC6\pdl\drivers/peripheral/scb/cy_scb_common.h **** /*******************************************************************************
 590:Generated_Source\PSoC6\pdl\drivers/peripheral/scb/cy_scb_common.h **** * Function Name: Cy_SCB_SetRxFifoLevel
 591:Generated_Source\PSoC6\pdl\drivers/peripheral/scb/cy_scb_common.h **** ****************************************************************************//**
 592:Generated_Source\PSoC6\pdl\drivers/peripheral/scb/cy_scb_common.h **** *
 593:Generated_Source\PSoC6\pdl\drivers/peripheral/scb/cy_scb_common.h **** * Sets the RX FIFO level. When there are more data elements in the RX FIFO than
 594:Generated_Source\PSoC6\pdl\drivers/peripheral/scb/cy_scb_common.h **** * this level, the RX FIFO level interrupt is triggered.
 595:Generated_Source\PSoC6\pdl\drivers/peripheral/scb/cy_scb_common.h **** *
 596:Generated_Source\PSoC6\pdl\drivers/peripheral/scb/cy_scb_common.h **** * \param base
 597:Generated_Source\PSoC6\pdl\drivers/peripheral/scb/cy_scb_common.h **** * The pointer to the SCB instance.
 598:Generated_Source\PSoC6\pdl\drivers/peripheral/scb/cy_scb_common.h **** *
 599:Generated_Source\PSoC6\pdl\drivers/peripheral/scb/cy_scb_common.h **** * \param level
 600:Generated_Source\PSoC6\pdl\drivers/peripheral/scb/cy_scb_common.h **** * When there are more data elements in the FIFO than this level, the RX level
 601:Generated_Source\PSoC6\pdl\drivers/peripheral/scb/cy_scb_common.h **** * interrupt is triggered.
 602:Generated_Source\PSoC6\pdl\drivers/peripheral/scb/cy_scb_common.h **** *
 603:Generated_Source\PSoC6\pdl\drivers/peripheral/scb/cy_scb_common.h **** *******************************************************************************/
 604:Generated_Source\PSoC6\pdl\drivers/peripheral/scb/cy_scb_common.h **** __STATIC_INLINE void Cy_SCB_SetRxFifoLevel(CySCB_Type *base, uint32_t level)
 605:Generated_Source\PSoC6\pdl\drivers/peripheral/scb/cy_scb_common.h **** {
 606:Generated_Source\PSoC6\pdl\drivers/peripheral/scb/cy_scb_common.h ****     CY_ASSERT_L2(CY_SCB_IS_TRIGGER_LEVEL_VALID(base, level));
 607:Generated_Source\PSoC6\pdl\drivers/peripheral/scb/cy_scb_common.h **** 
 608:Generated_Source\PSoC6\pdl\drivers/peripheral/scb/cy_scb_common.h ****     base->RX_FIFO_CTRL = _CLR_SET_FLD32U(base->RX_FIFO_CTRL, SCB_RX_FIFO_CTRL_TRIGGER_LEVEL, level)
ARM GAS  C:\Users\salaz\AppData\Local\Temp\ccnyouLe.s 			page 32


 609:Generated_Source\PSoC6\pdl\drivers/peripheral/scb/cy_scb_common.h **** }
 610:Generated_Source\PSoC6\pdl\drivers/peripheral/scb/cy_scb_common.h **** 
 611:Generated_Source\PSoC6\pdl\drivers/peripheral/scb/cy_scb_common.h **** 
 612:Generated_Source\PSoC6\pdl\drivers/peripheral/scb/cy_scb_common.h **** /*******************************************************************************
 613:Generated_Source\PSoC6\pdl\drivers/peripheral/scb/cy_scb_common.h **** * Function Name: Cy_SCB_GetNumInRxFifo
 614:Generated_Source\PSoC6\pdl\drivers/peripheral/scb/cy_scb_common.h **** ****************************************************************************//**
 615:Generated_Source\PSoC6\pdl\drivers/peripheral/scb/cy_scb_common.h **** *
 616:Generated_Source\PSoC6\pdl\drivers/peripheral/scb/cy_scb_common.h **** * Returns the number of data elements currently in the RX FIFO.
 617:Generated_Source\PSoC6\pdl\drivers/peripheral/scb/cy_scb_common.h **** *
 618:Generated_Source\PSoC6\pdl\drivers/peripheral/scb/cy_scb_common.h **** * \param base
 619:Generated_Source\PSoC6\pdl\drivers/peripheral/scb/cy_scb_common.h **** * The pointer to the SCB instance.
 620:Generated_Source\PSoC6\pdl\drivers/peripheral/scb/cy_scb_common.h **** *
 621:Generated_Source\PSoC6\pdl\drivers/peripheral/scb/cy_scb_common.h **** * \return
 622:Generated_Source\PSoC6\pdl\drivers/peripheral/scb/cy_scb_common.h **** * The number or data elements in RX FIFO.
 623:Generated_Source\PSoC6\pdl\drivers/peripheral/scb/cy_scb_common.h **** *
 624:Generated_Source\PSoC6\pdl\drivers/peripheral/scb/cy_scb_common.h **** *******************************************************************************/
 625:Generated_Source\PSoC6\pdl\drivers/peripheral/scb/cy_scb_common.h **** __STATIC_INLINE uint32_t Cy_SCB_GetNumInRxFifo(CySCB_Type const *base)
 626:Generated_Source\PSoC6\pdl\drivers/peripheral/scb/cy_scb_common.h **** {
 627:Generated_Source\PSoC6\pdl\drivers/peripheral/scb/cy_scb_common.h ****     return _FLD2VAL(SCB_RX_FIFO_STATUS_USED, base->RX_FIFO_STATUS);
 628:Generated_Source\PSoC6\pdl\drivers/peripheral/scb/cy_scb_common.h **** }
 629:Generated_Source\PSoC6\pdl\drivers/peripheral/scb/cy_scb_common.h **** 
 630:Generated_Source\PSoC6\pdl\drivers/peripheral/scb/cy_scb_common.h **** 
 631:Generated_Source\PSoC6\pdl\drivers/peripheral/scb/cy_scb_common.h **** /*******************************************************************************
 632:Generated_Source\PSoC6\pdl\drivers/peripheral/scb/cy_scb_common.h **** * Function Name: Cy_SCB_GetRxSrValid
 633:Generated_Source\PSoC6\pdl\drivers/peripheral/scb/cy_scb_common.h **** ****************************************************************************//**
 634:Generated_Source\PSoC6\pdl\drivers/peripheral/scb/cy_scb_common.h **** *
 635:Generated_Source\PSoC6\pdl\drivers/peripheral/scb/cy_scb_common.h **** * Returns the status of the RX FIFO Shift Register valid bit.
 636:Generated_Source\PSoC6\pdl\drivers/peripheral/scb/cy_scb_common.h **** *
 637:Generated_Source\PSoC6\pdl\drivers/peripheral/scb/cy_scb_common.h **** * \param base
 638:Generated_Source\PSoC6\pdl\drivers/peripheral/scb/cy_scb_common.h **** * The pointer to the SCB instance.
 639:Generated_Source\PSoC6\pdl\drivers/peripheral/scb/cy_scb_common.h **** *
 640:Generated_Source\PSoC6\pdl\drivers/peripheral/scb/cy_scb_common.h **** * \return
 641:Generated_Source\PSoC6\pdl\drivers/peripheral/scb/cy_scb_common.h **** * 1 - RX shift register valid; 0 - RX shift register not valid.
 642:Generated_Source\PSoC6\pdl\drivers/peripheral/scb/cy_scb_common.h **** *
 643:Generated_Source\PSoC6\pdl\drivers/peripheral/scb/cy_scb_common.h **** *******************************************************************************/
 644:Generated_Source\PSoC6\pdl\drivers/peripheral/scb/cy_scb_common.h **** __STATIC_INLINE uint32_t Cy_SCB_GetRxSrValid(CySCB_Type const *base)
 645:Generated_Source\PSoC6\pdl\drivers/peripheral/scb/cy_scb_common.h **** {
 646:Generated_Source\PSoC6\pdl\drivers/peripheral/scb/cy_scb_common.h ****     return _FLD2VAL(SCB_RX_FIFO_STATUS_SR_VALID, base->RX_FIFO_STATUS);
 647:Generated_Source\PSoC6\pdl\drivers/peripheral/scb/cy_scb_common.h **** }
 648:Generated_Source\PSoC6\pdl\drivers/peripheral/scb/cy_scb_common.h **** 
 649:Generated_Source\PSoC6\pdl\drivers/peripheral/scb/cy_scb_common.h **** 
 650:Generated_Source\PSoC6\pdl\drivers/peripheral/scb/cy_scb_common.h **** /*******************************************************************************
 651:Generated_Source\PSoC6\pdl\drivers/peripheral/scb/cy_scb_common.h **** * Function Name: Cy_SCB_ClearRxFifo
 652:Generated_Source\PSoC6\pdl\drivers/peripheral/scb/cy_scb_common.h **** ****************************************************************************//**
 653:Generated_Source\PSoC6\pdl\drivers/peripheral/scb/cy_scb_common.h **** *
 654:Generated_Source\PSoC6\pdl\drivers/peripheral/scb/cy_scb_common.h **** * Clears the RX FIFO and shifter.
 655:Generated_Source\PSoC6\pdl\drivers/peripheral/scb/cy_scb_common.h **** *
 656:Generated_Source\PSoC6\pdl\drivers/peripheral/scb/cy_scb_common.h **** * \param base
 657:Generated_Source\PSoC6\pdl\drivers/peripheral/scb/cy_scb_common.h **** * The pointer to the SCB instance.
 658:Generated_Source\PSoC6\pdl\drivers/peripheral/scb/cy_scb_common.h **** *
 659:Generated_Source\PSoC6\pdl\drivers/peripheral/scb/cy_scb_common.h **** * \note
 660:Generated_Source\PSoC6\pdl\drivers/peripheral/scb/cy_scb_common.h **** * If there is partial data in the shifter, it is cleared and lost.
 661:Generated_Source\PSoC6\pdl\drivers/peripheral/scb/cy_scb_common.h **** *
 662:Generated_Source\PSoC6\pdl\drivers/peripheral/scb/cy_scb_common.h **** *******************************************************************************/
 663:Generated_Source\PSoC6\pdl\drivers/peripheral/scb/cy_scb_common.h **** __STATIC_INLINE void Cy_SCB_ClearRxFifo(CySCB_Type* base)
 664:Generated_Source\PSoC6\pdl\drivers/peripheral/scb/cy_scb_common.h **** {
 665:Generated_Source\PSoC6\pdl\drivers/peripheral/scb/cy_scb_common.h ****     base->RX_FIFO_CTRL |= (uint32_t)  SCB_RX_FIFO_CTRL_CLEAR_Msk;
ARM GAS  C:\Users\salaz\AppData\Local\Temp\ccnyouLe.s 			page 33


 666:Generated_Source\PSoC6\pdl\drivers/peripheral/scb/cy_scb_common.h ****     base->RX_FIFO_CTRL &= (uint32_t) ~SCB_RX_FIFO_CTRL_CLEAR_Msk;
 667:Generated_Source\PSoC6\pdl\drivers/peripheral/scb/cy_scb_common.h **** 
 668:Generated_Source\PSoC6\pdl\drivers/peripheral/scb/cy_scb_common.h ****     (void) base->RX_FIFO_CTRL;
 669:Generated_Source\PSoC6\pdl\drivers/peripheral/scb/cy_scb_common.h **** }
 670:Generated_Source\PSoC6\pdl\drivers/peripheral/scb/cy_scb_common.h **** 
 671:Generated_Source\PSoC6\pdl\drivers/peripheral/scb/cy_scb_common.h **** 
 672:Generated_Source\PSoC6\pdl\drivers/peripheral/scb/cy_scb_common.h **** /*******************************************************************************
 673:Generated_Source\PSoC6\pdl\drivers/peripheral/scb/cy_scb_common.h **** * Function Name: Cy_SCB_WriteTxFifo
 674:Generated_Source\PSoC6\pdl\drivers/peripheral/scb/cy_scb_common.h **** ****************************************************************************//**
 675:Generated_Source\PSoC6\pdl\drivers/peripheral/scb/cy_scb_common.h **** *
 676:Generated_Source\PSoC6\pdl\drivers/peripheral/scb/cy_scb_common.h **** * Writes data directly into the TX FIFO.
 677:Generated_Source\PSoC6\pdl\drivers/peripheral/scb/cy_scb_common.h **** * This function does not check whether the TX FIFO is not full before writing
 678:Generated_Source\PSoC6\pdl\drivers/peripheral/scb/cy_scb_common.h **** * into it.
 679:Generated_Source\PSoC6\pdl\drivers/peripheral/scb/cy_scb_common.h **** *
 680:Generated_Source\PSoC6\pdl\drivers/peripheral/scb/cy_scb_common.h **** * \param base
 681:Generated_Source\PSoC6\pdl\drivers/peripheral/scb/cy_scb_common.h **** * The pointer to the SCB instance.
 682:Generated_Source\PSoC6\pdl\drivers/peripheral/scb/cy_scb_common.h **** *
 683:Generated_Source\PSoC6\pdl\drivers/peripheral/scb/cy_scb_common.h **** * \param data
 684:Generated_Source\PSoC6\pdl\drivers/peripheral/scb/cy_scb_common.h **** * Data to write to the TX FIFO.
 685:Generated_Source\PSoC6\pdl\drivers/peripheral/scb/cy_scb_common.h **** *
 686:Generated_Source\PSoC6\pdl\drivers/peripheral/scb/cy_scb_common.h **** *******************************************************************************/
 687:Generated_Source\PSoC6\pdl\drivers/peripheral/scb/cy_scb_common.h **** __STATIC_INLINE void Cy_SCB_WriteTxFifo(CySCB_Type* base, uint32_t data)
 688:Generated_Source\PSoC6\pdl\drivers/peripheral/scb/cy_scb_common.h **** {
 689:Generated_Source\PSoC6\pdl\drivers/peripheral/scb/cy_scb_common.h ****     base->TX_FIFO_WR = data;
 690:Generated_Source\PSoC6\pdl\drivers/peripheral/scb/cy_scb_common.h **** }
 691:Generated_Source\PSoC6\pdl\drivers/peripheral/scb/cy_scb_common.h **** 
 692:Generated_Source\PSoC6\pdl\drivers/peripheral/scb/cy_scb_common.h **** 
 693:Generated_Source\PSoC6\pdl\drivers/peripheral/scb/cy_scb_common.h **** /*******************************************************************************
 694:Generated_Source\PSoC6\pdl\drivers/peripheral/scb/cy_scb_common.h **** * Function Name: Cy_SCB_SetTxFifoLevel
 695:Generated_Source\PSoC6\pdl\drivers/peripheral/scb/cy_scb_common.h **** ****************************************************************************//**
 696:Generated_Source\PSoC6\pdl\drivers/peripheral/scb/cy_scb_common.h **** *
 697:Generated_Source\PSoC6\pdl\drivers/peripheral/scb/cy_scb_common.h **** * Sets the TX FIFO level. When there are fewer data elements in the TX FIFO than
 698:Generated_Source\PSoC6\pdl\drivers/peripheral/scb/cy_scb_common.h **** * this level, the TX FIFO level interrupt is triggered.
 699:Generated_Source\PSoC6\pdl\drivers/peripheral/scb/cy_scb_common.h **** *
 700:Generated_Source\PSoC6\pdl\drivers/peripheral/scb/cy_scb_common.h **** * \param base
 701:Generated_Source\PSoC6\pdl\drivers/peripheral/scb/cy_scb_common.h **** * The pointer to the SCB instance.
 702:Generated_Source\PSoC6\pdl\drivers/peripheral/scb/cy_scb_common.h **** *
 703:Generated_Source\PSoC6\pdl\drivers/peripheral/scb/cy_scb_common.h **** * \param level
 704:Generated_Source\PSoC6\pdl\drivers/peripheral/scb/cy_scb_common.h **** * When there are fewer data elements in the FIFO than this level, the TX level
 705:Generated_Source\PSoC6\pdl\drivers/peripheral/scb/cy_scb_common.h **** * interrupt is triggered.
 706:Generated_Source\PSoC6\pdl\drivers/peripheral/scb/cy_scb_common.h **** *
 707:Generated_Source\PSoC6\pdl\drivers/peripheral/scb/cy_scb_common.h **** *******************************************************************************/
 708:Generated_Source\PSoC6\pdl\drivers/peripheral/scb/cy_scb_common.h **** __STATIC_INLINE void Cy_SCB_SetTxFifoLevel(CySCB_Type *base, uint32_t level)
 709:Generated_Source\PSoC6\pdl\drivers/peripheral/scb/cy_scb_common.h **** {
 710:Generated_Source\PSoC6\pdl\drivers/peripheral/scb/cy_scb_common.h ****     CY_ASSERT_L2(CY_SCB_IS_TRIGGER_LEVEL_VALID(base, level));
 711:Generated_Source\PSoC6\pdl\drivers/peripheral/scb/cy_scb_common.h **** 
 712:Generated_Source\PSoC6\pdl\drivers/peripheral/scb/cy_scb_common.h ****     base->TX_FIFO_CTRL = _CLR_SET_FLD32U(base->TX_FIFO_CTRL, SCB_TX_FIFO_CTRL_TRIGGER_LEVEL, level)
 713:Generated_Source\PSoC6\pdl\drivers/peripheral/scb/cy_scb_common.h **** }
 714:Generated_Source\PSoC6\pdl\drivers/peripheral/scb/cy_scb_common.h **** 
 715:Generated_Source\PSoC6\pdl\drivers/peripheral/scb/cy_scb_common.h **** 
 716:Generated_Source\PSoC6\pdl\drivers/peripheral/scb/cy_scb_common.h **** /*******************************************************************************
 717:Generated_Source\PSoC6\pdl\drivers/peripheral/scb/cy_scb_common.h **** * Function Name: Cy_SCB_GetNumInTxFifo
 718:Generated_Source\PSoC6\pdl\drivers/peripheral/scb/cy_scb_common.h **** ****************************************************************************//**
 719:Generated_Source\PSoC6\pdl\drivers/peripheral/scb/cy_scb_common.h **** *
 720:Generated_Source\PSoC6\pdl\drivers/peripheral/scb/cy_scb_common.h **** * Returns the number of data elements currently in the TX FIFO.
 721:Generated_Source\PSoC6\pdl\drivers/peripheral/scb/cy_scb_common.h **** *
 722:Generated_Source\PSoC6\pdl\drivers/peripheral/scb/cy_scb_common.h **** * \param base
ARM GAS  C:\Users\salaz\AppData\Local\Temp\ccnyouLe.s 			page 34


 723:Generated_Source\PSoC6\pdl\drivers/peripheral/scb/cy_scb_common.h **** * The pointer to the SCB instance.
 724:Generated_Source\PSoC6\pdl\drivers/peripheral/scb/cy_scb_common.h **** *
 725:Generated_Source\PSoC6\pdl\drivers/peripheral/scb/cy_scb_common.h **** * \return
 726:Generated_Source\PSoC6\pdl\drivers/peripheral/scb/cy_scb_common.h **** * The number or data elements in the TX FIFO.
 727:Generated_Source\PSoC6\pdl\drivers/peripheral/scb/cy_scb_common.h **** *
 728:Generated_Source\PSoC6\pdl\drivers/peripheral/scb/cy_scb_common.h **** *******************************************************************************/
 729:Generated_Source\PSoC6\pdl\drivers/peripheral/scb/cy_scb_common.h **** __STATIC_INLINE uint32_t Cy_SCB_GetNumInTxFifo(CySCB_Type const *base)
 730:Generated_Source\PSoC6\pdl\drivers/peripheral/scb/cy_scb_common.h **** {
 731:Generated_Source\PSoC6\pdl\drivers/peripheral/scb/cy_scb_common.h ****     return _FLD2VAL(SCB_TX_FIFO_STATUS_USED, base->TX_FIFO_STATUS);
 344              		.loc 3 731 0 discriminator 1
 345 01a8 6F48     		ldr	r0, .L32+88
 346 01aa 8221     		movs	r1, #130
 347 01ac 8900     		lsls	r1, r1, #2
 348 01ae 4358     		ldr	r3, [r0, r1]
 349 01b0 DB05     		lsls	r3, r3, #23
 350 01b2 DA0D     		lsrs	r2, r3, #23
 351              	.LVL30:
 352              	.LBE33:
 353              	.LBE32:
 354              	.LBB34:
 355              	.LBB35:
 732:Generated_Source\PSoC6\pdl\drivers/peripheral/scb/cy_scb_common.h **** }
 733:Generated_Source\PSoC6\pdl\drivers/peripheral/scb/cy_scb_common.h **** 
 734:Generated_Source\PSoC6\pdl\drivers/peripheral/scb/cy_scb_common.h **** 
 735:Generated_Source\PSoC6\pdl\drivers/peripheral/scb/cy_scb_common.h **** /*******************************************************************************
 736:Generated_Source\PSoC6\pdl\drivers/peripheral/scb/cy_scb_common.h **** * Function Name: Cy_SCB_GetTxSrValid
 737:Generated_Source\PSoC6\pdl\drivers/peripheral/scb/cy_scb_common.h **** ****************************************************************************//**
 738:Generated_Source\PSoC6\pdl\drivers/peripheral/scb/cy_scb_common.h **** *
 739:Generated_Source\PSoC6\pdl\drivers/peripheral/scb/cy_scb_common.h **** * Returns the status of the TX FIFO Shift Register valid bit.
 740:Generated_Source\PSoC6\pdl\drivers/peripheral/scb/cy_scb_common.h **** *
 741:Generated_Source\PSoC6\pdl\drivers/peripheral/scb/cy_scb_common.h **** * \param base
 742:Generated_Source\PSoC6\pdl\drivers/peripheral/scb/cy_scb_common.h **** * The pointer to the SCB instance.
 743:Generated_Source\PSoC6\pdl\drivers/peripheral/scb/cy_scb_common.h **** *
 744:Generated_Source\PSoC6\pdl\drivers/peripheral/scb/cy_scb_common.h **** * \return
 745:Generated_Source\PSoC6\pdl\drivers/peripheral/scb/cy_scb_common.h **** * 1 - TX shift register valid; 0 - TX shift register not valid.
 746:Generated_Source\PSoC6\pdl\drivers/peripheral/scb/cy_scb_common.h **** *
 747:Generated_Source\PSoC6\pdl\drivers/peripheral/scb/cy_scb_common.h **** *******************************************************************************/
 748:Generated_Source\PSoC6\pdl\drivers/peripheral/scb/cy_scb_common.h **** __STATIC_INLINE uint32_t Cy_SCB_GetTxSrValid(CySCB_Type const *base)
 749:Generated_Source\PSoC6\pdl\drivers/peripheral/scb/cy_scb_common.h **** {
 750:Generated_Source\PSoC6\pdl\drivers/peripheral/scb/cy_scb_common.h ****     return _FLD2VAL(SCB_TX_FIFO_STATUS_SR_VALID, base->TX_FIFO_STATUS);
 356              		.loc 3 750 0 discriminator 1
 357 01b4 4358     		ldr	r3, [r0, r1]
 358 01b6 DB0B     		lsrs	r3, r3, #15
 359 01b8 0121     		movs	r1, #1
 360 01ba 0B40     		ands	r3, r1
 361              	.LVL31:
 362              	.LBE35:
 363              	.LBE34:
  70:Transmission.c ****             DEBUG_WAIT_UART_TX_COMPLETE();
 364              		.loc 1 70 0 discriminator 1
 365 01bc 9B18     		adds	r3, r3, r2
 366 01be 002B     		cmp	r3, #0
 367 01c0 F2D1     		bne	.L18
 368 01c2 89E0     		b	.L4
 369              	.LVL32:
 370              	.L12:
  71:Transmission.c **** 			break;
ARM GAS  C:\Users\salaz\AppData\Local\Temp\ccnyouLe.s 			page 35


  72:Transmission.c ****         }
  73:Transmission.c ****         case CY_BLE_EVT_GATT_CONNECT_IND:
  74:Transmission.c ****         {
  75:Transmission.c ****             is_advertising = false;
 371              		.loc 1 75 0
 372 01c4 524B     		ldr	r3, .L32
 373 01c6 0022     		movs	r2, #0
 374 01c8 1A70     		strb	r2, [r3]
  76:Transmission.c ****             is_connected = true;
 375              		.loc 1 76 0
 376 01ca 0132     		adds	r2, r2, #1
 377 01cc 5A70     		strb	r2, [r3, #1]
  77:Transmission.c ****             break;
 378              		.loc 1 77 0
 379 01ce 83E0     		b	.L4
 380              	.L11:
  78:Transmission.c ****         }
  79:Transmission.c ****         case CY_BLE_EVT_GAP_DEVICE_DISCONNECTED:
  80:Transmission.c ****         {
  81:Transmission.c ****             is_connected = false;
 381              		.loc 1 81 0
 382 01d0 0022     		movs	r2, #0
 383 01d2 4F4B     		ldr	r3, .L32
 384 01d4 5A70     		strb	r2, [r3, #1]
  82:Transmission.c **** 			break;
 385              		.loc 1 82 0
 386 01d6 7FE0     		b	.L4
 387              	.L14:
 388              	.LVL33:
 389              	.LBB36:
  83:Transmission.c ****         }
  84:Transmission.c ****         // Event occurs every bluetooth connection attempt by remote device
  85:Transmission.c ****         case CY_BLE_EVT_GAP_ENHANCE_CONN_COMPLETE:
  86:Transmission.c ****         {
  87:Transmission.c ****             bool deviceStored = false;
  88:Transmission.c **** 
  89:Transmission.c ****             // See if remote device's information is already bonded (stored into flash)
  90:Transmission.c ****             cy_en_ble_api_result_t apiResult = Cy_BLE_GAP_GetBondList(&bondedDeviceList);
 390              		.loc 1 90 0
 391 01d8 6448     		ldr	r0, .L32+92
 392              	.LVL34:
 393 01da FFF7FEFF 		bl	Cy_BLE_GAP_GetBondList
 394              	.LVL35:
  91:Transmission.c ****             if(apiResult == CY_BLE_SUCCESS)
 395              		.loc 1 91 0
 396 01de 0028     		cmp	r0, #0
 397 01e0 16D1     		bne	.L29
 398              	.LBB37:
  92:Transmission.c ****             {
  93:Transmission.c ****                 uint8 deviceCount = bondedDeviceList.noOfDevices;
 399              		.loc 1 93 0
 400 01e2 624B     		ldr	r3, .L32+92
 401 01e4 1E79     		ldrb	r6, [r3, #4]
 402              	.LVL36:
  94:Transmission.c ****                 if(deviceCount > 0)
 403              		.loc 1 94 0
 404 01e6 002E     		cmp	r6, #0
ARM GAS  C:\Users\salaz\AppData\Local\Temp\ccnyouLe.s 			page 36


 405 01e8 0DD1     		bne	.L30
 406              	.LBE37:
  87:Transmission.c **** 
 407              		.loc 1 87 0
 408 01ea 0023     		movs	r3, #0
 409 01ec 13E0     		b	.L19
 410              	.LVL37:
 411              	.L21:
 412              	.LBB42:
 413              	.LBB38:
  95:Transmission.c ****                 {
  96:Transmission.c ****                     for(uint8 i=0; i<deviceCount; i++)
  97:Transmission.c ****                     {
  98:Transmission.c ****                         if(cy_ble_connHandle[0].bdHandle == bondedDeviceList.bdHandleAddrList[i].bd
 414              		.loc 1 98 0
 415 01ee 604A     		ldr	r2, .L32+96
 416 01f0 1178     		ldrb	r1, [r2]
 417 01f2 5E4A     		ldr	r2, .L32+92
 418 01f4 1068     		ldr	r0, [r2]
 419 01f6 DA00     		lsls	r2, r3, #3
 420 01f8 8218     		adds	r2, r0, r2
 421 01fa D279     		ldrb	r2, [r2, #7]
 422 01fc 9142     		cmp	r1, r2
 423 01fe 09D0     		beq	.L31
  96:Transmission.c ****                     {
 424              		.loc 1 96 0 discriminator 2
 425 0200 0133     		adds	r3, r3, #1
 426              	.LVL38:
 427 0202 DBB2     		uxtb	r3, r3
 428              	.LVL39:
 429 0204 00E0     		b	.L20
 430              	.LVL40:
 431              	.L30:
 432              	.LBE38:
 433 0206 0023     		movs	r3, #0
 434              	.LVL41:
 435              	.L20:
 436              	.LBB39:
  96:Transmission.c ****                     {
 437              		.loc 1 96 0 is_stmt 0 discriminator 1
 438 0208 B342     		cmp	r3, r6
 439 020a F0D3     		bcc	.L21
 440              	.LBE39:
 441              	.LBE42:
  87:Transmission.c **** 
 442              		.loc 1 87 0 is_stmt 1
 443 020c 0023     		movs	r3, #0
 444              	.LVL42:
 445              	.LBB43:
 446              	.LBB40:
 447 020e 02E0     		b	.L19
 448              	.LVL43:
 449              	.L29:
 450              	.LBE40:
 451              	.LBE43:
 452 0210 0023     		movs	r3, #0
 453 0212 00E0     		b	.L19
ARM GAS  C:\Users\salaz\AppData\Local\Temp\ccnyouLe.s 			page 37


 454              	.LVL44:
 455              	.L31:
 456              	.LBB44:
 457              	.LBB41:
  99:Transmission.c ****                         {
 100:Transmission.c ****                             deviceStored = true;
 458              		.loc 1 100 0
 459 0214 0123     		movs	r3, #1
 460              	.LVL45:
 461              	.L19:
 462              	.LBE41:
 463              	.LBE44:
 101:Transmission.c ****                             break;
 102:Transmission.c ****                         }
 103:Transmission.c ****                     }
 104:Transmission.c ****                 }
 105:Transmission.c ****             }
 106:Transmission.c ****             
 107:Transmission.c ****             // Initiate bonding/pairing process if remote device's information isn't already bonded
 108:Transmission.c ****             if(!deviceStored)
 464              		.loc 1 108 0
 465 0216 002B     		cmp	r3, #0
 466 0218 5ED1     		bne	.L4
 109:Transmission.c ****             {
 110:Transmission.c ****                 if((cy_ble_configPtr->authInfo[CY_BLE_SECURITY_CONFIGURATION_0_INDEX].security & CY
 467              		.loc 1 110 0
 468 021a 564B     		ldr	r3, .L32+100
 469              	.LVL46:
 470 021c 1B68     		ldr	r3, [r3]
 471 021e 5A6A     		ldr	r2, [r3, #36]
 472 0220 1178     		ldrb	r1, [r2]
 473 0222 0907     		lsls	r1, r1, #28
 474 0224 58D0     		beq	.L4
 475              	.LBB45:
 111:Transmission.c ****                 {
 112:Transmission.c ****                     cy_ble_configPtr->authInfo[CY_BLE_SECURITY_CONFIGURATION_0_INDEX].bdHandle = cy
 476              		.loc 1 112 0
 477 0226 5249     		ldr	r1, .L32+96
 478 0228 0978     		ldrb	r1, [r1]
 479 022a 5171     		strb	r1, [r2, #5]
 113:Transmission.c ****                     cy_en_ble_api_result_t apiResult = Cy_BLE_GAP_AuthReq(&cy_ble_configPtr->authIn
 480              		.loc 1 113 0
 481 022c 586A     		ldr	r0, [r3, #36]
 482 022e FFF7FEFF 		bl	Cy_BLE_GAP_AuthReq
 483              	.LVL47:
 484 0232 51E0     		b	.L4
 485              	.LVL48:
 486              	.L16:
 487              	.LBE45:
 488              	.LBE36:
 489              	.LBB46:
 114:Transmission.c ****                 }
 115:Transmission.c ****             }
 116:Transmission.c ****             break;
 117:Transmission.c ****         }
 118:Transmission.c ****         // Event occurs when remote device sends inbound data
 119:Transmission.c ****         case CY_BLE_EVT_GATTS_WRITE_REQ:
ARM GAS  C:\Users\salaz\AppData\Local\Temp\ccnyouLe.s 			page 38


 120:Transmission.c ****         {
 121:Transmission.c ****             cy_stc_ble_gatts_write_cmd_req_param_t *wrReqParam = (cy_stc_ble_gatts_write_cmd_req_pa
 122:Transmission.c ****                         
 123:Transmission.c ****             // Check which characteristic was updated by remote device
 124:Transmission.c ****             if(wrReqParam->handleValPair.attrHandle == CY_BLE_DEVICE_INTERFACE_INBOUND_CHAR_HANDLE)
 490              		.loc 1 124 0
 491 0234 0B89     		ldrh	r3, [r1, #8]
 492 0236 122B     		cmp	r3, #18
 493 0238 23D1     		bne	.L22
 494              	.LBB47:
 125:Transmission.c ****             {
 495              		.loc 1 125 0
 496 023a 6B46     		mov	r3, sp
 497 023c 7B60     		str	r3, [r7, #4]
 126:Transmission.c ****                 // Buffer received data
 127:Transmission.c ****                 uint32 len = wrReqParam->handleValPair.value.len;
 498              		.loc 1 127 0
 499 023e 8888     		ldrh	r0, [r1, #4]
 500              	.LVL49:
 128:Transmission.c ****                 uint8 msg[len];
 501              		.loc 1 128 0
 502 0240 C31D     		adds	r3, r0, #7
 503 0242 DB08     		lsrs	r3, r3, #3
 504 0244 DB00     		lsls	r3, r3, #3
 505 0246 6A46     		mov	r2, sp
 506 0248 D31A     		subs	r3, r2, r3
 507 024a 9D46     		mov	sp, r3
 508 024c 6E46     		mov	r6, sp
 509              	.LVL50:
 510              	.LBB48:
 129:Transmission.c ****                 for(uint32 i=0; i<len; i++)
 511              		.loc 1 129 0
 512 024e 0023     		movs	r3, #0
 513              	.LVL51:
 514 0250 03E0     		b	.L23
 515              	.LVL52:
 516              	.L24:
 130:Transmission.c ****                 {
 131:Transmission.c ****                     msg[i] = wrReqParam->handleValPair.value.val[CY_BLE_DEVICE_INTERFACE_INBOUND_CH
 517              		.loc 1 131 0 discriminator 3
 518 0252 0A68     		ldr	r2, [r1]
 519 0254 D25C     		ldrb	r2, [r2, r3]
 520 0256 F254     		strb	r2, [r6, r3]
 129:Transmission.c ****                 for(uint32 i=0; i<len; i++)
 521              		.loc 1 129 0 discriminator 3
 522 0258 0133     		adds	r3, r3, #1
 523              	.LVL53:
 524              	.L23:
 129:Transmission.c ****                 for(uint32 i=0; i<len; i++)
 525              		.loc 1 129 0 is_stmt 0 discriminator 1
 526 025a 8342     		cmp	r3, r0
 527 025c F9D3     		bcc	.L24
 528              	.LBE48:
 132:Transmission.c ****                 }
 133:Transmission.c ****                 RxBuffer_MemoryToBuffer(len,msg);
 529              		.loc 1 133 0 is_stmt 1
 530 025e 3100     		movs	r1, r6
ARM GAS  C:\Users\salaz\AppData\Local\Temp\ccnyouLe.s 			page 39


 531              	.LVL54:
 532 0260 FFF7FEFF 		bl	RxBuffer_MemoryToBuffer
 533              	.LVL55:
 134:Transmission.c ****                 
 135:Transmission.c ****                 // Handle received data
 136:Transmission.c ****                 NVIC_SetPendingIRQ(AppControl_IRQ_cfg.intrSrc);
 534              		.loc 1 136 0
 535 0264 444B     		ldr	r3, .L32+104
 536 0266 0022     		movs	r2, #0
 537 0268 9A5E     		ldrsh	r2, [r3, r2]
 538              	.LVL56:
 539              	.LBB49:
 540              	.LBB50:
 541              		.file 4 "Generated_Source\\PSoC6\\pdl\\cmsis/include/core_cm0plus.h"
   1:Generated_Source\PSoC6\pdl\cmsis/include/core_cm0plus.h **** /**************************************************************************//**
   2:Generated_Source\PSoC6\pdl\cmsis/include/core_cm0plus.h ****  * @file     core_cm0plus.h
   3:Generated_Source\PSoC6\pdl\cmsis/include/core_cm0plus.h ****  * @brief    CMSIS Cortex-M0+ Core Peripheral Access Layer Header File
   4:Generated_Source\PSoC6\pdl\cmsis/include/core_cm0plus.h ****  * @version  V5.0.1
   5:Generated_Source\PSoC6\pdl\cmsis/include/core_cm0plus.h ****  * @date     25. November 2016
   6:Generated_Source\PSoC6\pdl\cmsis/include/core_cm0plus.h ****  ******************************************************************************/
   7:Generated_Source\PSoC6\pdl\cmsis/include/core_cm0plus.h **** /*
   8:Generated_Source\PSoC6\pdl\cmsis/include/core_cm0plus.h ****  * Copyright (c) 2009-2016 ARM Limited. All rights reserved.
   9:Generated_Source\PSoC6\pdl\cmsis/include/core_cm0plus.h ****  *
  10:Generated_Source\PSoC6\pdl\cmsis/include/core_cm0plus.h ****  * SPDX-License-Identifier: Apache-2.0
  11:Generated_Source\PSoC6\pdl\cmsis/include/core_cm0plus.h ****  *
  12:Generated_Source\PSoC6\pdl\cmsis/include/core_cm0plus.h ****  * Licensed under the Apache License, Version 2.0 (the License); you may
  13:Generated_Source\PSoC6\pdl\cmsis/include/core_cm0plus.h ****  * not use this file except in compliance with the License.
  14:Generated_Source\PSoC6\pdl\cmsis/include/core_cm0plus.h ****  * You may obtain a copy of the License at
  15:Generated_Source\PSoC6\pdl\cmsis/include/core_cm0plus.h ****  *
  16:Generated_Source\PSoC6\pdl\cmsis/include/core_cm0plus.h ****  * www.apache.org/licenses/LICENSE-2.0
  17:Generated_Source\PSoC6\pdl\cmsis/include/core_cm0plus.h ****  *
  18:Generated_Source\PSoC6\pdl\cmsis/include/core_cm0plus.h ****  * Unless required by applicable law or agreed to in writing, software
  19:Generated_Source\PSoC6\pdl\cmsis/include/core_cm0plus.h ****  * distributed under the License is distributed on an AS IS BASIS, WITHOUT
  20:Generated_Source\PSoC6\pdl\cmsis/include/core_cm0plus.h ****  * WARRANTIES OR CONDITIONS OF ANY KIND, either express or implied.
  21:Generated_Source\PSoC6\pdl\cmsis/include/core_cm0plus.h ****  * See the License for the specific language governing permissions and
  22:Generated_Source\PSoC6\pdl\cmsis/include/core_cm0plus.h ****  * limitations under the License.
  23:Generated_Source\PSoC6\pdl\cmsis/include/core_cm0plus.h ****  */
  24:Generated_Source\PSoC6\pdl\cmsis/include/core_cm0plus.h **** 
  25:Generated_Source\PSoC6\pdl\cmsis/include/core_cm0plus.h **** #if   defined ( __ICCARM__ )
  26:Generated_Source\PSoC6\pdl\cmsis/include/core_cm0plus.h ****  #pragma system_include         /* treat file as system include file for MISRA check */
  27:Generated_Source\PSoC6\pdl\cmsis/include/core_cm0plus.h **** #elif defined (__ARMCC_VERSION) && (__ARMCC_VERSION >= 6010050)
  28:Generated_Source\PSoC6\pdl\cmsis/include/core_cm0plus.h ****   #pragma clang system_header   /* treat file as system include file */
  29:Generated_Source\PSoC6\pdl\cmsis/include/core_cm0plus.h **** #endif
  30:Generated_Source\PSoC6\pdl\cmsis/include/core_cm0plus.h **** 
  31:Generated_Source\PSoC6\pdl\cmsis/include/core_cm0plus.h **** #ifndef __CORE_CM0PLUS_H_GENERIC
  32:Generated_Source\PSoC6\pdl\cmsis/include/core_cm0plus.h **** #define __CORE_CM0PLUS_H_GENERIC
  33:Generated_Source\PSoC6\pdl\cmsis/include/core_cm0plus.h **** 
  34:Generated_Source\PSoC6\pdl\cmsis/include/core_cm0plus.h **** #include <stdint.h>
  35:Generated_Source\PSoC6\pdl\cmsis/include/core_cm0plus.h **** 
  36:Generated_Source\PSoC6\pdl\cmsis/include/core_cm0plus.h **** #ifdef __cplusplus
  37:Generated_Source\PSoC6\pdl\cmsis/include/core_cm0plus.h ****  extern "C" {
  38:Generated_Source\PSoC6\pdl\cmsis/include/core_cm0plus.h **** #endif
  39:Generated_Source\PSoC6\pdl\cmsis/include/core_cm0plus.h **** 
  40:Generated_Source\PSoC6\pdl\cmsis/include/core_cm0plus.h **** /**
  41:Generated_Source\PSoC6\pdl\cmsis/include/core_cm0plus.h ****   \page CMSIS_MISRA_Exceptions  MISRA-C:2004 Compliance Exceptions
  42:Generated_Source\PSoC6\pdl\cmsis/include/core_cm0plus.h ****   CMSIS violates the following MISRA-C:2004 rules:
  43:Generated_Source\PSoC6\pdl\cmsis/include/core_cm0plus.h **** 
ARM GAS  C:\Users\salaz\AppData\Local\Temp\ccnyouLe.s 			page 40


  44:Generated_Source\PSoC6\pdl\cmsis/include/core_cm0plus.h ****    \li Required Rule 8.5, object/function definition in header file.<br>
  45:Generated_Source\PSoC6\pdl\cmsis/include/core_cm0plus.h ****      Function definitions in header files are used to allow 'inlining'.
  46:Generated_Source\PSoC6\pdl\cmsis/include/core_cm0plus.h **** 
  47:Generated_Source\PSoC6\pdl\cmsis/include/core_cm0plus.h ****    \li Required Rule 18.4, declaration of union type or object of union type: '{...}'.<br>
  48:Generated_Source\PSoC6\pdl\cmsis/include/core_cm0plus.h ****      Unions are used for effective representation of core registers.
  49:Generated_Source\PSoC6\pdl\cmsis/include/core_cm0plus.h **** 
  50:Generated_Source\PSoC6\pdl\cmsis/include/core_cm0plus.h ****    \li Advisory Rule 19.7, Function-like macro defined.<br>
  51:Generated_Source\PSoC6\pdl\cmsis/include/core_cm0plus.h ****      Function-like macros are used to allow more efficient code.
  52:Generated_Source\PSoC6\pdl\cmsis/include/core_cm0plus.h ****  */
  53:Generated_Source\PSoC6\pdl\cmsis/include/core_cm0plus.h **** 
  54:Generated_Source\PSoC6\pdl\cmsis/include/core_cm0plus.h **** 
  55:Generated_Source\PSoC6\pdl\cmsis/include/core_cm0plus.h **** /*******************************************************************************
  56:Generated_Source\PSoC6\pdl\cmsis/include/core_cm0plus.h ****  *                 CMSIS definitions
  57:Generated_Source\PSoC6\pdl\cmsis/include/core_cm0plus.h ****  ******************************************************************************/
  58:Generated_Source\PSoC6\pdl\cmsis/include/core_cm0plus.h **** /**
  59:Generated_Source\PSoC6\pdl\cmsis/include/core_cm0plus.h ****   \ingroup Cortex-M0+
  60:Generated_Source\PSoC6\pdl\cmsis/include/core_cm0plus.h ****   @{
  61:Generated_Source\PSoC6\pdl\cmsis/include/core_cm0plus.h ****  */
  62:Generated_Source\PSoC6\pdl\cmsis/include/core_cm0plus.h **** 
  63:Generated_Source\PSoC6\pdl\cmsis/include/core_cm0plus.h **** /*  CMSIS CM0+ definitions */
  64:Generated_Source\PSoC6\pdl\cmsis/include/core_cm0plus.h **** #define __CM0PLUS_CMSIS_VERSION_MAIN ( 5U)                                      /*!< [31:16] CMSIS 
  65:Generated_Source\PSoC6\pdl\cmsis/include/core_cm0plus.h **** #define __CM0PLUS_CMSIS_VERSION_SUB  ( 0U)                                      /*!< [15:0]  CMSIS 
  66:Generated_Source\PSoC6\pdl\cmsis/include/core_cm0plus.h **** #define __CM0PLUS_CMSIS_VERSION      ((__CM0PLUS_CMSIS_VERSION_MAIN << 16U) | \
  67:Generated_Source\PSoC6\pdl\cmsis/include/core_cm0plus.h ****                                        __CM0PLUS_CMSIS_VERSION_SUB           )  /*!< CMSIS HAL vers
  68:Generated_Source\PSoC6\pdl\cmsis/include/core_cm0plus.h **** 
  69:Generated_Source\PSoC6\pdl\cmsis/include/core_cm0plus.h **** #define __CORTEX_M                   (0U)                                       /*!< Cortex-M Core 
  70:Generated_Source\PSoC6\pdl\cmsis/include/core_cm0plus.h **** 
  71:Generated_Source\PSoC6\pdl\cmsis/include/core_cm0plus.h **** /** __FPU_USED indicates whether an FPU is used or not.
  72:Generated_Source\PSoC6\pdl\cmsis/include/core_cm0plus.h ****     This core does not support an FPU at all
  73:Generated_Source\PSoC6\pdl\cmsis/include/core_cm0plus.h **** */
  74:Generated_Source\PSoC6\pdl\cmsis/include/core_cm0plus.h **** #define __FPU_USED       0U
  75:Generated_Source\PSoC6\pdl\cmsis/include/core_cm0plus.h **** 
  76:Generated_Source\PSoC6\pdl\cmsis/include/core_cm0plus.h **** #if defined ( __CC_ARM )
  77:Generated_Source\PSoC6\pdl\cmsis/include/core_cm0plus.h ****   #if defined __TARGET_FPU_VFP
  78:Generated_Source\PSoC6\pdl\cmsis/include/core_cm0plus.h ****     #error "Compiler generates FPU instructions for a device without an FPU (check __FPU_PRESENT)"
  79:Generated_Source\PSoC6\pdl\cmsis/include/core_cm0plus.h ****   #endif
  80:Generated_Source\PSoC6\pdl\cmsis/include/core_cm0plus.h **** 
  81:Generated_Source\PSoC6\pdl\cmsis/include/core_cm0plus.h **** #elif defined (__ARMCC_VERSION) && (__ARMCC_VERSION >= 6010050)
  82:Generated_Source\PSoC6\pdl\cmsis/include/core_cm0plus.h ****   #if defined __ARM_PCS_VFP
  83:Generated_Source\PSoC6\pdl\cmsis/include/core_cm0plus.h ****     #error "Compiler generates FPU instructions for a device without an FPU (check __FPU_PRESENT)"
  84:Generated_Source\PSoC6\pdl\cmsis/include/core_cm0plus.h ****   #endif
  85:Generated_Source\PSoC6\pdl\cmsis/include/core_cm0plus.h **** 
  86:Generated_Source\PSoC6\pdl\cmsis/include/core_cm0plus.h **** #elif defined ( __GNUC__ )
  87:Generated_Source\PSoC6\pdl\cmsis/include/core_cm0plus.h ****   #if defined (__VFP_FP__) && !defined(__SOFTFP__)
  88:Generated_Source\PSoC6\pdl\cmsis/include/core_cm0plus.h ****     #error "Compiler generates FPU instructions for a device without an FPU (check __FPU_PRESENT)"
  89:Generated_Source\PSoC6\pdl\cmsis/include/core_cm0plus.h ****   #endif
  90:Generated_Source\PSoC6\pdl\cmsis/include/core_cm0plus.h **** 
  91:Generated_Source\PSoC6\pdl\cmsis/include/core_cm0plus.h **** #elif defined ( __ICCARM__ )
  92:Generated_Source\PSoC6\pdl\cmsis/include/core_cm0plus.h ****   #if defined __ARMVFP__
  93:Generated_Source\PSoC6\pdl\cmsis/include/core_cm0plus.h ****     #error "Compiler generates FPU instructions for a device without an FPU (check __FPU_PRESENT)"
  94:Generated_Source\PSoC6\pdl\cmsis/include/core_cm0plus.h ****   #endif
  95:Generated_Source\PSoC6\pdl\cmsis/include/core_cm0plus.h **** 
  96:Generated_Source\PSoC6\pdl\cmsis/include/core_cm0plus.h **** #elif defined ( __TI_ARM__ )
  97:Generated_Source\PSoC6\pdl\cmsis/include/core_cm0plus.h ****   #if defined __TI_VFP_SUPPORT__
  98:Generated_Source\PSoC6\pdl\cmsis/include/core_cm0plus.h ****     #error "Compiler generates FPU instructions for a device without an FPU (check __FPU_PRESENT)"
  99:Generated_Source\PSoC6\pdl\cmsis/include/core_cm0plus.h ****   #endif
 100:Generated_Source\PSoC6\pdl\cmsis/include/core_cm0plus.h **** 
ARM GAS  C:\Users\salaz\AppData\Local\Temp\ccnyouLe.s 			page 41


 101:Generated_Source\PSoC6\pdl\cmsis/include/core_cm0plus.h **** #elif defined ( __TASKING__ )
 102:Generated_Source\PSoC6\pdl\cmsis/include/core_cm0plus.h ****   #if defined __FPU_VFP__
 103:Generated_Source\PSoC6\pdl\cmsis/include/core_cm0plus.h ****     #error "Compiler generates FPU instructions for a device without an FPU (check __FPU_PRESENT)"
 104:Generated_Source\PSoC6\pdl\cmsis/include/core_cm0plus.h ****   #endif
 105:Generated_Source\PSoC6\pdl\cmsis/include/core_cm0plus.h **** 
 106:Generated_Source\PSoC6\pdl\cmsis/include/core_cm0plus.h **** #elif defined ( __CSMC__ )
 107:Generated_Source\PSoC6\pdl\cmsis/include/core_cm0plus.h ****   #if ( __CSMC__ & 0x400U)
 108:Generated_Source\PSoC6\pdl\cmsis/include/core_cm0plus.h ****     #error "Compiler generates FPU instructions for a device without an FPU (check __FPU_PRESENT)"
 109:Generated_Source\PSoC6\pdl\cmsis/include/core_cm0plus.h ****   #endif
 110:Generated_Source\PSoC6\pdl\cmsis/include/core_cm0plus.h **** 
 111:Generated_Source\PSoC6\pdl\cmsis/include/core_cm0plus.h **** #endif
 112:Generated_Source\PSoC6\pdl\cmsis/include/core_cm0plus.h **** 
 113:Generated_Source\PSoC6\pdl\cmsis/include/core_cm0plus.h **** #include "cmsis_compiler.h"               /* CMSIS compiler specific defines */
 114:Generated_Source\PSoC6\pdl\cmsis/include/core_cm0plus.h **** 
 115:Generated_Source\PSoC6\pdl\cmsis/include/core_cm0plus.h **** 
 116:Generated_Source\PSoC6\pdl\cmsis/include/core_cm0plus.h **** #ifdef __cplusplus
 117:Generated_Source\PSoC6\pdl\cmsis/include/core_cm0plus.h **** }
 118:Generated_Source\PSoC6\pdl\cmsis/include/core_cm0plus.h **** #endif
 119:Generated_Source\PSoC6\pdl\cmsis/include/core_cm0plus.h **** 
 120:Generated_Source\PSoC6\pdl\cmsis/include/core_cm0plus.h **** #endif /* __CORE_CM0PLUS_H_GENERIC */
 121:Generated_Source\PSoC6\pdl\cmsis/include/core_cm0plus.h **** 
 122:Generated_Source\PSoC6\pdl\cmsis/include/core_cm0plus.h **** #ifndef __CMSIS_GENERIC
 123:Generated_Source\PSoC6\pdl\cmsis/include/core_cm0plus.h **** 
 124:Generated_Source\PSoC6\pdl\cmsis/include/core_cm0plus.h **** #ifndef __CORE_CM0PLUS_H_DEPENDANT
 125:Generated_Source\PSoC6\pdl\cmsis/include/core_cm0plus.h **** #define __CORE_CM0PLUS_H_DEPENDANT
 126:Generated_Source\PSoC6\pdl\cmsis/include/core_cm0plus.h **** 
 127:Generated_Source\PSoC6\pdl\cmsis/include/core_cm0plus.h **** #ifdef __cplusplus
 128:Generated_Source\PSoC6\pdl\cmsis/include/core_cm0plus.h ****  extern "C" {
 129:Generated_Source\PSoC6\pdl\cmsis/include/core_cm0plus.h **** #endif
 130:Generated_Source\PSoC6\pdl\cmsis/include/core_cm0plus.h **** 
 131:Generated_Source\PSoC6\pdl\cmsis/include/core_cm0plus.h **** /* check device defines and use defaults */
 132:Generated_Source\PSoC6\pdl\cmsis/include/core_cm0plus.h **** #if defined __CHECK_DEVICE_DEFINES
 133:Generated_Source\PSoC6\pdl\cmsis/include/core_cm0plus.h ****   #ifndef __CM0PLUS_REV
 134:Generated_Source\PSoC6\pdl\cmsis/include/core_cm0plus.h ****     #define __CM0PLUS_REV             0x0000U
 135:Generated_Source\PSoC6\pdl\cmsis/include/core_cm0plus.h ****     #warning "__CM0PLUS_REV not defined in device header file; using default!"
 136:Generated_Source\PSoC6\pdl\cmsis/include/core_cm0plus.h ****   #endif
 137:Generated_Source\PSoC6\pdl\cmsis/include/core_cm0plus.h **** 
 138:Generated_Source\PSoC6\pdl\cmsis/include/core_cm0plus.h ****   #ifndef __MPU_PRESENT
 139:Generated_Source\PSoC6\pdl\cmsis/include/core_cm0plus.h ****     #define __MPU_PRESENT             0U
 140:Generated_Source\PSoC6\pdl\cmsis/include/core_cm0plus.h ****     #warning "__MPU_PRESENT not defined in device header file; using default!"
 141:Generated_Source\PSoC6\pdl\cmsis/include/core_cm0plus.h ****   #endif
 142:Generated_Source\PSoC6\pdl\cmsis/include/core_cm0plus.h **** 
 143:Generated_Source\PSoC6\pdl\cmsis/include/core_cm0plus.h ****   #ifndef __VTOR_PRESENT
 144:Generated_Source\PSoC6\pdl\cmsis/include/core_cm0plus.h ****     #define __VTOR_PRESENT            0U
 145:Generated_Source\PSoC6\pdl\cmsis/include/core_cm0plus.h ****     #warning "__VTOR_PRESENT not defined in device header file; using default!"
 146:Generated_Source\PSoC6\pdl\cmsis/include/core_cm0plus.h ****   #endif
 147:Generated_Source\PSoC6\pdl\cmsis/include/core_cm0plus.h **** 
 148:Generated_Source\PSoC6\pdl\cmsis/include/core_cm0plus.h ****   #ifndef __NVIC_PRIO_BITS
 149:Generated_Source\PSoC6\pdl\cmsis/include/core_cm0plus.h ****     #define __NVIC_PRIO_BITS          2U
 150:Generated_Source\PSoC6\pdl\cmsis/include/core_cm0plus.h ****     #warning "__NVIC_PRIO_BITS not defined in device header file; using default!"
 151:Generated_Source\PSoC6\pdl\cmsis/include/core_cm0plus.h ****   #endif
 152:Generated_Source\PSoC6\pdl\cmsis/include/core_cm0plus.h **** 
 153:Generated_Source\PSoC6\pdl\cmsis/include/core_cm0plus.h ****   #ifndef __Vendor_SysTickConfig
 154:Generated_Source\PSoC6\pdl\cmsis/include/core_cm0plus.h ****     #define __Vendor_SysTickConfig    0U
 155:Generated_Source\PSoC6\pdl\cmsis/include/core_cm0plus.h ****     #warning "__Vendor_SysTickConfig not defined in device header file; using default!"
 156:Generated_Source\PSoC6\pdl\cmsis/include/core_cm0plus.h ****   #endif
 157:Generated_Source\PSoC6\pdl\cmsis/include/core_cm0plus.h **** #endif
ARM GAS  C:\Users\salaz\AppData\Local\Temp\ccnyouLe.s 			page 42


 158:Generated_Source\PSoC6\pdl\cmsis/include/core_cm0plus.h **** 
 159:Generated_Source\PSoC6\pdl\cmsis/include/core_cm0plus.h **** /* IO definitions (access restrictions to peripheral registers) */
 160:Generated_Source\PSoC6\pdl\cmsis/include/core_cm0plus.h **** /**
 161:Generated_Source\PSoC6\pdl\cmsis/include/core_cm0plus.h ****     \defgroup CMSIS_glob_defs CMSIS Global Defines
 162:Generated_Source\PSoC6\pdl\cmsis/include/core_cm0plus.h **** 
 163:Generated_Source\PSoC6\pdl\cmsis/include/core_cm0plus.h ****     <strong>IO Type Qualifiers</strong> are used
 164:Generated_Source\PSoC6\pdl\cmsis/include/core_cm0plus.h ****     \li to specify the access to peripheral variables.
 165:Generated_Source\PSoC6\pdl\cmsis/include/core_cm0plus.h ****     \li for automatic generation of peripheral register debug information.
 166:Generated_Source\PSoC6\pdl\cmsis/include/core_cm0plus.h **** */
 167:Generated_Source\PSoC6\pdl\cmsis/include/core_cm0plus.h **** #ifdef __cplusplus
 168:Generated_Source\PSoC6\pdl\cmsis/include/core_cm0plus.h ****   #define   __I     volatile             /*!< Defines 'read only' permissions */
 169:Generated_Source\PSoC6\pdl\cmsis/include/core_cm0plus.h **** #else
 170:Generated_Source\PSoC6\pdl\cmsis/include/core_cm0plus.h ****   #define   __I     volatile const       /*!< Defines 'read only' permissions */
 171:Generated_Source\PSoC6\pdl\cmsis/include/core_cm0plus.h **** #endif
 172:Generated_Source\PSoC6\pdl\cmsis/include/core_cm0plus.h **** #define     __O     volatile             /*!< Defines 'write only' permissions */
 173:Generated_Source\PSoC6\pdl\cmsis/include/core_cm0plus.h **** #define     __IO    volatile             /*!< Defines 'read / write' permissions */
 174:Generated_Source\PSoC6\pdl\cmsis/include/core_cm0plus.h **** 
 175:Generated_Source\PSoC6\pdl\cmsis/include/core_cm0plus.h **** /* following defines should be used for structure members */
 176:Generated_Source\PSoC6\pdl\cmsis/include/core_cm0plus.h **** #define     __IM     volatile const      /*! Defines 'read only' structure member permissions */
 177:Generated_Source\PSoC6\pdl\cmsis/include/core_cm0plus.h **** #define     __OM     volatile            /*! Defines 'write only' structure member permissions */
 178:Generated_Source\PSoC6\pdl\cmsis/include/core_cm0plus.h **** #define     __IOM    volatile            /*! Defines 'read / write' structure member permissions */
 179:Generated_Source\PSoC6\pdl\cmsis/include/core_cm0plus.h **** 
 180:Generated_Source\PSoC6\pdl\cmsis/include/core_cm0plus.h **** /*@} end of group Cortex-M0+ */
 181:Generated_Source\PSoC6\pdl\cmsis/include/core_cm0plus.h **** 
 182:Generated_Source\PSoC6\pdl\cmsis/include/core_cm0plus.h **** 
 183:Generated_Source\PSoC6\pdl\cmsis/include/core_cm0plus.h **** 
 184:Generated_Source\PSoC6\pdl\cmsis/include/core_cm0plus.h **** /*******************************************************************************
 185:Generated_Source\PSoC6\pdl\cmsis/include/core_cm0plus.h ****  *                 Register Abstraction
 186:Generated_Source\PSoC6\pdl\cmsis/include/core_cm0plus.h ****   Core Register contain:
 187:Generated_Source\PSoC6\pdl\cmsis/include/core_cm0plus.h ****   - Core Register
 188:Generated_Source\PSoC6\pdl\cmsis/include/core_cm0plus.h ****   - Core NVIC Register
 189:Generated_Source\PSoC6\pdl\cmsis/include/core_cm0plus.h ****   - Core SCB Register
 190:Generated_Source\PSoC6\pdl\cmsis/include/core_cm0plus.h ****   - Core SysTick Register
 191:Generated_Source\PSoC6\pdl\cmsis/include/core_cm0plus.h ****   - Core MPU Register
 192:Generated_Source\PSoC6\pdl\cmsis/include/core_cm0plus.h ****  ******************************************************************************/
 193:Generated_Source\PSoC6\pdl\cmsis/include/core_cm0plus.h **** /**
 194:Generated_Source\PSoC6\pdl\cmsis/include/core_cm0plus.h ****   \defgroup CMSIS_core_register Defines and Type Definitions
 195:Generated_Source\PSoC6\pdl\cmsis/include/core_cm0plus.h ****   \brief Type definitions and defines for Cortex-M processor based devices.
 196:Generated_Source\PSoC6\pdl\cmsis/include/core_cm0plus.h **** */
 197:Generated_Source\PSoC6\pdl\cmsis/include/core_cm0plus.h **** 
 198:Generated_Source\PSoC6\pdl\cmsis/include/core_cm0plus.h **** /**
 199:Generated_Source\PSoC6\pdl\cmsis/include/core_cm0plus.h ****   \ingroup    CMSIS_core_register
 200:Generated_Source\PSoC6\pdl\cmsis/include/core_cm0plus.h ****   \defgroup   CMSIS_CORE  Status and Control Registers
 201:Generated_Source\PSoC6\pdl\cmsis/include/core_cm0plus.h ****   \brief      Core Register type definitions.
 202:Generated_Source\PSoC6\pdl\cmsis/include/core_cm0plus.h ****   @{
 203:Generated_Source\PSoC6\pdl\cmsis/include/core_cm0plus.h ****  */
 204:Generated_Source\PSoC6\pdl\cmsis/include/core_cm0plus.h **** 
 205:Generated_Source\PSoC6\pdl\cmsis/include/core_cm0plus.h **** /**
 206:Generated_Source\PSoC6\pdl\cmsis/include/core_cm0plus.h ****   \brief  Union type to access the Application Program Status Register (APSR).
 207:Generated_Source\PSoC6\pdl\cmsis/include/core_cm0plus.h ****  */
 208:Generated_Source\PSoC6\pdl\cmsis/include/core_cm0plus.h **** typedef union
 209:Generated_Source\PSoC6\pdl\cmsis/include/core_cm0plus.h **** {
 210:Generated_Source\PSoC6\pdl\cmsis/include/core_cm0plus.h ****   struct
 211:Generated_Source\PSoC6\pdl\cmsis/include/core_cm0plus.h ****   {
 212:Generated_Source\PSoC6\pdl\cmsis/include/core_cm0plus.h ****     uint32_t _reserved0:28;              /*!< bit:  0..27  Reserved */
 213:Generated_Source\PSoC6\pdl\cmsis/include/core_cm0plus.h ****     uint32_t V:1;                        /*!< bit:     28  Overflow condition code flag */
 214:Generated_Source\PSoC6\pdl\cmsis/include/core_cm0plus.h ****     uint32_t C:1;                        /*!< bit:     29  Carry condition code flag */
ARM GAS  C:\Users\salaz\AppData\Local\Temp\ccnyouLe.s 			page 43


 215:Generated_Source\PSoC6\pdl\cmsis/include/core_cm0plus.h ****     uint32_t Z:1;                        /*!< bit:     30  Zero condition code flag */
 216:Generated_Source\PSoC6\pdl\cmsis/include/core_cm0plus.h ****     uint32_t N:1;                        /*!< bit:     31  Negative condition code flag */
 217:Generated_Source\PSoC6\pdl\cmsis/include/core_cm0plus.h ****   } b;                                   /*!< Structure used for bit  access */
 218:Generated_Source\PSoC6\pdl\cmsis/include/core_cm0plus.h ****   uint32_t w;                            /*!< Type      used for word access */
 219:Generated_Source\PSoC6\pdl\cmsis/include/core_cm0plus.h **** } APSR_Type;
 220:Generated_Source\PSoC6\pdl\cmsis/include/core_cm0plus.h **** 
 221:Generated_Source\PSoC6\pdl\cmsis/include/core_cm0plus.h **** /* APSR Register Definitions */
 222:Generated_Source\PSoC6\pdl\cmsis/include/core_cm0plus.h **** #define APSR_N_Pos                         31U                                            /*!< APSR
 223:Generated_Source\PSoC6\pdl\cmsis/include/core_cm0plus.h **** #define APSR_N_Msk                         (1UL << APSR_N_Pos)                            /*!< APSR
 224:Generated_Source\PSoC6\pdl\cmsis/include/core_cm0plus.h **** 
 225:Generated_Source\PSoC6\pdl\cmsis/include/core_cm0plus.h **** #define APSR_Z_Pos                         30U                                            /*!< APSR
 226:Generated_Source\PSoC6\pdl\cmsis/include/core_cm0plus.h **** #define APSR_Z_Msk                         (1UL << APSR_Z_Pos)                            /*!< APSR
 227:Generated_Source\PSoC6\pdl\cmsis/include/core_cm0plus.h **** 
 228:Generated_Source\PSoC6\pdl\cmsis/include/core_cm0plus.h **** #define APSR_C_Pos                         29U                                            /*!< APSR
 229:Generated_Source\PSoC6\pdl\cmsis/include/core_cm0plus.h **** #define APSR_C_Msk                         (1UL << APSR_C_Pos)                            /*!< APSR
 230:Generated_Source\PSoC6\pdl\cmsis/include/core_cm0plus.h **** 
 231:Generated_Source\PSoC6\pdl\cmsis/include/core_cm0plus.h **** #define APSR_V_Pos                         28U                                            /*!< APSR
 232:Generated_Source\PSoC6\pdl\cmsis/include/core_cm0plus.h **** #define APSR_V_Msk                         (1UL << APSR_V_Pos)                            /*!< APSR
 233:Generated_Source\PSoC6\pdl\cmsis/include/core_cm0plus.h **** 
 234:Generated_Source\PSoC6\pdl\cmsis/include/core_cm0plus.h **** 
 235:Generated_Source\PSoC6\pdl\cmsis/include/core_cm0plus.h **** /**
 236:Generated_Source\PSoC6\pdl\cmsis/include/core_cm0plus.h ****   \brief  Union type to access the Interrupt Program Status Register (IPSR).
 237:Generated_Source\PSoC6\pdl\cmsis/include/core_cm0plus.h ****  */
 238:Generated_Source\PSoC6\pdl\cmsis/include/core_cm0plus.h **** typedef union
 239:Generated_Source\PSoC6\pdl\cmsis/include/core_cm0plus.h **** {
 240:Generated_Source\PSoC6\pdl\cmsis/include/core_cm0plus.h ****   struct
 241:Generated_Source\PSoC6\pdl\cmsis/include/core_cm0plus.h ****   {
 242:Generated_Source\PSoC6\pdl\cmsis/include/core_cm0plus.h ****     uint32_t ISR:9;                      /*!< bit:  0.. 8  Exception number */
 243:Generated_Source\PSoC6\pdl\cmsis/include/core_cm0plus.h ****     uint32_t _reserved0:23;              /*!< bit:  9..31  Reserved */
 244:Generated_Source\PSoC6\pdl\cmsis/include/core_cm0plus.h ****   } b;                                   /*!< Structure used for bit  access */
 245:Generated_Source\PSoC6\pdl\cmsis/include/core_cm0plus.h ****   uint32_t w;                            /*!< Type      used for word access */
 246:Generated_Source\PSoC6\pdl\cmsis/include/core_cm0plus.h **** } IPSR_Type;
 247:Generated_Source\PSoC6\pdl\cmsis/include/core_cm0plus.h **** 
 248:Generated_Source\PSoC6\pdl\cmsis/include/core_cm0plus.h **** /* IPSR Register Definitions */
 249:Generated_Source\PSoC6\pdl\cmsis/include/core_cm0plus.h **** #define IPSR_ISR_Pos                        0U                                            /*!< IPSR
 250:Generated_Source\PSoC6\pdl\cmsis/include/core_cm0plus.h **** #define IPSR_ISR_Msk                       (0x1FFUL /*<< IPSR_ISR_Pos*/)                  /*!< IPSR
 251:Generated_Source\PSoC6\pdl\cmsis/include/core_cm0plus.h **** 
 252:Generated_Source\PSoC6\pdl\cmsis/include/core_cm0plus.h **** 
 253:Generated_Source\PSoC6\pdl\cmsis/include/core_cm0plus.h **** /**
 254:Generated_Source\PSoC6\pdl\cmsis/include/core_cm0plus.h ****   \brief  Union type to access the Special-Purpose Program Status Registers (xPSR).
 255:Generated_Source\PSoC6\pdl\cmsis/include/core_cm0plus.h ****  */
 256:Generated_Source\PSoC6\pdl\cmsis/include/core_cm0plus.h **** typedef union
 257:Generated_Source\PSoC6\pdl\cmsis/include/core_cm0plus.h **** {
 258:Generated_Source\PSoC6\pdl\cmsis/include/core_cm0plus.h ****   struct
 259:Generated_Source\PSoC6\pdl\cmsis/include/core_cm0plus.h ****   {
 260:Generated_Source\PSoC6\pdl\cmsis/include/core_cm0plus.h ****     uint32_t ISR:9;                      /*!< bit:  0.. 8  Exception number */
 261:Generated_Source\PSoC6\pdl\cmsis/include/core_cm0plus.h ****     uint32_t _reserved0:15;              /*!< bit:  9..23  Reserved */
 262:Generated_Source\PSoC6\pdl\cmsis/include/core_cm0plus.h ****     uint32_t T:1;                        /*!< bit:     24  Thumb bit        (read 0) */
 263:Generated_Source\PSoC6\pdl\cmsis/include/core_cm0plus.h ****     uint32_t _reserved1:3;               /*!< bit: 25..27  Reserved */
 264:Generated_Source\PSoC6\pdl\cmsis/include/core_cm0plus.h ****     uint32_t V:1;                        /*!< bit:     28  Overflow condition code flag */
 265:Generated_Source\PSoC6\pdl\cmsis/include/core_cm0plus.h ****     uint32_t C:1;                        /*!< bit:     29  Carry condition code flag */
 266:Generated_Source\PSoC6\pdl\cmsis/include/core_cm0plus.h ****     uint32_t Z:1;                        /*!< bit:     30  Zero condition code flag */
 267:Generated_Source\PSoC6\pdl\cmsis/include/core_cm0plus.h ****     uint32_t N:1;                        /*!< bit:     31  Negative condition code flag */
 268:Generated_Source\PSoC6\pdl\cmsis/include/core_cm0plus.h ****   } b;                                   /*!< Structure used for bit  access */
 269:Generated_Source\PSoC6\pdl\cmsis/include/core_cm0plus.h ****   uint32_t w;                            /*!< Type      used for word access */
 270:Generated_Source\PSoC6\pdl\cmsis/include/core_cm0plus.h **** } xPSR_Type;
 271:Generated_Source\PSoC6\pdl\cmsis/include/core_cm0plus.h **** 
ARM GAS  C:\Users\salaz\AppData\Local\Temp\ccnyouLe.s 			page 44


 272:Generated_Source\PSoC6\pdl\cmsis/include/core_cm0plus.h **** /* xPSR Register Definitions */
 273:Generated_Source\PSoC6\pdl\cmsis/include/core_cm0plus.h **** #define xPSR_N_Pos                         31U                                            /*!< xPSR
 274:Generated_Source\PSoC6\pdl\cmsis/include/core_cm0plus.h **** #define xPSR_N_Msk                         (1UL << xPSR_N_Pos)                            /*!< xPSR
 275:Generated_Source\PSoC6\pdl\cmsis/include/core_cm0plus.h **** 
 276:Generated_Source\PSoC6\pdl\cmsis/include/core_cm0plus.h **** #define xPSR_Z_Pos                         30U                                            /*!< xPSR
 277:Generated_Source\PSoC6\pdl\cmsis/include/core_cm0plus.h **** #define xPSR_Z_Msk                         (1UL << xPSR_Z_Pos)                            /*!< xPSR
 278:Generated_Source\PSoC6\pdl\cmsis/include/core_cm0plus.h **** 
 279:Generated_Source\PSoC6\pdl\cmsis/include/core_cm0plus.h **** #define xPSR_C_Pos                         29U                                            /*!< xPSR
 280:Generated_Source\PSoC6\pdl\cmsis/include/core_cm0plus.h **** #define xPSR_C_Msk                         (1UL << xPSR_C_Pos)                            /*!< xPSR
 281:Generated_Source\PSoC6\pdl\cmsis/include/core_cm0plus.h **** 
 282:Generated_Source\PSoC6\pdl\cmsis/include/core_cm0plus.h **** #define xPSR_V_Pos                         28U                                            /*!< xPSR
 283:Generated_Source\PSoC6\pdl\cmsis/include/core_cm0plus.h **** #define xPSR_V_Msk                         (1UL << xPSR_V_Pos)                            /*!< xPSR
 284:Generated_Source\PSoC6\pdl\cmsis/include/core_cm0plus.h **** 
 285:Generated_Source\PSoC6\pdl\cmsis/include/core_cm0plus.h **** #define xPSR_T_Pos                         24U                                            /*!< xPSR
 286:Generated_Source\PSoC6\pdl\cmsis/include/core_cm0plus.h **** #define xPSR_T_Msk                         (1UL << xPSR_T_Pos)                            /*!< xPSR
 287:Generated_Source\PSoC6\pdl\cmsis/include/core_cm0plus.h **** 
 288:Generated_Source\PSoC6\pdl\cmsis/include/core_cm0plus.h **** #define xPSR_ISR_Pos                        0U                                            /*!< xPSR
 289:Generated_Source\PSoC6\pdl\cmsis/include/core_cm0plus.h **** #define xPSR_ISR_Msk                       (0x1FFUL /*<< xPSR_ISR_Pos*/)                  /*!< xPSR
 290:Generated_Source\PSoC6\pdl\cmsis/include/core_cm0plus.h **** 
 291:Generated_Source\PSoC6\pdl\cmsis/include/core_cm0plus.h **** 
 292:Generated_Source\PSoC6\pdl\cmsis/include/core_cm0plus.h **** /**
 293:Generated_Source\PSoC6\pdl\cmsis/include/core_cm0plus.h ****   \brief  Union type to access the Control Registers (CONTROL).
 294:Generated_Source\PSoC6\pdl\cmsis/include/core_cm0plus.h ****  */
 295:Generated_Source\PSoC6\pdl\cmsis/include/core_cm0plus.h **** typedef union
 296:Generated_Source\PSoC6\pdl\cmsis/include/core_cm0plus.h **** {
 297:Generated_Source\PSoC6\pdl\cmsis/include/core_cm0plus.h ****   struct
 298:Generated_Source\PSoC6\pdl\cmsis/include/core_cm0plus.h ****   {
 299:Generated_Source\PSoC6\pdl\cmsis/include/core_cm0plus.h ****     uint32_t nPRIV:1;                    /*!< bit:      0  Execution privilege in Thread mode */
 300:Generated_Source\PSoC6\pdl\cmsis/include/core_cm0plus.h ****     uint32_t SPSEL:1;                    /*!< bit:      1  Stack to be used */
 301:Generated_Source\PSoC6\pdl\cmsis/include/core_cm0plus.h ****     uint32_t _reserved1:30;              /*!< bit:  2..31  Reserved */
 302:Generated_Source\PSoC6\pdl\cmsis/include/core_cm0plus.h ****   } b;                                   /*!< Structure used for bit  access */
 303:Generated_Source\PSoC6\pdl\cmsis/include/core_cm0plus.h ****   uint32_t w;                            /*!< Type      used for word access */
 304:Generated_Source\PSoC6\pdl\cmsis/include/core_cm0plus.h **** } CONTROL_Type;
 305:Generated_Source\PSoC6\pdl\cmsis/include/core_cm0plus.h **** 
 306:Generated_Source\PSoC6\pdl\cmsis/include/core_cm0plus.h **** /* CONTROL Register Definitions */
 307:Generated_Source\PSoC6\pdl\cmsis/include/core_cm0plus.h **** #define CONTROL_SPSEL_Pos                   1U                                            /*!< CONT
 308:Generated_Source\PSoC6\pdl\cmsis/include/core_cm0plus.h **** #define CONTROL_SPSEL_Msk                  (1UL << CONTROL_SPSEL_Pos)                     /*!< CONT
 309:Generated_Source\PSoC6\pdl\cmsis/include/core_cm0plus.h **** 
 310:Generated_Source\PSoC6\pdl\cmsis/include/core_cm0plus.h **** #define CONTROL_nPRIV_Pos                   0U                                            /*!< CONT
 311:Generated_Source\PSoC6\pdl\cmsis/include/core_cm0plus.h **** #define CONTROL_nPRIV_Msk                  (1UL /*<< CONTROL_nPRIV_Pos*/)                 /*!< CONT
 312:Generated_Source\PSoC6\pdl\cmsis/include/core_cm0plus.h **** 
 313:Generated_Source\PSoC6\pdl\cmsis/include/core_cm0plus.h **** /*@} end of group CMSIS_CORE */
 314:Generated_Source\PSoC6\pdl\cmsis/include/core_cm0plus.h **** 
 315:Generated_Source\PSoC6\pdl\cmsis/include/core_cm0plus.h **** 
 316:Generated_Source\PSoC6\pdl\cmsis/include/core_cm0plus.h **** /**
 317:Generated_Source\PSoC6\pdl\cmsis/include/core_cm0plus.h ****   \ingroup    CMSIS_core_register
 318:Generated_Source\PSoC6\pdl\cmsis/include/core_cm0plus.h ****   \defgroup   CMSIS_NVIC  Nested Vectored Interrupt Controller (NVIC)
 319:Generated_Source\PSoC6\pdl\cmsis/include/core_cm0plus.h ****   \brief      Type definitions for the NVIC Registers
 320:Generated_Source\PSoC6\pdl\cmsis/include/core_cm0plus.h ****   @{
 321:Generated_Source\PSoC6\pdl\cmsis/include/core_cm0plus.h ****  */
 322:Generated_Source\PSoC6\pdl\cmsis/include/core_cm0plus.h **** 
 323:Generated_Source\PSoC6\pdl\cmsis/include/core_cm0plus.h **** /**
 324:Generated_Source\PSoC6\pdl\cmsis/include/core_cm0plus.h ****   \brief  Structure type to access the Nested Vectored Interrupt Controller (NVIC).
 325:Generated_Source\PSoC6\pdl\cmsis/include/core_cm0plus.h ****  */
 326:Generated_Source\PSoC6\pdl\cmsis/include/core_cm0plus.h **** typedef struct
 327:Generated_Source\PSoC6\pdl\cmsis/include/core_cm0plus.h **** {
 328:Generated_Source\PSoC6\pdl\cmsis/include/core_cm0plus.h ****   __IOM uint32_t ISER[1U];               /*!< Offset: 0x000 (R/W)  Interrupt Set Enable Register */
ARM GAS  C:\Users\salaz\AppData\Local\Temp\ccnyouLe.s 			page 45


 329:Generated_Source\PSoC6\pdl\cmsis/include/core_cm0plus.h ****         uint32_t RESERVED0[31U];
 330:Generated_Source\PSoC6\pdl\cmsis/include/core_cm0plus.h ****   __IOM uint32_t ICER[1U];               /*!< Offset: 0x080 (R/W)  Interrupt Clear Enable Register 
 331:Generated_Source\PSoC6\pdl\cmsis/include/core_cm0plus.h ****         uint32_t RSERVED1[31U];
 332:Generated_Source\PSoC6\pdl\cmsis/include/core_cm0plus.h ****   __IOM uint32_t ISPR[1U];               /*!< Offset: 0x100 (R/W)  Interrupt Set Pending Register *
 333:Generated_Source\PSoC6\pdl\cmsis/include/core_cm0plus.h ****         uint32_t RESERVED2[31U];
 334:Generated_Source\PSoC6\pdl\cmsis/include/core_cm0plus.h ****   __IOM uint32_t ICPR[1U];               /*!< Offset: 0x180 (R/W)  Interrupt Clear Pending Register
 335:Generated_Source\PSoC6\pdl\cmsis/include/core_cm0plus.h ****         uint32_t RESERVED3[31U];
 336:Generated_Source\PSoC6\pdl\cmsis/include/core_cm0plus.h ****         uint32_t RESERVED4[64U];
 337:Generated_Source\PSoC6\pdl\cmsis/include/core_cm0plus.h ****   __IOM uint32_t IP[8U];                 /*!< Offset: 0x300 (R/W)  Interrupt Priority Register */
 338:Generated_Source\PSoC6\pdl\cmsis/include/core_cm0plus.h **** }  NVIC_Type;
 339:Generated_Source\PSoC6\pdl\cmsis/include/core_cm0plus.h **** 
 340:Generated_Source\PSoC6\pdl\cmsis/include/core_cm0plus.h **** /*@} end of group CMSIS_NVIC */
 341:Generated_Source\PSoC6\pdl\cmsis/include/core_cm0plus.h **** 
 342:Generated_Source\PSoC6\pdl\cmsis/include/core_cm0plus.h **** 
 343:Generated_Source\PSoC6\pdl\cmsis/include/core_cm0plus.h **** /**
 344:Generated_Source\PSoC6\pdl\cmsis/include/core_cm0plus.h ****   \ingroup  CMSIS_core_register
 345:Generated_Source\PSoC6\pdl\cmsis/include/core_cm0plus.h ****   \defgroup CMSIS_SCB     System Control Block (SCB)
 346:Generated_Source\PSoC6\pdl\cmsis/include/core_cm0plus.h ****   \brief    Type definitions for the System Control Block Registers
 347:Generated_Source\PSoC6\pdl\cmsis/include/core_cm0plus.h ****   @{
 348:Generated_Source\PSoC6\pdl\cmsis/include/core_cm0plus.h ****  */
 349:Generated_Source\PSoC6\pdl\cmsis/include/core_cm0plus.h **** 
 350:Generated_Source\PSoC6\pdl\cmsis/include/core_cm0plus.h **** /**
 351:Generated_Source\PSoC6\pdl\cmsis/include/core_cm0plus.h ****   \brief  Structure type to access the System Control Block (SCB).
 352:Generated_Source\PSoC6\pdl\cmsis/include/core_cm0plus.h ****  */
 353:Generated_Source\PSoC6\pdl\cmsis/include/core_cm0plus.h **** typedef struct
 354:Generated_Source\PSoC6\pdl\cmsis/include/core_cm0plus.h **** {
 355:Generated_Source\PSoC6\pdl\cmsis/include/core_cm0plus.h ****   __IM  uint32_t CPUID;                  /*!< Offset: 0x000 (R/ )  CPUID Base Register */
 356:Generated_Source\PSoC6\pdl\cmsis/include/core_cm0plus.h ****   __IOM uint32_t ICSR;                   /*!< Offset: 0x004 (R/W)  Interrupt Control and State Regi
 357:Generated_Source\PSoC6\pdl\cmsis/include/core_cm0plus.h **** #if defined (__VTOR_PRESENT) && (__VTOR_PRESENT == 1U)
 358:Generated_Source\PSoC6\pdl\cmsis/include/core_cm0plus.h ****   __IOM uint32_t VTOR;                   /*!< Offset: 0x008 (R/W)  Vector Table Offset Register */
 359:Generated_Source\PSoC6\pdl\cmsis/include/core_cm0plus.h **** #else
 360:Generated_Source\PSoC6\pdl\cmsis/include/core_cm0plus.h ****         uint32_t RESERVED0;
 361:Generated_Source\PSoC6\pdl\cmsis/include/core_cm0plus.h **** #endif
 362:Generated_Source\PSoC6\pdl\cmsis/include/core_cm0plus.h ****   __IOM uint32_t AIRCR;                  /*!< Offset: 0x00C (R/W)  Application Interrupt and Reset 
 363:Generated_Source\PSoC6\pdl\cmsis/include/core_cm0plus.h ****   __IOM uint32_t SCR;                    /*!< Offset: 0x010 (R/W)  System Control Register */
 364:Generated_Source\PSoC6\pdl\cmsis/include/core_cm0plus.h ****   __IOM uint32_t CCR;                    /*!< Offset: 0x014 (R/W)  Configuration Control Register *
 365:Generated_Source\PSoC6\pdl\cmsis/include/core_cm0plus.h ****         uint32_t RESERVED1;
 366:Generated_Source\PSoC6\pdl\cmsis/include/core_cm0plus.h ****   __IOM uint32_t SHP[2U];                /*!< Offset: 0x01C (R/W)  System Handlers Priority Registe
 367:Generated_Source\PSoC6\pdl\cmsis/include/core_cm0plus.h ****   __IOM uint32_t SHCSR;                  /*!< Offset: 0x024 (R/W)  System Handler Control and State
 368:Generated_Source\PSoC6\pdl\cmsis/include/core_cm0plus.h **** } SCB_Type;
 369:Generated_Source\PSoC6\pdl\cmsis/include/core_cm0plus.h **** 
 370:Generated_Source\PSoC6\pdl\cmsis/include/core_cm0plus.h **** /* SCB CPUID Register Definitions */
 371:Generated_Source\PSoC6\pdl\cmsis/include/core_cm0plus.h **** #define SCB_CPUID_IMPLEMENTER_Pos          24U                                            /*!< SCB 
 372:Generated_Source\PSoC6\pdl\cmsis/include/core_cm0plus.h **** #define SCB_CPUID_IMPLEMENTER_Msk          (0xFFUL << SCB_CPUID_IMPLEMENTER_Pos)          /*!< SCB 
 373:Generated_Source\PSoC6\pdl\cmsis/include/core_cm0plus.h **** 
 374:Generated_Source\PSoC6\pdl\cmsis/include/core_cm0plus.h **** #define SCB_CPUID_VARIANT_Pos              20U                                            /*!< SCB 
 375:Generated_Source\PSoC6\pdl\cmsis/include/core_cm0plus.h **** #define SCB_CPUID_VARIANT_Msk              (0xFUL << SCB_CPUID_VARIANT_Pos)               /*!< SCB 
 376:Generated_Source\PSoC6\pdl\cmsis/include/core_cm0plus.h **** 
 377:Generated_Source\PSoC6\pdl\cmsis/include/core_cm0plus.h **** #define SCB_CPUID_ARCHITECTURE_Pos         16U                                            /*!< SCB 
 378:Generated_Source\PSoC6\pdl\cmsis/include/core_cm0plus.h **** #define SCB_CPUID_ARCHITECTURE_Msk         (0xFUL << SCB_CPUID_ARCHITECTURE_Pos)          /*!< SCB 
 379:Generated_Source\PSoC6\pdl\cmsis/include/core_cm0plus.h **** 
 380:Generated_Source\PSoC6\pdl\cmsis/include/core_cm0plus.h **** #define SCB_CPUID_PARTNO_Pos                4U                                            /*!< SCB 
 381:Generated_Source\PSoC6\pdl\cmsis/include/core_cm0plus.h **** #define SCB_CPUID_PARTNO_Msk               (0xFFFUL << SCB_CPUID_PARTNO_Pos)              /*!< SCB 
 382:Generated_Source\PSoC6\pdl\cmsis/include/core_cm0plus.h **** 
 383:Generated_Source\PSoC6\pdl\cmsis/include/core_cm0plus.h **** #define SCB_CPUID_REVISION_Pos              0U                                            /*!< SCB 
 384:Generated_Source\PSoC6\pdl\cmsis/include/core_cm0plus.h **** #define SCB_CPUID_REVISION_Msk             (0xFUL /*<< SCB_CPUID_REVISION_Pos*/)          /*!< SCB 
 385:Generated_Source\PSoC6\pdl\cmsis/include/core_cm0plus.h **** 
ARM GAS  C:\Users\salaz\AppData\Local\Temp\ccnyouLe.s 			page 46


 386:Generated_Source\PSoC6\pdl\cmsis/include/core_cm0plus.h **** /* SCB Interrupt Control State Register Definitions */
 387:Generated_Source\PSoC6\pdl\cmsis/include/core_cm0plus.h **** #define SCB_ICSR_NMIPENDSET_Pos            31U                                            /*!< SCB 
 388:Generated_Source\PSoC6\pdl\cmsis/include/core_cm0plus.h **** #define SCB_ICSR_NMIPENDSET_Msk            (1UL << SCB_ICSR_NMIPENDSET_Pos)               /*!< SCB 
 389:Generated_Source\PSoC6\pdl\cmsis/include/core_cm0plus.h **** 
 390:Generated_Source\PSoC6\pdl\cmsis/include/core_cm0plus.h **** #define SCB_ICSR_PENDSVSET_Pos             28U                                            /*!< SCB 
 391:Generated_Source\PSoC6\pdl\cmsis/include/core_cm0plus.h **** #define SCB_ICSR_PENDSVSET_Msk             (1UL << SCB_ICSR_PENDSVSET_Pos)                /*!< SCB 
 392:Generated_Source\PSoC6\pdl\cmsis/include/core_cm0plus.h **** 
 393:Generated_Source\PSoC6\pdl\cmsis/include/core_cm0plus.h **** #define SCB_ICSR_PENDSVCLR_Pos             27U                                            /*!< SCB 
 394:Generated_Source\PSoC6\pdl\cmsis/include/core_cm0plus.h **** #define SCB_ICSR_PENDSVCLR_Msk             (1UL << SCB_ICSR_PENDSVCLR_Pos)                /*!< SCB 
 395:Generated_Source\PSoC6\pdl\cmsis/include/core_cm0plus.h **** 
 396:Generated_Source\PSoC6\pdl\cmsis/include/core_cm0plus.h **** #define SCB_ICSR_PENDSTSET_Pos             26U                                            /*!< SCB 
 397:Generated_Source\PSoC6\pdl\cmsis/include/core_cm0plus.h **** #define SCB_ICSR_PENDSTSET_Msk             (1UL << SCB_ICSR_PENDSTSET_Pos)                /*!< SCB 
 398:Generated_Source\PSoC6\pdl\cmsis/include/core_cm0plus.h **** 
 399:Generated_Source\PSoC6\pdl\cmsis/include/core_cm0plus.h **** #define SCB_ICSR_PENDSTCLR_Pos             25U                                            /*!< SCB 
 400:Generated_Source\PSoC6\pdl\cmsis/include/core_cm0plus.h **** #define SCB_ICSR_PENDSTCLR_Msk             (1UL << SCB_ICSR_PENDSTCLR_Pos)                /*!< SCB 
 401:Generated_Source\PSoC6\pdl\cmsis/include/core_cm0plus.h **** 
 402:Generated_Source\PSoC6\pdl\cmsis/include/core_cm0plus.h **** #define SCB_ICSR_ISRPREEMPT_Pos            23U                                            /*!< SCB 
 403:Generated_Source\PSoC6\pdl\cmsis/include/core_cm0plus.h **** #define SCB_ICSR_ISRPREEMPT_Msk            (1UL << SCB_ICSR_ISRPREEMPT_Pos)               /*!< SCB 
 404:Generated_Source\PSoC6\pdl\cmsis/include/core_cm0plus.h **** 
 405:Generated_Source\PSoC6\pdl\cmsis/include/core_cm0plus.h **** #define SCB_ICSR_ISRPENDING_Pos            22U                                            /*!< SCB 
 406:Generated_Source\PSoC6\pdl\cmsis/include/core_cm0plus.h **** #define SCB_ICSR_ISRPENDING_Msk            (1UL << SCB_ICSR_ISRPENDING_Pos)               /*!< SCB 
 407:Generated_Source\PSoC6\pdl\cmsis/include/core_cm0plus.h **** 
 408:Generated_Source\PSoC6\pdl\cmsis/include/core_cm0plus.h **** #define SCB_ICSR_VECTPENDING_Pos           12U                                            /*!< SCB 
 409:Generated_Source\PSoC6\pdl\cmsis/include/core_cm0plus.h **** #define SCB_ICSR_VECTPENDING_Msk           (0x1FFUL << SCB_ICSR_VECTPENDING_Pos)          /*!< SCB 
 410:Generated_Source\PSoC6\pdl\cmsis/include/core_cm0plus.h **** 
 411:Generated_Source\PSoC6\pdl\cmsis/include/core_cm0plus.h **** #define SCB_ICSR_VECTACTIVE_Pos             0U                                            /*!< SCB 
 412:Generated_Source\PSoC6\pdl\cmsis/include/core_cm0plus.h **** #define SCB_ICSR_VECTACTIVE_Msk            (0x1FFUL /*<< SCB_ICSR_VECTACTIVE_Pos*/)       /*!< SCB 
 413:Generated_Source\PSoC6\pdl\cmsis/include/core_cm0plus.h **** 
 414:Generated_Source\PSoC6\pdl\cmsis/include/core_cm0plus.h **** #if defined (__VTOR_PRESENT) && (__VTOR_PRESENT == 1U)
 415:Generated_Source\PSoC6\pdl\cmsis/include/core_cm0plus.h **** /* SCB Interrupt Control State Register Definitions */
 416:Generated_Source\PSoC6\pdl\cmsis/include/core_cm0plus.h **** #define SCB_VTOR_TBLOFF_Pos                 8U                                            /*!< SCB 
 417:Generated_Source\PSoC6\pdl\cmsis/include/core_cm0plus.h **** #define SCB_VTOR_TBLOFF_Msk                (0xFFFFFFUL << SCB_VTOR_TBLOFF_Pos)            /*!< SCB 
 418:Generated_Source\PSoC6\pdl\cmsis/include/core_cm0plus.h **** #endif
 419:Generated_Source\PSoC6\pdl\cmsis/include/core_cm0plus.h **** 
 420:Generated_Source\PSoC6\pdl\cmsis/include/core_cm0plus.h **** /* SCB Application Interrupt and Reset Control Register Definitions */
 421:Generated_Source\PSoC6\pdl\cmsis/include/core_cm0plus.h **** #define SCB_AIRCR_VECTKEY_Pos              16U                                            /*!< SCB 
 422:Generated_Source\PSoC6\pdl\cmsis/include/core_cm0plus.h **** #define SCB_AIRCR_VECTKEY_Msk              (0xFFFFUL << SCB_AIRCR_VECTKEY_Pos)            /*!< SCB 
 423:Generated_Source\PSoC6\pdl\cmsis/include/core_cm0plus.h **** 
 424:Generated_Source\PSoC6\pdl\cmsis/include/core_cm0plus.h **** #define SCB_AIRCR_VECTKEYSTAT_Pos          16U                                            /*!< SCB 
 425:Generated_Source\PSoC6\pdl\cmsis/include/core_cm0plus.h **** #define SCB_AIRCR_VECTKEYSTAT_Msk          (0xFFFFUL << SCB_AIRCR_VECTKEYSTAT_Pos)        /*!< SCB 
 426:Generated_Source\PSoC6\pdl\cmsis/include/core_cm0plus.h **** 
 427:Generated_Source\PSoC6\pdl\cmsis/include/core_cm0plus.h **** #define SCB_AIRCR_ENDIANESS_Pos            15U                                            /*!< SCB 
 428:Generated_Source\PSoC6\pdl\cmsis/include/core_cm0plus.h **** #define SCB_AIRCR_ENDIANESS_Msk            (1UL << SCB_AIRCR_ENDIANESS_Pos)               /*!< SCB 
 429:Generated_Source\PSoC6\pdl\cmsis/include/core_cm0plus.h **** 
 430:Generated_Source\PSoC6\pdl\cmsis/include/core_cm0plus.h **** #define SCB_AIRCR_SYSRESETREQ_Pos           2U                                            /*!< SCB 
 431:Generated_Source\PSoC6\pdl\cmsis/include/core_cm0plus.h **** #define SCB_AIRCR_SYSRESETREQ_Msk          (1UL << SCB_AIRCR_SYSRESETREQ_Pos)             /*!< SCB 
 432:Generated_Source\PSoC6\pdl\cmsis/include/core_cm0plus.h **** 
 433:Generated_Source\PSoC6\pdl\cmsis/include/core_cm0plus.h **** #define SCB_AIRCR_VECTCLRACTIVE_Pos         1U                                            /*!< SCB 
 434:Generated_Source\PSoC6\pdl\cmsis/include/core_cm0plus.h **** #define SCB_AIRCR_VECTCLRACTIVE_Msk        (1UL << SCB_AIRCR_VECTCLRACTIVE_Pos)           /*!< SCB 
 435:Generated_Source\PSoC6\pdl\cmsis/include/core_cm0plus.h **** 
 436:Generated_Source\PSoC6\pdl\cmsis/include/core_cm0plus.h **** /* SCB System Control Register Definitions */
 437:Generated_Source\PSoC6\pdl\cmsis/include/core_cm0plus.h **** #define SCB_SCR_SEVONPEND_Pos               4U                                            /*!< SCB 
 438:Generated_Source\PSoC6\pdl\cmsis/include/core_cm0plus.h **** #define SCB_SCR_SEVONPEND_Msk              (1UL << SCB_SCR_SEVONPEND_Pos)                 /*!< SCB 
 439:Generated_Source\PSoC6\pdl\cmsis/include/core_cm0plus.h **** 
 440:Generated_Source\PSoC6\pdl\cmsis/include/core_cm0plus.h **** #define SCB_SCR_SLEEPDEEP_Pos               2U                                            /*!< SCB 
 441:Generated_Source\PSoC6\pdl\cmsis/include/core_cm0plus.h **** #define SCB_SCR_SLEEPDEEP_Msk              (1UL << SCB_SCR_SLEEPDEEP_Pos)                 /*!< SCB 
 442:Generated_Source\PSoC6\pdl\cmsis/include/core_cm0plus.h **** 
ARM GAS  C:\Users\salaz\AppData\Local\Temp\ccnyouLe.s 			page 47


 443:Generated_Source\PSoC6\pdl\cmsis/include/core_cm0plus.h **** #define SCB_SCR_SLEEPONEXIT_Pos             1U                                            /*!< SCB 
 444:Generated_Source\PSoC6\pdl\cmsis/include/core_cm0plus.h **** #define SCB_SCR_SLEEPONEXIT_Msk            (1UL << SCB_SCR_SLEEPONEXIT_Pos)               /*!< SCB 
 445:Generated_Source\PSoC6\pdl\cmsis/include/core_cm0plus.h **** 
 446:Generated_Source\PSoC6\pdl\cmsis/include/core_cm0plus.h **** /* SCB Configuration Control Register Definitions */
 447:Generated_Source\PSoC6\pdl\cmsis/include/core_cm0plus.h **** #define SCB_CCR_STKALIGN_Pos                9U                                            /*!< SCB 
 448:Generated_Source\PSoC6\pdl\cmsis/include/core_cm0plus.h **** #define SCB_CCR_STKALIGN_Msk               (1UL << SCB_CCR_STKALIGN_Pos)                  /*!< SCB 
 449:Generated_Source\PSoC6\pdl\cmsis/include/core_cm0plus.h **** 
 450:Generated_Source\PSoC6\pdl\cmsis/include/core_cm0plus.h **** #define SCB_CCR_UNALIGN_TRP_Pos             3U                                            /*!< SCB 
 451:Generated_Source\PSoC6\pdl\cmsis/include/core_cm0plus.h **** #define SCB_CCR_UNALIGN_TRP_Msk            (1UL << SCB_CCR_UNALIGN_TRP_Pos)               /*!< SCB 
 452:Generated_Source\PSoC6\pdl\cmsis/include/core_cm0plus.h **** 
 453:Generated_Source\PSoC6\pdl\cmsis/include/core_cm0plus.h **** /* SCB System Handler Control and State Register Definitions */
 454:Generated_Source\PSoC6\pdl\cmsis/include/core_cm0plus.h **** #define SCB_SHCSR_SVCALLPENDED_Pos         15U                                            /*!< SCB 
 455:Generated_Source\PSoC6\pdl\cmsis/include/core_cm0plus.h **** #define SCB_SHCSR_SVCALLPENDED_Msk         (1UL << SCB_SHCSR_SVCALLPENDED_Pos)            /*!< SCB 
 456:Generated_Source\PSoC6\pdl\cmsis/include/core_cm0plus.h **** 
 457:Generated_Source\PSoC6\pdl\cmsis/include/core_cm0plus.h **** /*@} end of group CMSIS_SCB */
 458:Generated_Source\PSoC6\pdl\cmsis/include/core_cm0plus.h **** 
 459:Generated_Source\PSoC6\pdl\cmsis/include/core_cm0plus.h **** 
 460:Generated_Source\PSoC6\pdl\cmsis/include/core_cm0plus.h **** /**
 461:Generated_Source\PSoC6\pdl\cmsis/include/core_cm0plus.h ****   \ingroup  CMSIS_core_register
 462:Generated_Source\PSoC6\pdl\cmsis/include/core_cm0plus.h ****   \defgroup CMSIS_SysTick     System Tick Timer (SysTick)
 463:Generated_Source\PSoC6\pdl\cmsis/include/core_cm0plus.h ****   \brief    Type definitions for the System Timer Registers.
 464:Generated_Source\PSoC6\pdl\cmsis/include/core_cm0plus.h ****   @{
 465:Generated_Source\PSoC6\pdl\cmsis/include/core_cm0plus.h ****  */
 466:Generated_Source\PSoC6\pdl\cmsis/include/core_cm0plus.h **** 
 467:Generated_Source\PSoC6\pdl\cmsis/include/core_cm0plus.h **** /**
 468:Generated_Source\PSoC6\pdl\cmsis/include/core_cm0plus.h ****   \brief  Structure type to access the System Timer (SysTick).
 469:Generated_Source\PSoC6\pdl\cmsis/include/core_cm0plus.h ****  */
 470:Generated_Source\PSoC6\pdl\cmsis/include/core_cm0plus.h **** typedef struct
 471:Generated_Source\PSoC6\pdl\cmsis/include/core_cm0plus.h **** {
 472:Generated_Source\PSoC6\pdl\cmsis/include/core_cm0plus.h ****   __IOM uint32_t CTRL;                   /*!< Offset: 0x000 (R/W)  SysTick Control and Status Regis
 473:Generated_Source\PSoC6\pdl\cmsis/include/core_cm0plus.h ****   __IOM uint32_t LOAD;                   /*!< Offset: 0x004 (R/W)  SysTick Reload Value Register */
 474:Generated_Source\PSoC6\pdl\cmsis/include/core_cm0plus.h ****   __IOM uint32_t VAL;                    /*!< Offset: 0x008 (R/W)  SysTick Current Value Register *
 475:Generated_Source\PSoC6\pdl\cmsis/include/core_cm0plus.h ****   __IM  uint32_t CALIB;                  /*!< Offset: 0x00C (R/ )  SysTick Calibration Register */
 476:Generated_Source\PSoC6\pdl\cmsis/include/core_cm0plus.h **** } SysTick_Type;
 477:Generated_Source\PSoC6\pdl\cmsis/include/core_cm0plus.h **** 
 478:Generated_Source\PSoC6\pdl\cmsis/include/core_cm0plus.h **** /* SysTick Control / Status Register Definitions */
 479:Generated_Source\PSoC6\pdl\cmsis/include/core_cm0plus.h **** #define SysTick_CTRL_COUNTFLAG_Pos         16U                                            /*!< SysT
 480:Generated_Source\PSoC6\pdl\cmsis/include/core_cm0plus.h **** #define SysTick_CTRL_COUNTFLAG_Msk         (1UL << SysTick_CTRL_COUNTFLAG_Pos)            /*!< SysT
 481:Generated_Source\PSoC6\pdl\cmsis/include/core_cm0plus.h **** 
 482:Generated_Source\PSoC6\pdl\cmsis/include/core_cm0plus.h **** #define SysTick_CTRL_CLKSOURCE_Pos          2U                                            /*!< SysT
 483:Generated_Source\PSoC6\pdl\cmsis/include/core_cm0plus.h **** #define SysTick_CTRL_CLKSOURCE_Msk         (1UL << SysTick_CTRL_CLKSOURCE_Pos)            /*!< SysT
 484:Generated_Source\PSoC6\pdl\cmsis/include/core_cm0plus.h **** 
 485:Generated_Source\PSoC6\pdl\cmsis/include/core_cm0plus.h **** #define SysTick_CTRL_TICKINT_Pos            1U                                            /*!< SysT
 486:Generated_Source\PSoC6\pdl\cmsis/include/core_cm0plus.h **** #define SysTick_CTRL_TICKINT_Msk           (1UL << SysTick_CTRL_TICKINT_Pos)              /*!< SysT
 487:Generated_Source\PSoC6\pdl\cmsis/include/core_cm0plus.h **** 
 488:Generated_Source\PSoC6\pdl\cmsis/include/core_cm0plus.h **** #define SysTick_CTRL_ENABLE_Pos             0U                                            /*!< SysT
 489:Generated_Source\PSoC6\pdl\cmsis/include/core_cm0plus.h **** #define SysTick_CTRL_ENABLE_Msk            (1UL /*<< SysTick_CTRL_ENABLE_Pos*/)           /*!< SysT
 490:Generated_Source\PSoC6\pdl\cmsis/include/core_cm0plus.h **** 
 491:Generated_Source\PSoC6\pdl\cmsis/include/core_cm0plus.h **** /* SysTick Reload Register Definitions */
 492:Generated_Source\PSoC6\pdl\cmsis/include/core_cm0plus.h **** #define SysTick_LOAD_RELOAD_Pos             0U                                            /*!< SysT
 493:Generated_Source\PSoC6\pdl\cmsis/include/core_cm0plus.h **** #define SysTick_LOAD_RELOAD_Msk            (0xFFFFFFUL /*<< SysTick_LOAD_RELOAD_Pos*/)    /*!< SysT
 494:Generated_Source\PSoC6\pdl\cmsis/include/core_cm0plus.h **** 
 495:Generated_Source\PSoC6\pdl\cmsis/include/core_cm0plus.h **** /* SysTick Current Register Definitions */
 496:Generated_Source\PSoC6\pdl\cmsis/include/core_cm0plus.h **** #define SysTick_VAL_CURRENT_Pos             0U                                            /*!< SysT
 497:Generated_Source\PSoC6\pdl\cmsis/include/core_cm0plus.h **** #define SysTick_VAL_CURRENT_Msk            (0xFFFFFFUL /*<< SysTick_VAL_CURRENT_Pos*/)    /*!< SysT
 498:Generated_Source\PSoC6\pdl\cmsis/include/core_cm0plus.h **** 
 499:Generated_Source\PSoC6\pdl\cmsis/include/core_cm0plus.h **** /* SysTick Calibration Register Definitions */
ARM GAS  C:\Users\salaz\AppData\Local\Temp\ccnyouLe.s 			page 48


 500:Generated_Source\PSoC6\pdl\cmsis/include/core_cm0plus.h **** #define SysTick_CALIB_NOREF_Pos            31U                                            /*!< SysT
 501:Generated_Source\PSoC6\pdl\cmsis/include/core_cm0plus.h **** #define SysTick_CALIB_NOREF_Msk            (1UL << SysTick_CALIB_NOREF_Pos)               /*!< SysT
 502:Generated_Source\PSoC6\pdl\cmsis/include/core_cm0plus.h **** 
 503:Generated_Source\PSoC6\pdl\cmsis/include/core_cm0plus.h **** #define SysTick_CALIB_SKEW_Pos             30U                                            /*!< SysT
 504:Generated_Source\PSoC6\pdl\cmsis/include/core_cm0plus.h **** #define SysTick_CALIB_SKEW_Msk             (1UL << SysTick_CALIB_SKEW_Pos)                /*!< SysT
 505:Generated_Source\PSoC6\pdl\cmsis/include/core_cm0plus.h **** 
 506:Generated_Source\PSoC6\pdl\cmsis/include/core_cm0plus.h **** #define SysTick_CALIB_TENMS_Pos             0U                                            /*!< SysT
 507:Generated_Source\PSoC6\pdl\cmsis/include/core_cm0plus.h **** #define SysTick_CALIB_TENMS_Msk            (0xFFFFFFUL /*<< SysTick_CALIB_TENMS_Pos*/)    /*!< SysT
 508:Generated_Source\PSoC6\pdl\cmsis/include/core_cm0plus.h **** 
 509:Generated_Source\PSoC6\pdl\cmsis/include/core_cm0plus.h **** /*@} end of group CMSIS_SysTick */
 510:Generated_Source\PSoC6\pdl\cmsis/include/core_cm0plus.h **** 
 511:Generated_Source\PSoC6\pdl\cmsis/include/core_cm0plus.h **** #if defined (__MPU_PRESENT) && (__MPU_PRESENT == 1U)
 512:Generated_Source\PSoC6\pdl\cmsis/include/core_cm0plus.h **** /**
 513:Generated_Source\PSoC6\pdl\cmsis/include/core_cm0plus.h ****   \ingroup  CMSIS_core_register
 514:Generated_Source\PSoC6\pdl\cmsis/include/core_cm0plus.h ****   \defgroup CMSIS_MPU     Memory Protection Unit (MPU)
 515:Generated_Source\PSoC6\pdl\cmsis/include/core_cm0plus.h ****   \brief    Type definitions for the Memory Protection Unit (MPU)
 516:Generated_Source\PSoC6\pdl\cmsis/include/core_cm0plus.h ****   @{
 517:Generated_Source\PSoC6\pdl\cmsis/include/core_cm0plus.h ****  */
 518:Generated_Source\PSoC6\pdl\cmsis/include/core_cm0plus.h **** 
 519:Generated_Source\PSoC6\pdl\cmsis/include/core_cm0plus.h **** /**
 520:Generated_Source\PSoC6\pdl\cmsis/include/core_cm0plus.h ****   \brief  Structure type to access the Memory Protection Unit (MPU).
 521:Generated_Source\PSoC6\pdl\cmsis/include/core_cm0plus.h ****  */
 522:Generated_Source\PSoC6\pdl\cmsis/include/core_cm0plus.h **** typedef struct
 523:Generated_Source\PSoC6\pdl\cmsis/include/core_cm0plus.h **** {
 524:Generated_Source\PSoC6\pdl\cmsis/include/core_cm0plus.h ****   __IM  uint32_t TYPE;                   /*!< Offset: 0x000 (R/ )  MPU Type Register */
 525:Generated_Source\PSoC6\pdl\cmsis/include/core_cm0plus.h ****   __IOM uint32_t CTRL;                   /*!< Offset: 0x004 (R/W)  MPU Control Register */
 526:Generated_Source\PSoC6\pdl\cmsis/include/core_cm0plus.h ****   __IOM uint32_t RNR;                    /*!< Offset: 0x008 (R/W)  MPU Region RNRber Register */
 527:Generated_Source\PSoC6\pdl\cmsis/include/core_cm0plus.h ****   __IOM uint32_t RBAR;                   /*!< Offset: 0x00C (R/W)  MPU Region Base Address Register
 528:Generated_Source\PSoC6\pdl\cmsis/include/core_cm0plus.h ****   __IOM uint32_t RASR;                   /*!< Offset: 0x010 (R/W)  MPU Region Attribute and Size Re
 529:Generated_Source\PSoC6\pdl\cmsis/include/core_cm0plus.h **** } MPU_Type;
 530:Generated_Source\PSoC6\pdl\cmsis/include/core_cm0plus.h **** 
 531:Generated_Source\PSoC6\pdl\cmsis/include/core_cm0plus.h **** /* MPU Type Register Definitions */
 532:Generated_Source\PSoC6\pdl\cmsis/include/core_cm0plus.h **** #define MPU_TYPE_IREGION_Pos               16U                                            /*!< MPU 
 533:Generated_Source\PSoC6\pdl\cmsis/include/core_cm0plus.h **** #define MPU_TYPE_IREGION_Msk               (0xFFUL << MPU_TYPE_IREGION_Pos)               /*!< MPU 
 534:Generated_Source\PSoC6\pdl\cmsis/include/core_cm0plus.h **** 
 535:Generated_Source\PSoC6\pdl\cmsis/include/core_cm0plus.h **** #define MPU_TYPE_DREGION_Pos                8U                                            /*!< MPU 
 536:Generated_Source\PSoC6\pdl\cmsis/include/core_cm0plus.h **** #define MPU_TYPE_DREGION_Msk               (0xFFUL << MPU_TYPE_DREGION_Pos)               /*!< MPU 
 537:Generated_Source\PSoC6\pdl\cmsis/include/core_cm0plus.h **** 
 538:Generated_Source\PSoC6\pdl\cmsis/include/core_cm0plus.h **** #define MPU_TYPE_SEPARATE_Pos               0U                                            /*!< MPU 
 539:Generated_Source\PSoC6\pdl\cmsis/include/core_cm0plus.h **** #define MPU_TYPE_SEPARATE_Msk              (1UL /*<< MPU_TYPE_SEPARATE_Pos*/)             /*!< MPU 
 540:Generated_Source\PSoC6\pdl\cmsis/include/core_cm0plus.h **** 
 541:Generated_Source\PSoC6\pdl\cmsis/include/core_cm0plus.h **** /* MPU Control Register Definitions */
 542:Generated_Source\PSoC6\pdl\cmsis/include/core_cm0plus.h **** #define MPU_CTRL_PRIVDEFENA_Pos             2U                                            /*!< MPU 
 543:Generated_Source\PSoC6\pdl\cmsis/include/core_cm0plus.h **** #define MPU_CTRL_PRIVDEFENA_Msk            (1UL << MPU_CTRL_PRIVDEFENA_Pos)               /*!< MPU 
 544:Generated_Source\PSoC6\pdl\cmsis/include/core_cm0plus.h **** 
 545:Generated_Source\PSoC6\pdl\cmsis/include/core_cm0plus.h **** #define MPU_CTRL_HFNMIENA_Pos               1U                                            /*!< MPU 
 546:Generated_Source\PSoC6\pdl\cmsis/include/core_cm0plus.h **** #define MPU_CTRL_HFNMIENA_Msk              (1UL << MPU_CTRL_HFNMIENA_Pos)                 /*!< MPU 
 547:Generated_Source\PSoC6\pdl\cmsis/include/core_cm0plus.h **** 
 548:Generated_Source\PSoC6\pdl\cmsis/include/core_cm0plus.h **** #define MPU_CTRL_ENABLE_Pos                 0U                                            /*!< MPU 
 549:Generated_Source\PSoC6\pdl\cmsis/include/core_cm0plus.h **** #define MPU_CTRL_ENABLE_Msk                (1UL /*<< MPU_CTRL_ENABLE_Pos*/)               /*!< MPU 
 550:Generated_Source\PSoC6\pdl\cmsis/include/core_cm0plus.h **** 
 551:Generated_Source\PSoC6\pdl\cmsis/include/core_cm0plus.h **** /* MPU Region Number Register Definitions */
 552:Generated_Source\PSoC6\pdl\cmsis/include/core_cm0plus.h **** #define MPU_RNR_REGION_Pos                  0U                                            /*!< MPU 
 553:Generated_Source\PSoC6\pdl\cmsis/include/core_cm0plus.h **** #define MPU_RNR_REGION_Msk                 (0xFFUL /*<< MPU_RNR_REGION_Pos*/)             /*!< MPU 
 554:Generated_Source\PSoC6\pdl\cmsis/include/core_cm0plus.h **** 
 555:Generated_Source\PSoC6\pdl\cmsis/include/core_cm0plus.h **** /* MPU Region Base Address Register Definitions */
 556:Generated_Source\PSoC6\pdl\cmsis/include/core_cm0plus.h **** #define MPU_RBAR_ADDR_Pos                   8U                                            /*!< MPU 
ARM GAS  C:\Users\salaz\AppData\Local\Temp\ccnyouLe.s 			page 49


 557:Generated_Source\PSoC6\pdl\cmsis/include/core_cm0plus.h **** #define MPU_RBAR_ADDR_Msk                  (0xFFFFFFUL << MPU_RBAR_ADDR_Pos)              /*!< MPU 
 558:Generated_Source\PSoC6\pdl\cmsis/include/core_cm0plus.h **** 
 559:Generated_Source\PSoC6\pdl\cmsis/include/core_cm0plus.h **** #define MPU_RBAR_VALID_Pos                  4U                                            /*!< MPU 
 560:Generated_Source\PSoC6\pdl\cmsis/include/core_cm0plus.h **** #define MPU_RBAR_VALID_Msk                 (1UL << MPU_RBAR_VALID_Pos)                    /*!< MPU 
 561:Generated_Source\PSoC6\pdl\cmsis/include/core_cm0plus.h **** 
 562:Generated_Source\PSoC6\pdl\cmsis/include/core_cm0plus.h **** #define MPU_RBAR_REGION_Pos                 0U                                            /*!< MPU 
 563:Generated_Source\PSoC6\pdl\cmsis/include/core_cm0plus.h **** #define MPU_RBAR_REGION_Msk                (0xFUL /*<< MPU_RBAR_REGION_Pos*/)             /*!< MPU 
 564:Generated_Source\PSoC6\pdl\cmsis/include/core_cm0plus.h **** 
 565:Generated_Source\PSoC6\pdl\cmsis/include/core_cm0plus.h **** /* MPU Region Attribute and Size Register Definitions */
 566:Generated_Source\PSoC6\pdl\cmsis/include/core_cm0plus.h **** #define MPU_RASR_ATTRS_Pos                 16U                                            /*!< MPU 
 567:Generated_Source\PSoC6\pdl\cmsis/include/core_cm0plus.h **** #define MPU_RASR_ATTRS_Msk                 (0xFFFFUL << MPU_RASR_ATTRS_Pos)               /*!< MPU 
 568:Generated_Source\PSoC6\pdl\cmsis/include/core_cm0plus.h **** 
 569:Generated_Source\PSoC6\pdl\cmsis/include/core_cm0plus.h **** #define MPU_RASR_XN_Pos                    28U                                            /*!< MPU 
 570:Generated_Source\PSoC6\pdl\cmsis/include/core_cm0plus.h **** #define MPU_RASR_XN_Msk                    (1UL << MPU_RASR_XN_Pos)                       /*!< MPU 
 571:Generated_Source\PSoC6\pdl\cmsis/include/core_cm0plus.h **** 
 572:Generated_Source\PSoC6\pdl\cmsis/include/core_cm0plus.h **** #define MPU_RASR_AP_Pos                    24U                                            /*!< MPU 
 573:Generated_Source\PSoC6\pdl\cmsis/include/core_cm0plus.h **** #define MPU_RASR_AP_Msk                    (0x7UL << MPU_RASR_AP_Pos)                     /*!< MPU 
 574:Generated_Source\PSoC6\pdl\cmsis/include/core_cm0plus.h **** 
 575:Generated_Source\PSoC6\pdl\cmsis/include/core_cm0plus.h **** #define MPU_RASR_TEX_Pos                   19U                                            /*!< MPU 
 576:Generated_Source\PSoC6\pdl\cmsis/include/core_cm0plus.h **** #define MPU_RASR_TEX_Msk                   (0x7UL << MPU_RASR_TEX_Pos)                    /*!< MPU 
 577:Generated_Source\PSoC6\pdl\cmsis/include/core_cm0plus.h **** 
 578:Generated_Source\PSoC6\pdl\cmsis/include/core_cm0plus.h **** #define MPU_RASR_S_Pos                     18U                                            /*!< MPU 
 579:Generated_Source\PSoC6\pdl\cmsis/include/core_cm0plus.h **** #define MPU_RASR_S_Msk                     (1UL << MPU_RASR_S_Pos)                        /*!< MPU 
 580:Generated_Source\PSoC6\pdl\cmsis/include/core_cm0plus.h **** 
 581:Generated_Source\PSoC6\pdl\cmsis/include/core_cm0plus.h **** #define MPU_RASR_C_Pos                     17U                                            /*!< MPU 
 582:Generated_Source\PSoC6\pdl\cmsis/include/core_cm0plus.h **** #define MPU_RASR_C_Msk                     (1UL << MPU_RASR_C_Pos)                        /*!< MPU 
 583:Generated_Source\PSoC6\pdl\cmsis/include/core_cm0plus.h **** 
 584:Generated_Source\PSoC6\pdl\cmsis/include/core_cm0plus.h **** #define MPU_RASR_B_Pos                     16U                                            /*!< MPU 
 585:Generated_Source\PSoC6\pdl\cmsis/include/core_cm0plus.h **** #define MPU_RASR_B_Msk                     (1UL << MPU_RASR_B_Pos)                        /*!< MPU 
 586:Generated_Source\PSoC6\pdl\cmsis/include/core_cm0plus.h **** 
 587:Generated_Source\PSoC6\pdl\cmsis/include/core_cm0plus.h **** #define MPU_RASR_SRD_Pos                    8U                                            /*!< MPU 
 588:Generated_Source\PSoC6\pdl\cmsis/include/core_cm0plus.h **** #define MPU_RASR_SRD_Msk                   (0xFFUL << MPU_RASR_SRD_Pos)                   /*!< MPU 
 589:Generated_Source\PSoC6\pdl\cmsis/include/core_cm0plus.h **** 
 590:Generated_Source\PSoC6\pdl\cmsis/include/core_cm0plus.h **** #define MPU_RASR_SIZE_Pos                   1U                                            /*!< MPU 
 591:Generated_Source\PSoC6\pdl\cmsis/include/core_cm0plus.h **** #define MPU_RASR_SIZE_Msk                  (0x1FUL << MPU_RASR_SIZE_Pos)                  /*!< MPU 
 592:Generated_Source\PSoC6\pdl\cmsis/include/core_cm0plus.h **** 
 593:Generated_Source\PSoC6\pdl\cmsis/include/core_cm0plus.h **** #define MPU_RASR_ENABLE_Pos                 0U                                            /*!< MPU 
 594:Generated_Source\PSoC6\pdl\cmsis/include/core_cm0plus.h **** #define MPU_RASR_ENABLE_Msk                (1UL /*<< MPU_RASR_ENABLE_Pos*/)               /*!< MPU 
 595:Generated_Source\PSoC6\pdl\cmsis/include/core_cm0plus.h **** 
 596:Generated_Source\PSoC6\pdl\cmsis/include/core_cm0plus.h **** /*@} end of group CMSIS_MPU */
 597:Generated_Source\PSoC6\pdl\cmsis/include/core_cm0plus.h **** #endif
 598:Generated_Source\PSoC6\pdl\cmsis/include/core_cm0plus.h **** 
 599:Generated_Source\PSoC6\pdl\cmsis/include/core_cm0plus.h **** 
 600:Generated_Source\PSoC6\pdl\cmsis/include/core_cm0plus.h **** /**
 601:Generated_Source\PSoC6\pdl\cmsis/include/core_cm0plus.h ****   \ingroup  CMSIS_core_register
 602:Generated_Source\PSoC6\pdl\cmsis/include/core_cm0plus.h ****   \defgroup CMSIS_CoreDebug       Core Debug Registers (CoreDebug)
 603:Generated_Source\PSoC6\pdl\cmsis/include/core_cm0plus.h ****   \brief    Cortex-M0+ Core Debug Registers (DCB registers, SHCSR, and DFSR) are only accessible ov
 604:Generated_Source\PSoC6\pdl\cmsis/include/core_cm0plus.h ****             Therefore they are not covered by the Cortex-M0+ header file.
 605:Generated_Source\PSoC6\pdl\cmsis/include/core_cm0plus.h ****   @{
 606:Generated_Source\PSoC6\pdl\cmsis/include/core_cm0plus.h ****  */
 607:Generated_Source\PSoC6\pdl\cmsis/include/core_cm0plus.h **** /*@} end of group CMSIS_CoreDebug */
 608:Generated_Source\PSoC6\pdl\cmsis/include/core_cm0plus.h **** 
 609:Generated_Source\PSoC6\pdl\cmsis/include/core_cm0plus.h **** 
 610:Generated_Source\PSoC6\pdl\cmsis/include/core_cm0plus.h **** /**
 611:Generated_Source\PSoC6\pdl\cmsis/include/core_cm0plus.h ****   \ingroup    CMSIS_core_register
 612:Generated_Source\PSoC6\pdl\cmsis/include/core_cm0plus.h ****   \defgroup   CMSIS_core_bitfield     Core register bit field macros
 613:Generated_Source\PSoC6\pdl\cmsis/include/core_cm0plus.h ****   \brief      Macros for use with bit field definitions (xxx_Pos, xxx_Msk).
ARM GAS  C:\Users\salaz\AppData\Local\Temp\ccnyouLe.s 			page 50


 614:Generated_Source\PSoC6\pdl\cmsis/include/core_cm0plus.h ****   @{
 615:Generated_Source\PSoC6\pdl\cmsis/include/core_cm0plus.h ****  */
 616:Generated_Source\PSoC6\pdl\cmsis/include/core_cm0plus.h **** 
 617:Generated_Source\PSoC6\pdl\cmsis/include/core_cm0plus.h **** /**
 618:Generated_Source\PSoC6\pdl\cmsis/include/core_cm0plus.h ****   \brief   Mask and shift a bit field value for use in a register bit range.
 619:Generated_Source\PSoC6\pdl\cmsis/include/core_cm0plus.h ****   \param[in] field  Name of the register bit field.
 620:Generated_Source\PSoC6\pdl\cmsis/include/core_cm0plus.h ****   \param[in] value  Value of the bit field. This parameter is interpreted as an uint32_t type.
 621:Generated_Source\PSoC6\pdl\cmsis/include/core_cm0plus.h ****   \return           Masked and shifted value.
 622:Generated_Source\PSoC6\pdl\cmsis/include/core_cm0plus.h **** */
 623:Generated_Source\PSoC6\pdl\cmsis/include/core_cm0plus.h **** #define _VAL2FLD(field, value)    (((uint32_t)(value) << field ## _Pos) & field ## _Msk)
 624:Generated_Source\PSoC6\pdl\cmsis/include/core_cm0plus.h **** 
 625:Generated_Source\PSoC6\pdl\cmsis/include/core_cm0plus.h **** /**
 626:Generated_Source\PSoC6\pdl\cmsis/include/core_cm0plus.h ****   \brief     Mask and shift a register value to extract a bit filed value.
 627:Generated_Source\PSoC6\pdl\cmsis/include/core_cm0plus.h ****   \param[in] field  Name of the register bit field.
 628:Generated_Source\PSoC6\pdl\cmsis/include/core_cm0plus.h ****   \param[in] value  Value of register. This parameter is interpreted as an uint32_t type.
 629:Generated_Source\PSoC6\pdl\cmsis/include/core_cm0plus.h ****   \return           Masked and shifted bit field value.
 630:Generated_Source\PSoC6\pdl\cmsis/include/core_cm0plus.h **** */
 631:Generated_Source\PSoC6\pdl\cmsis/include/core_cm0plus.h **** #define _FLD2VAL(field, value)    (((uint32_t)(value) & field ## _Msk) >> field ## _Pos)
 632:Generated_Source\PSoC6\pdl\cmsis/include/core_cm0plus.h **** 
 633:Generated_Source\PSoC6\pdl\cmsis/include/core_cm0plus.h **** /*@} end of group CMSIS_core_bitfield */
 634:Generated_Source\PSoC6\pdl\cmsis/include/core_cm0plus.h **** 
 635:Generated_Source\PSoC6\pdl\cmsis/include/core_cm0plus.h **** 
 636:Generated_Source\PSoC6\pdl\cmsis/include/core_cm0plus.h **** /**
 637:Generated_Source\PSoC6\pdl\cmsis/include/core_cm0plus.h ****   \ingroup    CMSIS_core_register
 638:Generated_Source\PSoC6\pdl\cmsis/include/core_cm0plus.h ****   \defgroup   CMSIS_core_base     Core Definitions
 639:Generated_Source\PSoC6\pdl\cmsis/include/core_cm0plus.h ****   \brief      Definitions for base addresses, unions, and structures.
 640:Generated_Source\PSoC6\pdl\cmsis/include/core_cm0plus.h ****   @{
 641:Generated_Source\PSoC6\pdl\cmsis/include/core_cm0plus.h ****  */
 642:Generated_Source\PSoC6\pdl\cmsis/include/core_cm0plus.h **** 
 643:Generated_Source\PSoC6\pdl\cmsis/include/core_cm0plus.h **** /* Memory mapping of Core Hardware */
 644:Generated_Source\PSoC6\pdl\cmsis/include/core_cm0plus.h **** #define SCS_BASE            (0xE000E000UL)                            /*!< System Control Space Bas
 645:Generated_Source\PSoC6\pdl\cmsis/include/core_cm0plus.h **** #define SysTick_BASE        (SCS_BASE +  0x0010UL)                    /*!< SysTick Base Address */
 646:Generated_Source\PSoC6\pdl\cmsis/include/core_cm0plus.h **** #define NVIC_BASE           (SCS_BASE +  0x0100UL)                    /*!< NVIC Base Address */
 647:Generated_Source\PSoC6\pdl\cmsis/include/core_cm0plus.h **** #define SCB_BASE            (SCS_BASE +  0x0D00UL)                    /*!< System Control Block Bas
 648:Generated_Source\PSoC6\pdl\cmsis/include/core_cm0plus.h **** 
 649:Generated_Source\PSoC6\pdl\cmsis/include/core_cm0plus.h **** #define SCB                 ((SCB_Type       *)     SCB_BASE      )   /*!< SCB configuration struct
 650:Generated_Source\PSoC6\pdl\cmsis/include/core_cm0plus.h **** #define SysTick             ((SysTick_Type   *)     SysTick_BASE  )   /*!< SysTick configuration st
 651:Generated_Source\PSoC6\pdl\cmsis/include/core_cm0plus.h **** #define NVIC                ((NVIC_Type      *)     NVIC_BASE     )   /*!< NVIC configuration struc
 652:Generated_Source\PSoC6\pdl\cmsis/include/core_cm0plus.h **** 
 653:Generated_Source\PSoC6\pdl\cmsis/include/core_cm0plus.h **** #if defined (__MPU_PRESENT) && (__MPU_PRESENT == 1U)
 654:Generated_Source\PSoC6\pdl\cmsis/include/core_cm0plus.h ****   #define MPU_BASE          (SCS_BASE +  0x0D90UL)                    /*!< Memory Protection Unit *
 655:Generated_Source\PSoC6\pdl\cmsis/include/core_cm0plus.h ****   #define MPU               ((MPU_Type       *)     MPU_BASE      )   /*!< Memory Protection Unit *
 656:Generated_Source\PSoC6\pdl\cmsis/include/core_cm0plus.h **** #endif
 657:Generated_Source\PSoC6\pdl\cmsis/include/core_cm0plus.h **** 
 658:Generated_Source\PSoC6\pdl\cmsis/include/core_cm0plus.h **** /*@} */
 659:Generated_Source\PSoC6\pdl\cmsis/include/core_cm0plus.h **** 
 660:Generated_Source\PSoC6\pdl\cmsis/include/core_cm0plus.h **** 
 661:Generated_Source\PSoC6\pdl\cmsis/include/core_cm0plus.h **** 
 662:Generated_Source\PSoC6\pdl\cmsis/include/core_cm0plus.h **** /*******************************************************************************
 663:Generated_Source\PSoC6\pdl\cmsis/include/core_cm0plus.h ****  *                Hardware Abstraction Layer
 664:Generated_Source\PSoC6\pdl\cmsis/include/core_cm0plus.h ****   Core Function Interface contains:
 665:Generated_Source\PSoC6\pdl\cmsis/include/core_cm0plus.h ****   - Core NVIC Functions
 666:Generated_Source\PSoC6\pdl\cmsis/include/core_cm0plus.h ****   - Core SysTick Functions
 667:Generated_Source\PSoC6\pdl\cmsis/include/core_cm0plus.h ****   - Core Register Access Functions
 668:Generated_Source\PSoC6\pdl\cmsis/include/core_cm0plus.h ****  ******************************************************************************/
 669:Generated_Source\PSoC6\pdl\cmsis/include/core_cm0plus.h **** /**
 670:Generated_Source\PSoC6\pdl\cmsis/include/core_cm0plus.h ****   \defgroup CMSIS_Core_FunctionInterface Functions and Instructions Reference
ARM GAS  C:\Users\salaz\AppData\Local\Temp\ccnyouLe.s 			page 51


 671:Generated_Source\PSoC6\pdl\cmsis/include/core_cm0plus.h **** */
 672:Generated_Source\PSoC6\pdl\cmsis/include/core_cm0plus.h **** 
 673:Generated_Source\PSoC6\pdl\cmsis/include/core_cm0plus.h **** 
 674:Generated_Source\PSoC6\pdl\cmsis/include/core_cm0plus.h **** 
 675:Generated_Source\PSoC6\pdl\cmsis/include/core_cm0plus.h **** /* ##########################   NVIC functions  #################################### */
 676:Generated_Source\PSoC6\pdl\cmsis/include/core_cm0plus.h **** /**
 677:Generated_Source\PSoC6\pdl\cmsis/include/core_cm0plus.h ****   \ingroup  CMSIS_Core_FunctionInterface
 678:Generated_Source\PSoC6\pdl\cmsis/include/core_cm0plus.h ****   \defgroup CMSIS_Core_NVICFunctions NVIC Functions
 679:Generated_Source\PSoC6\pdl\cmsis/include/core_cm0plus.h ****   \brief    Functions that manage interrupts and exceptions via the NVIC.
 680:Generated_Source\PSoC6\pdl\cmsis/include/core_cm0plus.h ****   @{
 681:Generated_Source\PSoC6\pdl\cmsis/include/core_cm0plus.h ****  */
 682:Generated_Source\PSoC6\pdl\cmsis/include/core_cm0plus.h **** 
 683:Generated_Source\PSoC6\pdl\cmsis/include/core_cm0plus.h **** #ifndef CMSIS_NVIC_VIRTUAL
 684:Generated_Source\PSoC6\pdl\cmsis/include/core_cm0plus.h **** /*#define NVIC_SetPriorityGrouping    __NVIC_SetPriorityGrouping   not available for Cortex-M0+ */
 685:Generated_Source\PSoC6\pdl\cmsis/include/core_cm0plus.h **** /*#define NVIC_GetPriorityGrouping    __NVIC_GetPriorityGrouping   not available for Cortex-M0+ */
 686:Generated_Source\PSoC6\pdl\cmsis/include/core_cm0plus.h ****   #define NVIC_EnableIRQ              __NVIC_EnableIRQ
 687:Generated_Source\PSoC6\pdl\cmsis/include/core_cm0plus.h ****   #define NVIC_GetEnableIRQ           __NVIC_GetEnableIRQ
 688:Generated_Source\PSoC6\pdl\cmsis/include/core_cm0plus.h ****   #define NVIC_DisableIRQ             __NVIC_DisableIRQ
 689:Generated_Source\PSoC6\pdl\cmsis/include/core_cm0plus.h ****   #define NVIC_GetPendingIRQ          __NVIC_GetPendingIRQ
 690:Generated_Source\PSoC6\pdl\cmsis/include/core_cm0plus.h ****   #define NVIC_SetPendingIRQ          __NVIC_SetPendingIRQ
 691:Generated_Source\PSoC6\pdl\cmsis/include/core_cm0plus.h ****   #define NVIC_ClearPendingIRQ        __NVIC_ClearPendingIRQ
 692:Generated_Source\PSoC6\pdl\cmsis/include/core_cm0plus.h **** /*#define NVIC_GetActive              __NVIC_GetActive             not available for Cortex-M0+ */
 693:Generated_Source\PSoC6\pdl\cmsis/include/core_cm0plus.h ****   #define NVIC_SetPriority            __NVIC_SetPriority
 694:Generated_Source\PSoC6\pdl\cmsis/include/core_cm0plus.h ****   #define NVIC_GetPriority            __NVIC_GetPriority
 695:Generated_Source\PSoC6\pdl\cmsis/include/core_cm0plus.h **** #endif /* CMSIS_NVIC_VIRTUAL */
 696:Generated_Source\PSoC6\pdl\cmsis/include/core_cm0plus.h **** 
 697:Generated_Source\PSoC6\pdl\cmsis/include/core_cm0plus.h **** #ifndef CMSIS_VECTAB_VIRTUAL
 698:Generated_Source\PSoC6\pdl\cmsis/include/core_cm0plus.h ****   #define NVIC_SetVector              __NVIC_SetVector
 699:Generated_Source\PSoC6\pdl\cmsis/include/core_cm0plus.h ****   #define NVIC_GetVector              __NVIC_GetVector
 700:Generated_Source\PSoC6\pdl\cmsis/include/core_cm0plus.h **** #endif  /* (CMSIS_VECTAB_VIRTUAL) */
 701:Generated_Source\PSoC6\pdl\cmsis/include/core_cm0plus.h **** 
 702:Generated_Source\PSoC6\pdl\cmsis/include/core_cm0plus.h **** #define NVIC_USER_IRQ_OFFSET          16
 703:Generated_Source\PSoC6\pdl\cmsis/include/core_cm0plus.h **** 
 704:Generated_Source\PSoC6\pdl\cmsis/include/core_cm0plus.h **** 
 705:Generated_Source\PSoC6\pdl\cmsis/include/core_cm0plus.h **** /* Interrupt Priorities are WORD accessible only under ARMv6M                   */
 706:Generated_Source\PSoC6\pdl\cmsis/include/core_cm0plus.h **** /* The following MACROS handle generation of the register offset and byte masks */
 707:Generated_Source\PSoC6\pdl\cmsis/include/core_cm0plus.h **** #define _BIT_SHIFT(IRQn)         (  ((((uint32_t)(int32_t)(IRQn))         )      &  0x03UL) * 8UL)
 708:Generated_Source\PSoC6\pdl\cmsis/include/core_cm0plus.h **** #define _SHP_IDX(IRQn)           ( (((((uint32_t)(int32_t)(IRQn)) & 0x0FUL)-8UL) >>    2UL)      )
 709:Generated_Source\PSoC6\pdl\cmsis/include/core_cm0plus.h **** #define _IP_IDX(IRQn)            (   (((uint32_t)(int32_t)(IRQn))                >>    2UL)      )
 710:Generated_Source\PSoC6\pdl\cmsis/include/core_cm0plus.h **** 
 711:Generated_Source\PSoC6\pdl\cmsis/include/core_cm0plus.h **** 
 712:Generated_Source\PSoC6\pdl\cmsis/include/core_cm0plus.h **** /**
 713:Generated_Source\PSoC6\pdl\cmsis/include/core_cm0plus.h ****   \brief   Enable Interrupt
 714:Generated_Source\PSoC6\pdl\cmsis/include/core_cm0plus.h ****   \details Enables a device specific interrupt in the NVIC interrupt controller.
 715:Generated_Source\PSoC6\pdl\cmsis/include/core_cm0plus.h ****   \param [in]      IRQn  Device specific interrupt number.
 716:Generated_Source\PSoC6\pdl\cmsis/include/core_cm0plus.h ****   \note    IRQn must not be negative.
 717:Generated_Source\PSoC6\pdl\cmsis/include/core_cm0plus.h ****  */
 718:Generated_Source\PSoC6\pdl\cmsis/include/core_cm0plus.h **** __STATIC_INLINE void __NVIC_EnableIRQ(IRQn_Type IRQn)
 719:Generated_Source\PSoC6\pdl\cmsis/include/core_cm0plus.h **** {
 720:Generated_Source\PSoC6\pdl\cmsis/include/core_cm0plus.h ****   if ((int32_t)(IRQn) >= 0)
 721:Generated_Source\PSoC6\pdl\cmsis/include/core_cm0plus.h ****   {
 722:Generated_Source\PSoC6\pdl\cmsis/include/core_cm0plus.h ****     NVIC->ISER[0U] = (uint32_t)(1UL << (((uint32_t)(int32_t)IRQn) & 0x1FUL));
 723:Generated_Source\PSoC6\pdl\cmsis/include/core_cm0plus.h ****   }
 724:Generated_Source\PSoC6\pdl\cmsis/include/core_cm0plus.h **** }
 725:Generated_Source\PSoC6\pdl\cmsis/include/core_cm0plus.h **** 
 726:Generated_Source\PSoC6\pdl\cmsis/include/core_cm0plus.h **** 
 727:Generated_Source\PSoC6\pdl\cmsis/include/core_cm0plus.h **** /**
ARM GAS  C:\Users\salaz\AppData\Local\Temp\ccnyouLe.s 			page 52


 728:Generated_Source\PSoC6\pdl\cmsis/include/core_cm0plus.h ****   \brief   Get Interrupt Enable status
 729:Generated_Source\PSoC6\pdl\cmsis/include/core_cm0plus.h ****   \details Returns a device specific interrupt enable status from the NVIC interrupt controller.
 730:Generated_Source\PSoC6\pdl\cmsis/include/core_cm0plus.h ****   \param [in]      IRQn  Device specific interrupt number.
 731:Generated_Source\PSoC6\pdl\cmsis/include/core_cm0plus.h ****   \return             0  Interrupt is not enabled.
 732:Generated_Source\PSoC6\pdl\cmsis/include/core_cm0plus.h ****   \return             1  Interrupt is enabled.
 733:Generated_Source\PSoC6\pdl\cmsis/include/core_cm0plus.h ****   \note    IRQn must not be negative.
 734:Generated_Source\PSoC6\pdl\cmsis/include/core_cm0plus.h ****  */
 735:Generated_Source\PSoC6\pdl\cmsis/include/core_cm0plus.h **** __STATIC_INLINE uint32_t __NVIC_GetEnableIRQ(IRQn_Type IRQn)
 736:Generated_Source\PSoC6\pdl\cmsis/include/core_cm0plus.h **** {
 737:Generated_Source\PSoC6\pdl\cmsis/include/core_cm0plus.h ****   if ((int32_t)(IRQn) >= 0)
 738:Generated_Source\PSoC6\pdl\cmsis/include/core_cm0plus.h ****   {
 739:Generated_Source\PSoC6\pdl\cmsis/include/core_cm0plus.h ****     return((uint32_t)(((NVIC->ISER[0U] & (1UL << (((uint32_t)(int32_t)IRQn) & 0x1FUL))) != 0UL) ? 1
 740:Generated_Source\PSoC6\pdl\cmsis/include/core_cm0plus.h ****   }
 741:Generated_Source\PSoC6\pdl\cmsis/include/core_cm0plus.h ****   else
 742:Generated_Source\PSoC6\pdl\cmsis/include/core_cm0plus.h ****   {
 743:Generated_Source\PSoC6\pdl\cmsis/include/core_cm0plus.h ****     return(0U);
 744:Generated_Source\PSoC6\pdl\cmsis/include/core_cm0plus.h ****   }
 745:Generated_Source\PSoC6\pdl\cmsis/include/core_cm0plus.h **** }
 746:Generated_Source\PSoC6\pdl\cmsis/include/core_cm0plus.h **** 
 747:Generated_Source\PSoC6\pdl\cmsis/include/core_cm0plus.h **** 
 748:Generated_Source\PSoC6\pdl\cmsis/include/core_cm0plus.h **** /**
 749:Generated_Source\PSoC6\pdl\cmsis/include/core_cm0plus.h ****   \brief   Disable Interrupt
 750:Generated_Source\PSoC6\pdl\cmsis/include/core_cm0plus.h ****   \details Disables a device specific interrupt in the NVIC interrupt controller.
 751:Generated_Source\PSoC6\pdl\cmsis/include/core_cm0plus.h ****   \param [in]      IRQn  Device specific interrupt number.
 752:Generated_Source\PSoC6\pdl\cmsis/include/core_cm0plus.h ****   \note    IRQn must not be negative.
 753:Generated_Source\PSoC6\pdl\cmsis/include/core_cm0plus.h ****  */
 754:Generated_Source\PSoC6\pdl\cmsis/include/core_cm0plus.h **** __STATIC_INLINE void __NVIC_DisableIRQ(IRQn_Type IRQn)
 755:Generated_Source\PSoC6\pdl\cmsis/include/core_cm0plus.h **** {
 756:Generated_Source\PSoC6\pdl\cmsis/include/core_cm0plus.h ****   if ((int32_t)(IRQn) >= 0)
 757:Generated_Source\PSoC6\pdl\cmsis/include/core_cm0plus.h ****   {
 758:Generated_Source\PSoC6\pdl\cmsis/include/core_cm0plus.h ****     NVIC->ICER[0U] = (uint32_t)(1UL << (((uint32_t)(int32_t)IRQn) & 0x1FUL));
 759:Generated_Source\PSoC6\pdl\cmsis/include/core_cm0plus.h ****     __DSB();
 760:Generated_Source\PSoC6\pdl\cmsis/include/core_cm0plus.h ****     __ISB();
 761:Generated_Source\PSoC6\pdl\cmsis/include/core_cm0plus.h ****   }
 762:Generated_Source\PSoC6\pdl\cmsis/include/core_cm0plus.h **** }
 763:Generated_Source\PSoC6\pdl\cmsis/include/core_cm0plus.h **** 
 764:Generated_Source\PSoC6\pdl\cmsis/include/core_cm0plus.h **** 
 765:Generated_Source\PSoC6\pdl\cmsis/include/core_cm0plus.h **** /**
 766:Generated_Source\PSoC6\pdl\cmsis/include/core_cm0plus.h ****   \brief   Get Pending Interrupt
 767:Generated_Source\PSoC6\pdl\cmsis/include/core_cm0plus.h ****   \details Reads the NVIC pending register and returns the pending bit for the specified device spe
 768:Generated_Source\PSoC6\pdl\cmsis/include/core_cm0plus.h ****   \param [in]      IRQn  Device specific interrupt number.
 769:Generated_Source\PSoC6\pdl\cmsis/include/core_cm0plus.h ****   \return             0  Interrupt status is not pending.
 770:Generated_Source\PSoC6\pdl\cmsis/include/core_cm0plus.h ****   \return             1  Interrupt status is pending.
 771:Generated_Source\PSoC6\pdl\cmsis/include/core_cm0plus.h ****   \note    IRQn must not be negative.
 772:Generated_Source\PSoC6\pdl\cmsis/include/core_cm0plus.h ****  */
 773:Generated_Source\PSoC6\pdl\cmsis/include/core_cm0plus.h **** __STATIC_INLINE uint32_t __NVIC_GetPendingIRQ(IRQn_Type IRQn)
 774:Generated_Source\PSoC6\pdl\cmsis/include/core_cm0plus.h **** {
 775:Generated_Source\PSoC6\pdl\cmsis/include/core_cm0plus.h ****   if ((int32_t)(IRQn) >= 0)
 776:Generated_Source\PSoC6\pdl\cmsis/include/core_cm0plus.h ****   {
 777:Generated_Source\PSoC6\pdl\cmsis/include/core_cm0plus.h ****     return((uint32_t)(((NVIC->ISPR[0U] & (1UL << (((uint32_t)(int32_t)IRQn) & 0x1FUL))) != 0UL) ? 1
 778:Generated_Source\PSoC6\pdl\cmsis/include/core_cm0plus.h ****   }
 779:Generated_Source\PSoC6\pdl\cmsis/include/core_cm0plus.h ****   else
 780:Generated_Source\PSoC6\pdl\cmsis/include/core_cm0plus.h ****   {
 781:Generated_Source\PSoC6\pdl\cmsis/include/core_cm0plus.h ****     return(0U);
 782:Generated_Source\PSoC6\pdl\cmsis/include/core_cm0plus.h ****   }
 783:Generated_Source\PSoC6\pdl\cmsis/include/core_cm0plus.h **** }
 784:Generated_Source\PSoC6\pdl\cmsis/include/core_cm0plus.h **** 
ARM GAS  C:\Users\salaz\AppData\Local\Temp\ccnyouLe.s 			page 53


 785:Generated_Source\PSoC6\pdl\cmsis/include/core_cm0plus.h **** 
 786:Generated_Source\PSoC6\pdl\cmsis/include/core_cm0plus.h **** /**
 787:Generated_Source\PSoC6\pdl\cmsis/include/core_cm0plus.h ****   \brief   Set Pending Interrupt
 788:Generated_Source\PSoC6\pdl\cmsis/include/core_cm0plus.h ****   \details Sets the pending bit of a device specific interrupt in the NVIC pending register.
 789:Generated_Source\PSoC6\pdl\cmsis/include/core_cm0plus.h ****   \param [in]      IRQn  Device specific interrupt number.
 790:Generated_Source\PSoC6\pdl\cmsis/include/core_cm0plus.h ****   \note    IRQn must not be negative.
 791:Generated_Source\PSoC6\pdl\cmsis/include/core_cm0plus.h ****  */
 792:Generated_Source\PSoC6\pdl\cmsis/include/core_cm0plus.h **** __STATIC_INLINE void __NVIC_SetPendingIRQ(IRQn_Type IRQn)
 793:Generated_Source\PSoC6\pdl\cmsis/include/core_cm0plus.h **** {
 794:Generated_Source\PSoC6\pdl\cmsis/include/core_cm0plus.h ****   if ((int32_t)(IRQn) >= 0)
 542              		.loc 4 794 0
 543 026a 002A     		cmp	r2, #0
 544 026c 07DB     		blt	.L25
 795:Generated_Source\PSoC6\pdl\cmsis/include/core_cm0plus.h ****   {
 796:Generated_Source\PSoC6\pdl\cmsis/include/core_cm0plus.h ****     NVIC->ISPR[0U] = (uint32_t)(1UL << (((uint32_t)(int32_t)IRQn) & 0x1FUL));
 545              		.loc 4 796 0
 546 026e 1F23     		movs	r3, #31
 547 0270 1A40     		ands	r2, r3
 548              	.LVL57:
 549 0272 1E3B     		subs	r3, r3, #30
 550 0274 9340     		lsls	r3, r3, r2
 551 0276 8022     		movs	r2, #128
 552 0278 5200     		lsls	r2, r2, #1
 553 027a 4049     		ldr	r1, .L32+108
 554 027c 8B50     		str	r3, [r1, r2]
 555              	.L25:
 556              	.LVL58:
 557              	.LBE50:
 558              	.LBE49:
 559 027e 7B68     		ldr	r3, [r7, #4]
 560 0280 9D46     		mov	sp, r3
 561              	.LVL59:
 562              	.L22:
 563              	.LBE47:
 137:Transmission.c ****             }
 138:Transmission.c ****             else if(wrReqParam->handleValPair.attrHandle == CY_BLE_DEVICE_ERROR_LOG_CLEAR_LOG_CHAR_
 139:Transmission.c ****             {
 140:Transmission.c ****                 if(wrReqParam->handleValPair.value.val[0] == 0x01)
 141:Transmission.c ****                 {
 142:Transmission.c **** //                    ErrorLogService_AppHandler();
 143:Transmission.c ****                 }
 144:Transmission.c ****                 else if(wrReqParam->handleValPair.value.val[0] == 0x02)
 145:Transmission.c ****                 {
 146:Transmission.c **** //                    ErrorLogService_KinosHandler();
 147:Transmission.c ****                 }
 148:Transmission.c ****             }
 149:Transmission.c ****             else if(wrReqParam->handleValPair.attrHandle == CY_BLE_DEVICE_USE_PROFILE_CLEAR_LOG_CHA
 150:Transmission.c ****             {
 151:Transmission.c **** //                UseProfileService_Handler();
 152:Transmission.c ****             }
 153:Transmission.c ****             Cy_BLE_GATTS_WriteRsp(cy_ble_connHandle[0]);
 564              		.loc 1 153 0
 565 0282 3B4A     		ldr	r2, .L32+96
 566 0284 1378     		ldrb	r3, [r2]
 567 0286 5078     		ldrb	r0, [r2, #1]
 568 0288 0002     		lsls	r0, r0, #8
 569 028a 1843     		orrs	r0, r3
ARM GAS  C:\Users\salaz\AppData\Local\Temp\ccnyouLe.s 			page 54


 570 028c FFF7FEFF 		bl	Cy_BLE_GATTS_WriteRsp
 571              	.LVL60:
 154:Transmission.c ****             break;
 572              		.loc 1 154 0
 573 0290 22E0     		b	.L4
 574              	.LVL61:
 575              	.L9:
 576              	.LBE46:
 577              	.LBB51:
 155:Transmission.c ****         }
 156:Transmission.c ****         // Event occurs in response to bonding request by remote device (initiated in CY_BLE_EVT_GA
 157:Transmission.c ****         case CY_BLE_EVT_GAP_AUTH_REQ:
 158:Transmission.c ****         {           
 159:Transmission.c ****             cy_ble_configPtr->authInfo[CY_BLE_SECURITY_CONFIGURATION_0_INDEX].bdHandle = ((cy_stc_b
 578              		.loc 1 159 0
 579 0292 384B     		ldr	r3, .L32+100
 580 0294 1B68     		ldr	r3, [r3]
 581 0296 4A79     		ldrb	r2, [r1, #5]
 582 0298 596A     		ldr	r1, [r3, #36]
 583              	.LVL62:
 584 029a 4A71     		strb	r2, [r1, #5]
 160:Transmission.c ****             cy_en_ble_api_result_t apiResult = Cy_BLE_GAPP_AuthReqReply(&cy_ble_configPtr->authInfo
 585              		.loc 1 160 0
 586 029c 586A     		ldr	r0, [r3, #36]
 587              	.LVL63:
 588 029e FFF7FEFF 		bl	Cy_BLE_GAPP_AuthReqReply
 589              	.LVL64:
 161:Transmission.c ****             
 162:Transmission.c ****             // Remove oldest bonded device if bonded list full then re-reply 
 163:Transmission.c ****             if(apiResult != CY_BLE_SUCCESS)
 590              		.loc 1 163 0
 591 02a2 0028     		cmp	r0, #0
 592 02a4 18D0     		beq	.L4
 164:Transmission.c ****             {
 165:Transmission.c ****                 Cy_BLE_GAP_RemoveOldestDeviceFromBondedList();
 593              		.loc 1 165 0
 594 02a6 FFF7FEFF 		bl	Cy_BLE_GAP_RemoveOldestDeviceFromBondedList
 595              	.LVL65:
 166:Transmission.c ****                 apiResult = Cy_BLE_GAPP_AuthReqReply(&cy_ble_configPtr->authInfo[CY_BLE_SECURITY_CO
 596              		.loc 1 166 0
 597 02aa 324B     		ldr	r3, .L32+100
 598 02ac 1B68     		ldr	r3, [r3]
 599 02ae 586A     		ldr	r0, [r3, #36]
 600 02b0 FFF7FEFF 		bl	Cy_BLE_GAPP_AuthReqReply
 601              	.LVL66:
 602 02b4 10E0     		b	.L4
 603              	.LVL67:
 604              	.L2:
 605              	.LBE51:
 167:Transmission.c ****             }
 168:Transmission.c ****             break;
 169:Transmission.c ****         }
 170:Transmission.c ****         // Miscallaneous events
 171:Transmission.c ****         case CY_BLE_EVT_TIMEOUT:                        // 0x1001u
 172:Transmission.c ****         {
 173:Transmission.c ****             break;
 174:Transmission.c ****         }
ARM GAS  C:\Users\salaz\AppData\Local\Temp\ccnyouLe.s 			page 55


 175:Transmission.c ****         case CY_BLE_EVT_PENDING_FLASH_WRITE:            // 0x1004u
 176:Transmission.c ****         {
 177:Transmission.c ****             break;
 178:Transmission.c ****         }
 179:Transmission.c ****         case CY_BLE_EVT_LE_SET_EVENT_MASK_COMPLETE:     // 0x2004u
 180:Transmission.c ****         {
 181:Transmission.c ****             break;
 182:Transmission.c ****         }
 183:Transmission.c ****         case  CY_BLE_EVT_SET_DEVICE_ADDR_COMPLETE:      // 0x3002u
 184:Transmission.c ****         {
 185:Transmission.c ****             break;
 186:Transmission.c ****         }
 187:Transmission.c ****         case CY_BLE_EVT_SET_TX_PWR_COMPLETE:            // 0x3006u
 188:Transmission.c ****         {
 189:Transmission.c ****             break;
 190:Transmission.c ****         }
 191:Transmission.c ****         case CY_BLE_EVT_GAP_AUTH_COMPLETE:              // 0x4004u
 192:Transmission.c ****         {
 193:Transmission.c ****             break;
 194:Transmission.c ****         }
 195:Transmission.c ****         case CY_BLE_EVT_GAP_ENCRYPT_CHANGE:             // 0x4009u
 196:Transmission.c ****         {
 197:Transmission.c ****             break;
 198:Transmission.c ****         }
 199:Transmission.c ****         case CY_BLE_EVT_GAP_CONNECTION_UPDATE_COMPLETE: // 0x400au
 200:Transmission.c ****         {
 201:Transmission.c ****             break;
 202:Transmission.c ****         }
 203:Transmission.c ****         case CY_BLE_EVT_GAP_KEYINFO_EXCHNGE_CMPLT:      // 0x400cu
 204:Transmission.c ****         {
 205:Transmission.c ****             break;
 206:Transmission.c ****         }
 207:Transmission.c ****         case CY_BLE_EVT_GAP_SMP_NEGOTIATED_AUTH_INFO:   // 0x4012u
 208:Transmission.c ****         {
 209:Transmission.c ****             break;
 210:Transmission.c ****         }
 211:Transmission.c ****         case CY_BLE_EVT_GAP_DEVICE_ADDR_GEN_COMPLETE:   // 0x4013u
 212:Transmission.c ****         {
 213:Transmission.c ****             break;
 214:Transmission.c ****         }
 215:Transmission.c ****         case CY_BLE_EVT_GATT_DISCONNECT_IND:            // 0x5002u
 216:Transmission.c ****         {
 217:Transmission.c ****             break;
 218:Transmission.c ****         }
 219:Transmission.c ****         case CY_BLE_EVT_GATTS_XCNHG_MTU_REQ:            // 0x5003u
 220:Transmission.c ****         {
 221:Transmission.c ****             break;
 222:Transmission.c ****         }
 223:Transmission.c ****         case CY_BLE_EVT_GATTS_READ_CHAR_VAL_ACCESS_REQ: // 0x5017u
 224:Transmission.c ****         {
 225:Transmission.c ****             break;
 226:Transmission.c ****         }
 227:Transmission.c ****         default:
 228:Transmission.c ****         {
 229:Transmission.c ****             DEBUG_PRINTF("Ble Event: %lx \r\n", (unsigned long) eventCode);
 606              		.loc 1 229 0
 607 02b6 0100     		movs	r1, r0
ARM GAS  C:\Users\salaz\AppData\Local\Temp\ccnyouLe.s 			page 56


 608              	.LVL68:
 609 02b8 3148     		ldr	r0, .L32+112
 610              	.LVL69:
 611 02ba FFF7FEFF 		bl	printf
 612              	.LVL70:
 613              	.L26:
 614              	.LBB52:
 615              	.LBB53:
 731:Generated_Source\PSoC6\pdl\drivers/peripheral/scb/cy_scb_common.h **** }
 616              		.loc 3 731 0 discriminator 1
 617 02be 2A48     		ldr	r0, .L32+88
 618 02c0 8221     		movs	r1, #130
 619 02c2 8900     		lsls	r1, r1, #2
 620 02c4 4358     		ldr	r3, [r0, r1]
 621 02c6 DB05     		lsls	r3, r3, #23
 622 02c8 DA0D     		lsrs	r2, r3, #23
 623              	.LVL71:
 624              	.LBE53:
 625              	.LBE52:
 626              	.LBB54:
 627              	.LBB55:
 628              		.loc 3 750 0 discriminator 1
 629 02ca 4358     		ldr	r3, [r0, r1]
 630 02cc DB0B     		lsrs	r3, r3, #15
 631 02ce 0121     		movs	r1, #1
 632 02d0 0B40     		ands	r3, r1
 633              	.LVL72:
 634              	.LBE55:
 635              	.LBE54:
 230:Transmission.c ****             DEBUG_WAIT_UART_TX_COMPLETE();
 636              		.loc 1 230 0 discriminator 1
 637 02d2 9B18     		adds	r3, r3, r2
 638 02d4 002B     		cmp	r3, #0
 639 02d6 F2D1     		bne	.L26
 640              	.L4:
 231:Transmission.c ****             break;
 232:Transmission.c ****         }
 233:Transmission.c ****     }
 234:Transmission.c ****     if((was_advertising != is_advertising) || (was_connected != is_connected))
 641              		.loc 1 234 0
 642 02d8 0D4B     		ldr	r3, .L32
 643 02da 1B78     		ldrb	r3, [r3]
 644 02dc 9C42     		cmp	r4, r3
 645 02de 03D1     		bne	.L27
 646              		.loc 1 234 0 is_stmt 0 discriminator 1
 647 02e0 0B4B     		ldr	r3, .L32
 648 02e2 5B78     		ldrb	r3, [r3, #1]
 649 02e4 9D42     		cmp	r5, r3
 650 02e6 0CD0     		beq	.L1
 651              	.L27:
 235:Transmission.c ****     {
 236:Transmission.c ****         NVIC_SetPendingIRQ(AppControl_IRQ_cfg.intrSrc);
 652              		.loc 1 236 0 is_stmt 1
 653 02e8 234B     		ldr	r3, .L32+104
 654 02ea 0022     		movs	r2, #0
 655 02ec 9A5E     		ldrsh	r2, [r3, r2]
 656              	.LVL73:
ARM GAS  C:\Users\salaz\AppData\Local\Temp\ccnyouLe.s 			page 57


 657              	.LBB56:
 658              	.LBB57:
 794:Generated_Source\PSoC6\pdl\cmsis/include/core_cm0plus.h ****   {
 659              		.loc 4 794 0
 660 02ee 002A     		cmp	r2, #0
 661 02f0 07DB     		blt	.L1
 662              		.loc 4 796 0
 663 02f2 1F23     		movs	r3, #31
 664 02f4 1A40     		ands	r2, r3
 665              	.LVL74:
 666 02f6 1E3B     		subs	r3, r3, #30
 667 02f8 9340     		lsls	r3, r3, r2
 668 02fa 8022     		movs	r2, #128
 669 02fc 5200     		lsls	r2, r2, #1
 670 02fe 1F49     		ldr	r1, .L32+108
 671 0300 8B50     		str	r3, [r1, r2]
 672              	.LVL75:
 673              	.L1:
 674              	.LBE57:
 675              	.LBE56:
 237:Transmission.c ****     }
 238:Transmission.c **** }
 676              		.loc 1 238 0
 677 0302 BD46     		mov	sp, r7
 678 0304 0EB0     		add	sp, sp, #56
 679              		@ sp needed
 680              	.LVL76:
 681              	.LVL77:
 682 0306 1CBC     		pop	{r2, r3, r4}
 683 0308 9046     		mov	r8, r2
 684 030a 9946     		mov	r9, r3
 685 030c A246     		mov	r10, r4
 686 030e F0BD     		pop	{r4, r5, r6, r7, pc}
 687              	.L33:
 688              		.align	2
 689              	.L32:
 690 0310 00000000 		.word	.LANCHOR0
 691 0314 0A400000 		.word	16394
 692 0318 09400000 		.word	16393
 693 031c 02300000 		.word	12290
 694 0320 01100000 		.word	4097
 695 0324 04100000 		.word	4100
 696 0328 04200000 		.word	8196
 697 032c 04400000 		.word	16388
 698 0330 06300000 		.word	12294
 699 0334 01400000 		.word	16385
 700 0338 06400000 		.word	16390
 701 033c 08400000 		.word	16392
 702 0340 01500000 		.word	20481
 703 0344 10400000 		.word	16400
 704 0348 0C400000 		.word	16396
 705 034c EEBFFFFF 		.word	-16402
 706 0350 0C500000 		.word	20492
 707 0354 03500000 		.word	20483
 708 0358 17500000 		.word	20503
 709 035c F5260000 		.word	9973
 710 0360 00000000 		.word	cy_ble_advState
ARM GAS  C:\Users\salaz\AppData\Local\Temp\ccnyouLe.s 			page 58


 711 0364 00000000 		.word	.LC2
 712 0368 00006640 		.word	1080426496
 713 036c 00000000 		.word	.LANCHOR1
 714 0370 00000000 		.word	cy_ble_connHandle
 715 0374 00000000 		.word	cy_ble_configPtr
 716 0378 00000000 		.word	AppControl_IRQ_cfg
 717 037c 00E100E0 		.word	-536813312
 718 0380 30000000 		.word	.LC8
 719              		.cfi_endproc
 720              	.LFE792:
 721              		.size	Transmission_EventHandler, .-Transmission_EventHandler
 722              		.section	.text.Transmission_BleSsHandler,"ax",%progbits
 723              		.align	2
 724              		.global	Transmission_BleSsHandler
 725              		.code	16
 726              		.thumb_func
 727              		.type	Transmission_BleSsHandler, %function
 728              	Transmission_BleSsHandler:
 729              	.LFB793:
 239:Transmission.c **** void Transmission_BleSsHandler()
 240:Transmission.c **** {
 730              		.loc 1 240 0
 731              		.cfi_startproc
 732              		@ args = 0, pretend = 0, frame = 16
 733              		@ frame_needed = 0, uses_anonymous_args = 0
 734 0000 00B5     		push	{lr}
 735              		.cfi_def_cfa_offset 4
 736              		.cfi_offset 14, -4
 737 0002 85B0     		sub	sp, sp, #20
 738              		.cfi_def_cfa_offset 24
 241:Transmission.c ****     // Check for pending bluetooth events, triggers Transmission_EventHandler()
 242:Transmission.c ****     Cy_BLE_ProcessEvents();
 739              		.loc 1 242 0
 740 0004 FFF7FEFF 		bl	Cy_BLE_ProcessEvents
 741              	.LVL78:
 243:Transmission.c ****     
 244:Transmission.c ****     // Send data to remote device if data available in buffer
 245:Transmission.c ****     static uint8 data[NUM_BYTES_PER_PACKET];
 246:Transmission.c ****     if(is_connected)
 742              		.loc 1 246 0
 743 0008 164B     		ldr	r3, .L37
 744 000a 5B78     		ldrb	r3, [r3, #1]
 745 000c 002B     		cmp	r3, #0
 746 000e 21D0     		beq	.L35
 247:Transmission.c ****     {
 248:Transmission.c ****         if(Cy_BLE_GATT_GetBusyStatus(cy_ble_connHandle[0].attId) == CY_BLE_STACK_STATE_FREE)
 747              		.loc 1 248 0
 748 0010 154B     		ldr	r3, .L37+4
 749 0012 5B78     		ldrb	r3, [r3, #1]
 750 0014 154A     		ldr	r2, .L37+8
 751 0016 D35C     		ldrb	r3, [r2, r3]
 752 0018 002B     		cmp	r3, #0
 753 001a 1BD1     		bne	.L35
 249:Transmission.c ****         {      
 250:Transmission.c ****             if(TxBuffer_BufferToMemory(NUM_BYTES_PER_PACKET,(uint8*)&data))
 754              		.loc 1 250 0
 755 001c 1149     		ldr	r1, .L37
ARM GAS  C:\Users\salaz\AppData\Local\Temp\ccnyouLe.s 			page 59


 756 001e 0431     		adds	r1, r1, #4
 757 0020 0120     		movs	r0, #1
 758 0022 FFF7FEFF 		bl	TxBuffer_BufferToMemory
 759              	.LVL79:
 760 0026 0028     		cmp	r0, #0
 761 0028 14D0     		beq	.L35
 762              	.LBB58:
 251:Transmission.c ****             {
 252:Transmission.c ****                 cy_stc_ble_gatts_handle_value_ntf_t ntfHandle =
 763              		.loc 1 252 0
 764 002a 1022     		movs	r2, #16
 765 002c 0021     		movs	r1, #0
 766 002e 6846     		mov	r0, sp
 767 0030 FFF7FEFF 		bl	memset
 768              	.LVL80:
 769 0034 0B4B     		ldr	r3, .L37
 770 0036 0433     		adds	r3, r3, #4
 771 0038 0093     		str	r3, [sp]
 772 003a 0123     		movs	r3, #1
 773 003c 6A46     		mov	r2, sp
 774 003e 9380     		strh	r3, [r2, #4]
 775 0040 1333     		adds	r3, r3, #19
 776 0042 1381     		strh	r3, [r2, #8]
 777 0044 0222     		movs	r2, #2
 778 0046 0849     		ldr	r1, .L37+4
 779 0048 03A8     		add	r0, sp, #12
 780 004a FFF7FEFF 		bl	memcpy
 781              	.LVL81:
 253:Transmission.c ****                 {
 254:Transmission.c ****                     .connHandle = cy_ble_connHandle[0],
 255:Transmission.c ****                     .handleValPair.attrHandle = CY_BLE_DEVICE_INTERFACE_OUTBOUND_CHAR_HANDLE,
 256:Transmission.c ****                     .handleValPair.value.val = (uint8*)data,
 257:Transmission.c ****                     .handleValPair.value.len = (NUM_BYTES_PER_PACKET)*sizeof(uint8)
 258:Transmission.c ****                 };
 259:Transmission.c ****                 Cy_BLE_GATTS_Notification(&ntfHandle);
 782              		.loc 1 259 0
 783 004e 6846     		mov	r0, sp
 784 0050 FFF7FEFF 		bl	Cy_BLE_GATTS_Notification
 785              	.LVL82:
 786              	.L35:
 787              	.LBE58:
 260:Transmission.c ****             }
 261:Transmission.c ****         }
 262:Transmission.c ****     }
 263:Transmission.c ****     
 264:Transmission.c ****     // Bond remote device's information into flash (initiated in CY_BLE_EVT_GAP_AUTH_REQ)
 265:Transmission.c ****     if(cy_ble_pendingFlashWrite != 0u)
 788              		.loc 1 265 0
 789 0054 064B     		ldr	r3, .L37+12
 790 0056 1B78     		ldrb	r3, [r3]
 791 0058 002B     		cmp	r3, #0
 792 005a 01D0     		beq	.L34
 793              	.LBB59:
 266:Transmission.c ****     {   
 267:Transmission.c ****         cy_en_ble_api_result_t apiResult = Cy_BLE_StoreBondingData();
 794              		.loc 1 267 0
 795 005c FFF7FEFF 		bl	Cy_BLE_StoreBondingData
ARM GAS  C:\Users\salaz\AppData\Local\Temp\ccnyouLe.s 			page 60


 796              	.LVL83:
 797              	.L34:
 798              	.LBE59:
 268:Transmission.c ****     }
 269:Transmission.c **** }
 799              		.loc 1 269 0
 800 0060 05B0     		add	sp, sp, #20
 801              		@ sp needed
 802 0062 00BD     		pop	{pc}
 803              	.L38:
 804              		.align	2
 805              	.L37:
 806 0064 00000000 		.word	.LANCHOR0
 807 0068 00000000 		.word	cy_ble_connHandle
 808 006c 00000000 		.word	cy_ble_busyStatus
 809 0070 00000000 		.word	cy_ble_pendingFlashWrite
 810              		.cfi_endproc
 811              	.LFE793:
 812              		.size	Transmission_BleSsHandler, .-Transmission_BleSsHandler
 813              		.section	.text.Transmission_CheckInbox,"ax",%progbits
 814              		.align	2
 815              		.global	Transmission_CheckInbox
 816              		.code	16
 817              		.thumb_func
 818              		.type	Transmission_CheckInbox, %function
 819              	Transmission_CheckInbox:
 820              	.LFB794:
 270:Transmission.c **** //-------------------------------------------------------------//
 271:Transmission.c **** //---------------------INBOUND-SERIAL-DATA---------------------//
 272:Transmission.c **** //-------------------------------------------------------------//
 273:Transmission.c **** 
 274:Transmission.c **** bool Transmission_CheckInbox(uint32 num_bytes, uint8 *data)
 275:Transmission.c **** {
 821              		.loc 1 275 0
 822              		.cfi_startproc
 823              		@ args = 0, pretend = 0, frame = 0
 824              		@ frame_needed = 0, uses_anonymous_args = 0
 825              	.LVL84:
 826 0000 10B5     		push	{r4, lr}
 827              		.cfi_def_cfa_offset 8
 828              		.cfi_offset 4, -8
 829              		.cfi_offset 14, -4
 276:Transmission.c ****     return RxBuffer_BufferToMemory(num_bytes, data);
 830              		.loc 1 276 0
 831 0002 FFF7FEFF 		bl	RxBuffer_BufferToMemory
 832              	.LVL85:
 277:Transmission.c **** }
 833              		.loc 1 277 0
 834              		@ sp needed
 835 0006 10BD     		pop	{r4, pc}
 836              		.cfi_endproc
 837              	.LFE794:
 838              		.size	Transmission_CheckInbox, .-Transmission_CheckInbox
 839              		.section	.text.Transmission_SendResult,"ax",%progbits
 840              		.align	2
 841              		.global	Transmission_SendResult
 842              		.code	16
ARM GAS  C:\Users\salaz\AppData\Local\Temp\ccnyouLe.s 			page 61


 843              		.thumb_func
 844              		.type	Transmission_SendResult, %function
 845              	Transmission_SendResult:
 846              	.LFB795:
 278:Transmission.c **** //-------------------------------------------------------------//
 279:Transmission.c **** //--------------------OUTBOUND-SERIAL-DATA---------------------//
 280:Transmission.c **** //-------------------------------------------------------------//
 281:Transmission.c **** 
 282:Transmission.c **** bool Transmission_SendResult(uint32 num_bytes, uint8 *data)
 283:Transmission.c **** {
 847              		.loc 1 283 0
 848              		.cfi_startproc
 849              		@ args = 0, pretend = 0, frame = 0
 850              		@ frame_needed = 0, uses_anonymous_args = 0
 851              	.LVL86:
 852 0000 10B5     		push	{r4, lr}
 853              		.cfi_def_cfa_offset 8
 854              		.cfi_offset 4, -8
 855              		.cfi_offset 14, -4
 284:Transmission.c ****     return TxBuffer_MemoryToBuffer(num_bytes, data);
 856              		.loc 1 284 0
 857 0002 FFF7FEFF 		bl	TxBuffer_MemoryToBuffer
 858              	.LVL87:
 285:Transmission.c **** }
 859              		.loc 1 285 0
 860              		@ sp needed
 861 0006 10BD     		pop	{r4, pc}
 862              		.cfi_endproc
 863              	.LFE795:
 864              		.size	Transmission_SendResult, .-Transmission_SendResult
 865              		.global	__aeabi_uidiv
 866              		.section	.text.Transmission_Advertise,"ax",%progbits
 867              		.align	2
 868              		.global	Transmission_Advertise
 869              		.code	16
 870              		.thumb_func
 871              		.type	Transmission_Advertise, %function
 872              	Transmission_Advertise:
 873              	.LFB796:
 286:Transmission.c **** //-------------------------------------------------------------//
 287:Transmission.c **** //----------------------CUSTOM-ADVERTISING---------------------//
 288:Transmission.c **** //-------------------------------------------------------------//
 289:Transmission.c **** 
 290:Transmission.c **** bool Transmission_Advertise(uint16 timeout_s, uint16 interval_ms)
 291:Transmission.c **** {
 874              		.loc 1 291 0
 875              		.cfi_startproc
 876              		@ args = 0, pretend = 0, frame = 0
 877              		@ frame_needed = 0, uses_anonymous_args = 0
 878              	.LVL88:
 879 0000 70B5     		push	{r4, r5, r6, lr}
 880              		.cfi_def_cfa_offset 16
 881              		.cfi_offset 4, -16
 882              		.cfi_offset 5, -12
 883              		.cfi_offset 6, -8
 884              		.cfi_offset 14, -4
 885 0002 0500     		movs	r5, r0
ARM GAS  C:\Users\salaz\AppData\Local\Temp\ccnyouLe.s 			page 62


 886 0004 0C00     		movs	r4, r1
 292:Transmission.c ****     if(interval_ms < 20) return false; // Interval limit set by Cypress
 887              		.loc 1 292 0
 888 0006 1329     		cmp	r1, #19
 889 0008 2AD9     		bls	.L44
 293:Transmission.c ****     if(timeout_s < (interval_ms/1000)) return false;
 890              		.loc 1 293 0
 891 000a FA21     		movs	r1, #250
 892              	.LVL89:
 893 000c 8900     		lsls	r1, r1, #2
 894 000e 2000     		movs	r0, r4
 895              	.LVL90:
 896 0010 FFF7FEFF 		bl	__aeabi_uidiv
 897              	.LVL91:
 898 0014 80B2     		uxth	r0, r0
 899 0016 A842     		cmp	r0, r5
 900 0018 24D8     		bhi	.L45
 294:Transmission.c ****     
 295:Transmission.c ****     if(!is_connected && !is_advertising)
 901              		.loc 1 295 0
 902 001a 134B     		ldr	r3, .L46
 903 001c 5B78     		ldrb	r3, [r3, #1]
 904 001e 002B     		cmp	r3, #0
 905 0020 1BD1     		bne	.L43
 906              		.loc 1 295 0 is_stmt 0 discriminator 1
 907 0022 114B     		ldr	r3, .L46
 908 0024 1B78     		ldrb	r3, [r3]
 909 0026 002B     		cmp	r3, #0
 910 0028 17D1     		bne	.L43
 911              	.LBB60:
 296:Transmission.c ****     {
 297:Transmission.c ****         uint32 interval = ((uint32)interval_ms*1000)/625;
 912              		.loc 1 297 0 is_stmt 1
 913 002a FA20     		movs	r0, #250
 914 002c 8000     		lsls	r0, r0, #2
 915 002e 6043     		muls	r0, r4
 916 0030 0E49     		ldr	r1, .L46+4
 917 0032 FFF7FEFF 		bl	__aeabi_uidiv
 918              	.LVL92:
 298:Transmission.c ****         
 299:Transmission.c ****         cy_ble_config.discoveryModeInfo->advTo = timeout_s;
 919              		.loc 1 299 0
 920 0036 0E4B     		ldr	r3, .L46+8
 921 0038 1A68     		ldr	r2, [r3]
 922 003a 1582     		strh	r5, [r2, #16]
 300:Transmission.c ****         cy_ble_config.discoveryModeInfo->advParam->advIntvMin = (uint16)interval;
 923              		.loc 1 300 0
 924 003c 5268     		ldr	r2, [r2, #4]
 925 003e 80B2     		uxth	r0, r0
 926              	.LVL93:
 927 0040 1080     		strh	r0, [r2]
 301:Transmission.c ****         cy_ble_config.discoveryModeInfo->advParam->advIntvMax = (uint16)interval+1;
 928              		.loc 1 301 0
 929 0042 1B68     		ldr	r3, [r3]
 930 0044 5B68     		ldr	r3, [r3, #4]
 931 0046 0130     		adds	r0, r0, #1
 932 0048 5880     		strh	r0, [r3, #2]
ARM GAS  C:\Users\salaz\AppData\Local\Temp\ccnyouLe.s 			page 63


 302:Transmission.c ****         
 303:Transmission.c ****         cy_en_ble_api_result_t apiResult = Cy_BLE_GAPP_StartAdvertisement(CY_BLE_ADVERTISING_CUSTOM
 933              		.loc 1 303 0
 934 004a 0021     		movs	r1, #0
 935 004c 0220     		movs	r0, #2
 936 004e FFF7FEFF 		bl	Cy_BLE_GAPP_StartAdvertisement
 937              	.LVL94:
 304:Transmission.c ****         if(apiResult == CY_BLE_SUCCESS)
 938              		.loc 1 304 0
 939 0052 0028     		cmp	r0, #0
 940 0054 01D1     		bne	.L43
 305:Transmission.c ****         {
 306:Transmission.c ****             Cy_BLE_ProcessEvents();
 941              		.loc 1 306 0
 942 0056 FFF7FEFF 		bl	Cy_BLE_ProcessEvents
 943              	.LVL95:
 944              	.L43:
 945              	.LBE60:
 307:Transmission.c ****         }
 308:Transmission.c ****         else
 309:Transmission.c ****         {
 310:Transmission.c ****             // Throw error
 311:Transmission.c ****         }
 312:Transmission.c ****     }
 313:Transmission.c ****     return is_advertising;
 946              		.loc 1 313 0
 947 005a 034B     		ldr	r3, .L46
 948 005c 1878     		ldrb	r0, [r3]
 949 005e 02E0     		b	.L42
 950              	.LVL96:
 951              	.L44:
 292:Transmission.c ****     if(timeout_s < (interval_ms/1000)) return false;
 952              		.loc 1 292 0
 953 0060 0020     		movs	r0, #0
 954              	.LVL97:
 955 0062 00E0     		b	.L42
 956              	.LVL98:
 957              	.L45:
 293:Transmission.c ****     
 958              		.loc 1 293 0
 959 0064 0020     		movs	r0, #0
 960              	.L42:
 314:Transmission.c **** }
 961              		.loc 1 314 0
 962              		@ sp needed
 963 0066 70BD     		pop	{r4, r5, r6, pc}
 964              	.L47:
 965              		.align	2
 966              	.L46:
 967 0068 00000000 		.word	.LANCHOR0
 968 006c 71020000 		.word	625
 969 0070 00000000 		.word	cy_ble_config
 970              		.cfi_endproc
 971              	.LFE796:
 972              		.size	Transmission_Advertise, .-Transmission_Advertise
 973              		.section	.text.Transmission_Disconnect,"ax",%progbits
 974              		.align	2
ARM GAS  C:\Users\salaz\AppData\Local\Temp\ccnyouLe.s 			page 64


 975              		.global	Transmission_Disconnect
 976              		.code	16
 977              		.thumb_func
 978              		.type	Transmission_Disconnect, %function
 979              	Transmission_Disconnect:
 980              	.LFB797:
 315:Transmission.c **** bool Transmission_Disconnect()
 316:Transmission.c **** {
 981              		.loc 1 316 0
 982              		.cfi_startproc
 983              		@ args = 0, pretend = 0, frame = 8
 984              		@ frame_needed = 0, uses_anonymous_args = 0
 985 0000 00B5     		push	{lr}
 986              		.cfi_def_cfa_offset 4
 987              		.cfi_offset 14, -4
 988 0002 83B0     		sub	sp, sp, #12
 989              		.cfi_def_cfa_offset 16
 317:Transmission.c ****     cy_stc_ble_gap_disconnect_info_t disconnectInfo =
 990              		.loc 1 317 0
 991 0004 01A8     		add	r0, sp, #4
 992 0006 1323     		movs	r3, #19
 993 0008 0370     		strb	r3, [r0]
 318:Transmission.c ****     {
 319:Transmission.c ****         .reason = 0x13,
 320:Transmission.c ****         .bdHandle = cy_ble_connHandle[0].bdHandle
 994              		.loc 1 320 0
 995 000a 054B     		ldr	r3, .L49
 996 000c 1B78     		ldrb	r3, [r3]
 317:Transmission.c ****     cy_stc_ble_gap_disconnect_info_t disconnectInfo =
 997              		.loc 1 317 0
 998 000e 4370     		strb	r3, [r0, #1]
 321:Transmission.c ****     };
 322:Transmission.c ****     return (Cy_BLE_GAP_Disconnect(&disconnectInfo) == CY_BLE_SUCCESS);
 999              		.loc 1 322 0
 1000 0010 FFF7FEFF 		bl	Cy_BLE_GAP_Disconnect
 1001              	.LVL99:
 1002 0014 4342     		rsbs	r3, r0, #0
 1003 0016 5841     		adcs	r0, r0, r3
 1004 0018 C0B2     		uxtb	r0, r0
 323:Transmission.c **** }
 1005              		.loc 1 323 0
 1006 001a 03B0     		add	sp, sp, #12
 1007              		@ sp needed
 1008 001c 00BD     		pop	{pc}
 1009              	.L50:
 1010 001e C046     		.align	2
 1011              	.L49:
 1012 0020 00000000 		.word	cy_ble_connHandle
 1013              		.cfi_endproc
 1014              	.LFE797:
 1015              		.size	Transmission_Disconnect, .-Transmission_Disconnect
 1016              		.section	.text.Transmission_SendAcc,"ax",%progbits
 1017              		.align	2
 1018              		.global	Transmission_SendAcc
 1019              		.code	16
 1020              		.thumb_func
 1021              		.type	Transmission_SendAcc, %function
ARM GAS  C:\Users\salaz\AppData\Local\Temp\ccnyouLe.s 			page 65


 1022              	Transmission_SendAcc:
 1023              	.LFB798:
 324:Transmission.c **** 
 325:Transmission.c **** void Transmission_SendAcc(acc_sample acc_data)
 326:Transmission.c **** {
 1024              		.loc 1 326 0
 1025              		.cfi_startproc
 1026              		@ args = 32, pretend = 16, frame = 72
 1027              		@ frame_needed = 0, uses_anonymous_args = 0
 1028 0000 84B0     		sub	sp, sp, #16
 1029              		.cfi_def_cfa_offset 16
 1030 0002 F0B5     		push	{r4, r5, r6, r7, lr}
 1031              		.cfi_def_cfa_offset 36
 1032              		.cfi_offset 4, -36
 1033              		.cfi_offset 5, -32
 1034              		.cfi_offset 6, -28
 1035              		.cfi_offset 7, -24
 1036              		.cfi_offset 14, -20
 1037 0004 4746     		mov	r7, r8
 1038 0006 80B4     		push	{r7}
 1039              		.cfi_def_cfa_offset 40
 1040              		.cfi_offset 8, -40
 1041 0008 92B0     		sub	sp, sp, #72
 1042              		.cfi_def_cfa_offset 112
 1043 000a 1890     		str	r0, [sp, #96]
 1044 000c 1991     		str	r1, [sp, #100]
 1045 000e 1A92     		str	r2, [sp, #104]
 1046 0010 1B93     		str	r3, [sp, #108]
 327:Transmission.c ****     // Check for pending bluetooth events, triggers Transmission_EventHandler()
 328:Transmission.c ****     Cy_BLE_ProcessEvents();
 1047              		.loc 1 328 0
 1048 0012 FFF7FEFF 		bl	Cy_BLE_ProcessEvents
 1049              	.LVL100:
 329:Transmission.c ****     
 330:Transmission.c ****     // Send data to remote device if data available in buffer
 331:Transmission.c ****     static uint8 data[NUM_BYTES_PER_PACKET];
 332:Transmission.c ****     if(is_connected)
 1050              		.loc 1 332 0
 1051 0016 334B     		ldr	r3, .L54
 1052 0018 5B78     		ldrb	r3, [r3, #1]
 1053 001a 002B     		cmp	r3, #0
 1054 001c 55D0     		beq	.L52
 333:Transmission.c ****     {
 334:Transmission.c ****         if(Cy_BLE_GATT_GetBusyStatus(cy_ble_connHandle[0].attId) == CY_BLE_STACK_STATE_FREE)
 1055              		.loc 1 334 0
 1056 001e 324B     		ldr	r3, .L54+4
 1057 0020 5B78     		ldrb	r3, [r3, #1]
 1058 0022 324A     		ldr	r2, .L54+8
 1059 0024 D35C     		ldrb	r3, [r2, r3]
 1060 0026 002B     		cmp	r3, #0
 1061 0028 4FD1     		bne	.L52
 1062              	.LBB61:
 335:Transmission.c ****         {   
 336:Transmission.c ****             uint8 x_val[2] = { (uint8) (acc_data.x_raw >> 8), (uint8) (acc_data.x_raw & 0xFF)};
 1063              		.loc 1 336 0
 1064 002a 18AB     		add	r3, sp, #96
 1065 002c 1022     		movs	r2, #16
ARM GAS  C:\Users\salaz\AppData\Local\Temp\ccnyouLe.s 			page 66


 1066 002e 9B5E     		ldrsh	r3, [r3, r2]
 1067 0030 1A12     		asrs	r2, r3, #8
 1068 0032 6946     		mov	r1, sp
 1069 0034 0A70     		strb	r2, [r1]
 1070 0036 4B70     		strb	r3, [r1, #1]
 337:Transmission.c ****             uint8 y_val[2] = { (uint8) (acc_data.y_raw >> 8), (uint8) (acc_data.y_raw & 0xFF)};
 1071              		.loc 1 337 0
 1072 0038 18AB     		add	r3, sp, #96
 1073 003a 1222     		movs	r2, #18
 1074 003c 9B5E     		ldrsh	r3, [r3, r2]
 1075 003e 1A12     		asrs	r2, r3, #8
 1076 0040 01AC     		add	r4, sp, #4
 1077 0042 2270     		strb	r2, [r4]
 1078 0044 6370     		strb	r3, [r4, #1]
 338:Transmission.c ****             uint8 z_val[2] = { (uint8) (acc_data.z_raw >> 8), (uint8) (acc_data.z_raw & 0xFF)};
 1079              		.loc 1 338 0
 1080 0046 18AB     		add	r3, sp, #96
 1081 0048 1422     		movs	r2, #20
 1082 004a 9B5E     		ldrsh	r3, [r3, r2]
 1083 004c 1A12     		asrs	r2, r3, #8
 1084 004e 02AF     		add	r7, sp, #8
 1085 0050 3A70     		strb	r2, [r7]
 1086 0052 7B70     		strb	r3, [r7, #1]
 339:Transmission.c ****             
 340:Transmission.c ****             cy_stc_ble_gatt_value_t x_data = { .val = x_val, .len = 2};
 1087              		.loc 1 340 0
 1088 0054 03AE     		add	r6, sp, #12
 1089 0056 0822     		movs	r2, #8
 1090 0058 0021     		movs	r1, #0
 1091 005a 3000     		movs	r0, r6
 1092 005c FFF7FEFF 		bl	memset
 1093              	.LVL101:
 1094 0060 6B46     		mov	r3, sp
 1095 0062 0393     		str	r3, [sp, #12]
 1096 0064 0223     		movs	r3, #2
 1097 0066 9846     		mov	r8, r3
 1098 0068 B380     		strh	r3, [r6, #4]
 341:Transmission.c ****             cy_stc_ble_gatt_value_t y_data = { .val = y_val, .len = 2};
 1099              		.loc 1 341 0
 1100 006a 05AD     		add	r5, sp, #20
 1101 006c 0822     		movs	r2, #8
 1102 006e 0021     		movs	r1, #0
 1103 0070 2800     		movs	r0, r5
 1104 0072 FFF7FEFF 		bl	memset
 1105              	.LVL102:
 1106 0076 0594     		str	r4, [sp, #20]
 1107 0078 4346     		mov	r3, r8
 1108 007a AB80     		strh	r3, [r5, #4]
 342:Transmission.c ****             cy_stc_ble_gatt_value_t z_data = { .val = z_val, .len = 2};
 1109              		.loc 1 342 0
 1110 007c 07AC     		add	r4, sp, #28
 1111 007e 0822     		movs	r2, #8
 1112 0080 0021     		movs	r1, #0
 1113 0082 2000     		movs	r0, r4
 1114 0084 FFF7FEFF 		bl	memset
 1115              	.LVL103:
 1116 0088 0797     		str	r7, [sp, #28]
ARM GAS  C:\Users\salaz\AppData\Local\Temp\ccnyouLe.s 			page 67


 1117 008a 4346     		mov	r3, r8
 1118 008c A380     		strh	r3, [r4, #4]
 343:Transmission.c ****             
 344:Transmission.c ****             cy_stc_ble_gatt_handle_value_pair_t x_handleVal =
 1119              		.loc 1 344 0
 1120 008e 09A9     		add	r1, sp, #36
 1121 0090 0B00     		movs	r3, r1
 1122 0092 05CE     		ldmia	r6!, {r0, r2}
 1123 0094 05C3     		stmia	r3!, {r0, r2}
 1124 0096 1723     		movs	r3, #23
 1125 0098 0B81     		strh	r3, [r1, #8]
 345:Transmission.c ****             {
 346:Transmission.c ****                 .value = x_data,
 347:Transmission.c ****                 .attrHandle = CY_BLE_DEVICE_INTERFACE_ACCEL_X_CHAR_HANDLE
 348:Transmission.c ****             };
 349:Transmission.c ****             
 350:Transmission.c ****             cy_stc_ble_gatt_handle_value_pair_t y_handleVal =
 1126              		.loc 1 350 0
 1127 009a 0CAE     		add	r6, sp, #48
 1128 009c 3300     		movs	r3, r6
 1129 009e 05CD     		ldmia	r5!, {r0, r2}
 1130 00a0 05C3     		stmia	r3!, {r0, r2}
 1131 00a2 1A23     		movs	r3, #26
 1132 00a4 3381     		strh	r3, [r6, #8]
 351:Transmission.c ****             {
 352:Transmission.c ****                 .value = y_data,
 353:Transmission.c ****                 .attrHandle = CY_BLE_DEVICE_INTERFACE_ACCEL_Y_CHAR_HANDLE
 354:Transmission.c ****             };
 355:Transmission.c ****             
 356:Transmission.c ****             cy_stc_ble_gatt_handle_value_pair_t z_handleVal =
 1133              		.loc 1 356 0
 1134 00a6 0FAD     		add	r5, sp, #60
 1135 00a8 2B00     		movs	r3, r5
 1136 00aa 05CC     		ldmia	r4!, {r0, r2}
 1137 00ac 05C3     		stmia	r3!, {r0, r2}
 1138 00ae 1D23     		movs	r3, #29
 1139 00b0 2B81     		strh	r3, [r5, #8]
 357:Transmission.c ****             {
 358:Transmission.c ****                 .value = z_data,
 359:Transmission.c ****                 .attrHandle = CY_BLE_DEVICE_INTERFACE_ACCEL_Z_CHAR_HANDLE
 360:Transmission.c ****             };
 361:Transmission.c ****             
 362:Transmission.c ****             Cy_BLE_GATTS_SendNotification(&cy_ble_connHandle[0],&x_handleVal);
 1140              		.loc 1 362 0
 1141 00b2 0D4C     		ldr	r4, .L54+4
 1142 00b4 2000     		movs	r0, r4
 1143 00b6 FFF7FEFF 		bl	Cy_BLE_GATTS_SendNotification
 1144              	.LVL104:
 363:Transmission.c ****             Cy_BLE_GATTS_SendNotification(&cy_ble_connHandle[0],&y_handleVal);
 1145              		.loc 1 363 0
 1146 00ba 3100     		movs	r1, r6
 1147 00bc 2000     		movs	r0, r4
 1148 00be FFF7FEFF 		bl	Cy_BLE_GATTS_SendNotification
 1149              	.LVL105:
 364:Transmission.c ****             Cy_BLE_GATTS_SendNotification(&cy_ble_connHandle[0],&z_handleVal);
 1150              		.loc 1 364 0
 1151 00c2 2900     		movs	r1, r5
ARM GAS  C:\Users\salaz\AppData\Local\Temp\ccnyouLe.s 			page 68


 1152 00c4 2000     		movs	r0, r4
 1153 00c6 FFF7FEFF 		bl	Cy_BLE_GATTS_SendNotification
 1154              	.LVL106:
 1155              	.L52:
 1156              	.LBE61:
 365:Transmission.c ****         }
 366:Transmission.c ****     }
 367:Transmission.c ****     
 368:Transmission.c ****     // Bond remote device's information into flash (initiated in CY_BLE_EVT_GAP_AUTH_REQ)
 369:Transmission.c ****     if(cy_ble_pendingFlashWrite != 0u)
 1157              		.loc 1 369 0
 1158 00ca 094B     		ldr	r3, .L54+12
 1159 00cc 1B78     		ldrb	r3, [r3]
 1160 00ce 002B     		cmp	r3, #0
 1161 00d0 01D0     		beq	.L51
 1162              	.LBB62:
 370:Transmission.c ****     {   
 371:Transmission.c ****         cy_en_ble_api_result_t apiResult = Cy_BLE_StoreBondingData();
 1163              		.loc 1 371 0
 1164 00d2 FFF7FEFF 		bl	Cy_BLE_StoreBondingData
 1165              	.LVL107:
 1166              	.L51:
 1167              	.LBE62:
 372:Transmission.c ****     }
 373:Transmission.c **** }
 1168              		.loc 1 373 0
 1169 00d6 12B0     		add	sp, sp, #72
 1170              		@ sp needed
 1171 00d8 04BC     		pop	{r2}
 1172 00da 9046     		mov	r8, r2
 1173 00dc F0BC     		pop	{r4, r5, r6, r7}
 1174 00de 08BC     		pop	{r3}
 1175 00e0 04B0     		add	sp, sp, #16
 1176 00e2 1847     		bx	r3
 1177              	.L55:
 1178              		.align	2
 1179              	.L54:
 1180 00e4 00000000 		.word	.LANCHOR0
 1181 00e8 00000000 		.word	cy_ble_connHandle
 1182 00ec 00000000 		.word	cy_ble_busyStatus
 1183 00f0 00000000 		.word	cy_ble_pendingFlashWrite
 1184              		.cfi_endproc
 1185              	.LFE798:
 1186              		.size	Transmission_SendAcc, .-Transmission_SendAcc
 1187              		.section	.text.Transmission_Init,"ax",%progbits
 1188              		.align	2
 1189              		.global	Transmission_Init
 1190              		.code	16
 1191              		.thumb_func
 1192              		.type	Transmission_Init, %function
 1193              	Transmission_Init:
 1194              	.LFB799:
 374:Transmission.c **** 
 375:Transmission.c **** 
 376:Transmission.c **** 
 377:Transmission.c **** 
 378:Transmission.c **** 
ARM GAS  C:\Users\salaz\AppData\Local\Temp\ccnyouLe.s 			page 69


 379:Transmission.c **** //-------------------------------------------------------------//
 380:Transmission.c **** //------------------------INITIALIZATION-----------------------//
 381:Transmission.c **** //-------------------------------------------------------------//
 382:Transmission.c **** 
 383:Transmission.c **** void Transmission_Init()
 384:Transmission.c **** {
 1195              		.loc 1 384 0
 1196              		.cfi_startproc
 1197              		@ args = 0, pretend = 0, frame = 0
 1198              		@ frame_needed = 0, uses_anonymous_args = 0
 1199 0000 10B5     		push	{r4, lr}
 1200              		.cfi_def_cfa_offset 8
 1201              		.cfi_offset 4, -8
 1202              		.cfi_offset 14, -4
 385:Transmission.c ****     TxBuffer_Init();
 1203              		.loc 1 385 0
 1204 0002 FFF7FEFF 		bl	TxBuffer_Init
 1205              	.LVL108:
 386:Transmission.c ****     RxBuffer_Init();
 1206              		.loc 1 386 0
 1207 0006 FFF7FEFF 		bl	RxBuffer_Init
 1208              	.LVL109:
 387:Transmission.c ****     
 388:Transmission.c ****     cy_en_ble_api_result_t apiResult = Cy_BLE_Start(Transmission_EventHandler);
 1209              		.loc 1 388 0
 1210 000a 0F48     		ldr	r0, .L59
 1211 000c FFF7FEFF 		bl	Cy_BLE_Start
 1212              	.LVL110:
 389:Transmission.c ****     if (apiResult == CY_BLE_SUCCESS)
 1213              		.loc 1 389 0
 1214 0010 0028     		cmp	r0, #0
 1215 0012 08D1     		bne	.L57
 390:Transmission.c ****     {
 391:Transmission.c ****         Cy_BLE_BAS_Init(cy_ble_basConfigPtr);
 1216              		.loc 1 391 0
 1217 0014 0D4B     		ldr	r3, .L59+4
 1218 0016 1868     		ldr	r0, [r3]
 1219              	.LVL111:
 1220 0018 FFF7FEFF 		bl	Cy_BLE_BAS_Init
 1221              	.LVL112:
 392:Transmission.c ****         Cy_BLE_ProcessEvents();
 1222              		.loc 1 392 0
 1223 001c FFF7FEFF 		bl	Cy_BLE_ProcessEvents
 1224              	.LVL113:
 393:Transmission.c ****         Cy_BLE_RegisterAppHostCallback(Transmission_BleSsHandler); // Callback function for bless i
 1225              		.loc 1 393 0
 1226 0020 0B48     		ldr	r0, .L59+8
 1227 0022 FFF7FEFF 		bl	Cy_BLE_RegisterAppHostCallback
 1228              	.LVL114:
 1229              	.L57:
 394:Transmission.c ****     }
 395:Transmission.c ****     else
 396:Transmission.c ****     {
 397:Transmission.c ****         // Throw error
 398:Transmission.c ****     }
 399:Transmission.c ****     
 400:Transmission.c ****     DEBUG_PRINTF("Transmission_Init 1 \r\n");
ARM GAS  C:\Users\salaz\AppData\Local\Temp\ccnyouLe.s 			page 70


 1230              		.loc 1 400 0
 1231 0026 0B48     		ldr	r0, .L59+12
 1232 0028 FFF7FEFF 		bl	puts
 1233              	.LVL115:
 1234              	.L58:
 1235              	.LBB63:
 1236              	.LBB64:
 731:Generated_Source\PSoC6\pdl\drivers/peripheral/scb/cy_scb_common.h **** }
 1237              		.loc 3 731 0 discriminator 1
 1238 002c 0A48     		ldr	r0, .L59+16
 1239 002e 8221     		movs	r1, #130
 1240 0030 8900     		lsls	r1, r1, #2
 1241 0032 4358     		ldr	r3, [r0, r1]
 1242 0034 DB05     		lsls	r3, r3, #23
 1243 0036 DA0D     		lsrs	r2, r3, #23
 1244              	.LVL116:
 1245              	.LBE64:
 1246              	.LBE63:
 1247              	.LBB65:
 1248              	.LBB66:
 1249              		.loc 3 750 0 discriminator 1
 1250 0038 4358     		ldr	r3, [r0, r1]
 1251 003a DB0B     		lsrs	r3, r3, #15
 1252 003c 0121     		movs	r1, #1
 1253 003e 0B40     		ands	r3, r1
 1254              	.LVL117:
 1255              	.LBE66:
 1256              	.LBE65:
 401:Transmission.c ****     DEBUG_WAIT_UART_TX_COMPLETE();    
 1257              		.loc 1 401 0 discriminator 1
 1258 0040 9B18     		adds	r3, r3, r2
 1259 0042 002B     		cmp	r3, #0
 1260 0044 F2D1     		bne	.L58
 402:Transmission.c **** }
 1261              		.loc 1 402 0
 1262              		@ sp needed
 1263 0046 10BD     		pop	{r4, pc}
 1264              	.L60:
 1265              		.align	2
 1266              	.L59:
 1267 0048 00000000 		.word	Transmission_EventHandler
 1268 004c 00000000 		.word	cy_ble_basConfigPtr
 1269 0050 00000000 		.word	Transmission_BleSsHandler
 1270 0054 44000000 		.word	.LC25
 1271 0058 00006640 		.word	1080426496
 1272              		.cfi_endproc
 1273              	.LFE799:
 1274              		.size	Transmission_Init, .-Transmission_Init
 1275              		.global	is_connected
 1276              		.global	is_advertising
 1277              		.data
 1278              		.align	2
 1279              		.set	.LANCHOR1,. + 0
 1280              		.type	bondedDeviceList.19103, %object
 1281              		.size	bondedDeviceList.19103, 8
 1282              	bondedDeviceList.19103:
 1283 0000 08000000 		.word	bondedDeviceInfo.19102
ARM GAS  C:\Users\salaz\AppData\Local\Temp\ccnyouLe.s 			page 71


 1284 0004 00000000 		.space	4
 1285              		.section	.rodata.str1.4,"aMS",%progbits,1
 1286              		.align	2
 1287              	.LC2:
 1288 0000 43595F42 		.ascii	"CY_BLE_EVT_GAPP_ADVERTISEMENT_START_STOP %u \015\012"
 1288      4C455F45 
 1288      56545F47 
 1288      4150505F 
 1288      41445645 
 1289 002e 00       		.ascii	"\000"
 1290 002f 00       		.space	1
 1291              	.LC8:
 1292 0030 426C6520 		.ascii	"Ble Event: %lx \015\012\000"
 1292      4576656E 
 1292      743A2025 
 1292      6C78200D 
 1292      0A00
 1293 0042 0000     		.space	2
 1294              	.LC25:
 1295 0044 5472616E 		.ascii	"Transmission_Init 1 \015\000"
 1295      736D6973 
 1295      73696F6E 
 1295      5F496E69 
 1295      74203120 
 1296              		.bss
 1297              		.align	2
 1298              		.set	.LANCHOR0,. + 0
 1299              		.type	is_advertising, %object
 1300              		.size	is_advertising, 1
 1301              	is_advertising:
 1302 0000 00       		.space	1
 1303              		.type	is_connected, %object
 1304              		.size	is_connected, 1
 1305              	is_connected:
 1306 0001 00       		.space	1
 1307 0002 0000     		.space	2
 1308              		.type	data.19166, %object
 1309              		.size	data.19166, 1
 1310              	data.19166:
 1311 0004 00       		.space	1
 1312 0005 000000   		.space	3
 1313              		.type	bondedDeviceInfo.19102, %object
 1314              		.size	bondedDeviceInfo.19102, 128
 1315              	bondedDeviceInfo.19102:
 1316 0008 00000000 		.space	128
 1316      00000000 
 1316      00000000 
 1316      00000000 
 1316      00000000 
 1317              		.text
 1318              	.Letext0:
 1319              		.file 5 "Generated_Source\\PSoC6\\pdl\\devices/psoc6/psoc63/include/cyble_416045_02.h"
 1320              		.file 6 "c:\\program files (x86)\\cypress\\psoc creator\\4.2\\psoc creator\\import\\gnu\\arm\\5.4.
 1321              		.file 7 "c:\\program files (x86)\\cypress\\psoc creator\\4.2\\psoc creator\\import\\gnu\\arm\\5.4.
 1322              		.file 8 "Generated_Source\\PSoC6\\pdl\\devices/psoc6/ip/cyip_scb.h"
 1323              		.file 9 "Generated_Source\\PSoC6\\pdl\\drivers/peripheral/syslib/cy_syslib.h"
 1324              		.file 10 "Generated_Source\\PSoC6\\pdl\\drivers/peripheral/sysint/cy_sysint.h"
ARM GAS  C:\Users\salaz\AppData\Local\Temp\ccnyouLe.s 			page 72


 1325              		.file 11 "Generated_Source\\PSoC6\\pdl\\drivers/peripheral/tcpwm/cy_tcpwm_counter.h"
 1326              		.file 12 "Generated_Source\\PSoC6\\pdl\\drivers/peripheral/tcpwm/cy_tcpwm_pwm.h"
 1327              		.file 13 "Generated_Source\\PSoC6\\pdl\\drivers/peripheral/scb/cy_scb_i2c.h"
 1328              		.file 14 "Generated_Source\\PSoC6\\pdl\\drivers/peripheral/scb/cy_scb_uart.h"
 1329              		.file 15 "Generated_Source\\PSoC6\\pdl\\middleware/ble/cy_ble_stack.h"
 1330              		.file 16 "Generated_Source\\PSoC6\\pdl\\middleware/ble/cy_ble_stack_host_main.h"
 1331              		.file 17 "Generated_Source\\PSoC6\\pdl\\middleware/ble/cy_ble_stack_gatt.h"
 1332              		.file 18 "Generated_Source\\PSoC6\\pdl\\middleware/ble/cy_ble_stack_gap.h"
 1333              		.file 19 "Generated_Source\\PSoC6\\pdl\\middleware/ble/cy_ble_stack_gap_central.h"
 1334              		.file 20 "Generated_Source\\PSoC6\\pdl\\middleware/ble/cy_ble_stack_gap_peripheral.h"
 1335              		.file 21 "Generated_Source\\PSoC6\\pdl\\middleware/ble/cy_ble_stack_gatt_server.h"
 1336              		.file 22 "Generated_Source\\PSoC6\\pdl\\middleware/ble/cy_ble_stack_gatt_db.h"
 1337              		.file 23 "Generated_Source\\PSoC6\\pdl\\middleware/ble/cy_ble_gatt.h"
 1338              		.file 24 "Generated_Source\\PSoC6\\pdl\\middleware/ble/cy_ble.h"
 1339              		.file 25 "Generated_Source\\PSoC6\\pdl\\middleware/ble/cy_ble_bas.h"
 1340              		.file 26 "./KinOS.h"
 1341              		.file 27 "Generated_Source\\PSoC6\\pdl\\drivers/peripheral/rtc/cy_rtc.h"
 1342              		.file 28 "Generated_Source\\PSoC6\\pdl\\middleware/ble/cy_ble_event_handler.h"
 1343              		.file 29 "Generated_Source\\PSoC6/cyfitter_sysint_cfg.h"
 1344              		.file 30 "Generated_Source\\PSoC6/UART_DEBUG.h"
 1345              		.file 31 "Generated_Source\\PSoC6/SensorBus.h"
 1346              		.file 32 "Generated_Source\\PSoC6/LightOutputC.h"
 1347              		.file 33 "Generated_Source\\PSoC6/LightOutputA.h"
 1348              		.file 34 "Generated_Source\\PSoC6/LightTimer.h"
 1349              		.file 35 "Generated_Source\\PSoC6/LightOutputB.h"
 1350              		.file 36 "Generated_Source\\PSoC6/MotorOutput.h"
 1351              		.file 37 "Generated_Source\\PSoC6/MotorTimer.h"
 1352              		.file 38 "Generated_Source\\PSoC6/ChimeOutput.h"
 1353              		.file 39 "Generated_Source\\PSoC6/ChimeTimer.h"
 1354              		.file 40 "./RxBuffer.h"
 1355              		.file 41 "c:\\program files (x86)\\cypress\\psoc creator\\4.2\\psoc creator\\import\\gnu\\arm\\5.4
 1356              		.file 42 "./TxBuffer.h"
 1357              		.file 43 "Generated_Source\\PSoC6/BLE.h"
 1358              		.file 44 "<built-in>"
 1359              		.section	.debug_info,"",%progbits
 1360              	.Ldebug_info0:
 1361 0000 EE2E0000 		.4byte	0x2eee
 1362 0004 0400     		.2byte	0x4
 1363 0006 00000000 		.4byte	.Ldebug_abbrev0
 1364 000a 04       		.byte	0x4
 1365 000b 01       		.uleb128 0x1
 1366 000c 09140000 		.4byte	.LASF882
 1367 0010 0C       		.byte	0xc
 1368 0011 CB0D0000 		.4byte	.LASF883
 1369 0015 21180000 		.4byte	.LASF884
 1370 0019 50000000 		.4byte	.Ldebug_ranges0+0x50
 1371 001d 00000000 		.4byte	0
 1372 0021 00000000 		.4byte	.Ldebug_line0
 1373 0025 02       		.uleb128 0x2
 1374 0026 08       		.byte	0x8
 1375 0027 07       		.byte	0x7
 1376 0028 D1330000 		.4byte	.LASF0
 1377 002c 02       		.uleb128 0x2
 1378 002d 01       		.byte	0x1
 1379 002e 08       		.byte	0x8
 1380 002f 97110000 		.4byte	.LASF1
 1381 0033 03       		.uleb128 0x3
ARM GAS  C:\Users\salaz\AppData\Local\Temp\ccnyouLe.s 			page 73


 1382 0034 02       		.byte	0x2
 1383 0035 2A010000 		.4byte	0x12a
 1384 0039 05       		.byte	0x5
 1385 003a 24       		.byte	0x24
 1386 003b 2A010000 		.4byte	0x12a
 1387 003f 04       		.uleb128 0x4
 1388 0040 56350000 		.4byte	.LASF2
 1389 0044 71       		.sleb128 -15
 1390 0045 04       		.uleb128 0x4
 1391 0046 941E0000 		.4byte	.LASF3
 1392 004a 72       		.sleb128 -14
 1393 004b 04       		.uleb128 0x4
 1394 004c 8C480000 		.4byte	.LASF4
 1395 0050 73       		.sleb128 -13
 1396 0051 04       		.uleb128 0x4
 1397 0052 CB250000 		.4byte	.LASF5
 1398 0056 7B       		.sleb128 -5
 1399 0057 04       		.uleb128 0x4
 1400 0058 3E250000 		.4byte	.LASF6
 1401 005c 7E       		.sleb128 -2
 1402 005d 04       		.uleb128 0x4
 1403 005e FF0E0000 		.4byte	.LASF7
 1404 0062 7F       		.sleb128 -1
 1405 0063 05       		.uleb128 0x5
 1406 0064 47060000 		.4byte	.LASF8
 1407 0068 00       		.byte	0
 1408 0069 05       		.uleb128 0x5
 1409 006a BD0D0000 		.4byte	.LASF9
 1410 006e 01       		.byte	0x1
 1411 006f 05       		.uleb128 0x5
 1412 0070 25270000 		.4byte	.LASF10
 1413 0074 02       		.byte	0x2
 1414 0075 05       		.uleb128 0x5
 1415 0076 92420000 		.4byte	.LASF11
 1416 007a 03       		.byte	0x3
 1417 007b 05       		.uleb128 0x5
 1418 007c B2400000 		.4byte	.LASF12
 1419 0080 04       		.byte	0x4
 1420 0081 05       		.uleb128 0x5
 1421 0082 9E3C0000 		.4byte	.LASF13
 1422 0086 05       		.byte	0x5
 1423 0087 05       		.uleb128 0x5
 1424 0088 951F0000 		.4byte	.LASF14
 1425 008c 06       		.byte	0x6
 1426 008d 05       		.uleb128 0x5
 1427 008e 14030000 		.4byte	.LASF15
 1428 0092 07       		.byte	0x7
 1429 0093 05       		.uleb128 0x5
 1430 0094 72490000 		.4byte	.LASF16
 1431 0098 08       		.byte	0x8
 1432 0099 05       		.uleb128 0x5
 1433 009a BD2B0000 		.4byte	.LASF17
 1434 009e 09       		.byte	0x9
 1435 009f 05       		.uleb128 0x5
 1436 00a0 7F180000 		.4byte	.LASF18
 1437 00a4 0A       		.byte	0xa
 1438 00a5 05       		.uleb128 0x5
ARM GAS  C:\Users\salaz\AppData\Local\Temp\ccnyouLe.s 			page 74


 1439 00a6 2D290000 		.4byte	.LASF19
 1440 00aa 0B       		.byte	0xb
 1441 00ab 05       		.uleb128 0x5
 1442 00ac 6B3E0000 		.4byte	.LASF20
 1443 00b0 0C       		.byte	0xc
 1444 00b1 05       		.uleb128 0x5
 1445 00b2 5A090000 		.4byte	.LASF21
 1446 00b6 0D       		.byte	0xd
 1447 00b7 05       		.uleb128 0x5
 1448 00b8 CE270000 		.4byte	.LASF22
 1449 00bc 0E       		.byte	0xe
 1450 00bd 05       		.uleb128 0x5
 1451 00be B2310000 		.4byte	.LASF23
 1452 00c2 0F       		.byte	0xf
 1453 00c3 05       		.uleb128 0x5
 1454 00c4 E0160000 		.4byte	.LASF24
 1455 00c8 10       		.byte	0x10
 1456 00c9 05       		.uleb128 0x5
 1457 00ca 7E430000 		.4byte	.LASF25
 1458 00ce 11       		.byte	0x11
 1459 00cf 05       		.uleb128 0x5
 1460 00d0 BC3E0000 		.4byte	.LASF26
 1461 00d4 12       		.byte	0x12
 1462 00d5 05       		.uleb128 0x5
 1463 00d6 AB210000 		.4byte	.LASF27
 1464 00da 13       		.byte	0x13
 1465 00db 05       		.uleb128 0x5
 1466 00dc 554A0000 		.4byte	.LASF28
 1467 00e0 14       		.byte	0x14
 1468 00e1 05       		.uleb128 0x5
 1469 00e2 3C2C0000 		.4byte	.LASF29
 1470 00e6 15       		.byte	0x15
 1471 00e7 05       		.uleb128 0x5
 1472 00e8 3B280000 		.4byte	.LASF30
 1473 00ec 16       		.byte	0x16
 1474 00ed 05       		.uleb128 0x5
 1475 00ee 620C0000 		.4byte	.LASF31
 1476 00f2 17       		.byte	0x17
 1477 00f3 05       		.uleb128 0x5
 1478 00f4 B53A0000 		.4byte	.LASF32
 1479 00f8 18       		.byte	0x18
 1480 00f9 05       		.uleb128 0x5
 1481 00fa 10360000 		.4byte	.LASF33
 1482 00fe 19       		.byte	0x19
 1483 00ff 05       		.uleb128 0x5
 1484 0100 341A0000 		.4byte	.LASF34
 1485 0104 1A       		.byte	0x1a
 1486 0105 05       		.uleb128 0x5
 1487 0106 FA460000 		.4byte	.LASF35
 1488 010a 1B       		.byte	0x1b
 1489 010b 05       		.uleb128 0x5
 1490 010c 65420000 		.4byte	.LASF36
 1491 0110 1C       		.byte	0x1c
 1492 0111 05       		.uleb128 0x5
 1493 0112 2F250000 		.4byte	.LASF37
 1494 0116 1D       		.byte	0x1d
 1495 0117 05       		.uleb128 0x5
ARM GAS  C:\Users\salaz\AppData\Local\Temp\ccnyouLe.s 			page 75


 1496 0118 46030000 		.4byte	.LASF38
 1497 011c 1E       		.byte	0x1e
 1498 011d 05       		.uleb128 0x5
 1499 011e 92490000 		.4byte	.LASF39
 1500 0122 1F       		.byte	0x1f
 1501 0123 05       		.uleb128 0x5
 1502 0124 A5130000 		.4byte	.LASF40
 1503 0128 F0       		.byte	0xf0
 1504 0129 00       		.byte	0
 1505 012a 02       		.uleb128 0x2
 1506 012b 02       		.byte	0x2
 1507 012c 05       		.byte	0x5
 1508 012d 7D2A0000 		.4byte	.LASF41
 1509 0131 06       		.uleb128 0x6
 1510 0132 32200000 		.4byte	.LASF190
 1511 0136 05       		.byte	0x5
 1512 0137 F4       		.byte	0xf4
 1513 0138 33000000 		.4byte	0x33
 1514 013c 03       		.uleb128 0x3
 1515 013d 01       		.byte	0x1
 1516 013e 2C000000 		.4byte	0x2c
 1517 0142 05       		.byte	0x5
 1518 0143 FD       		.byte	0xfd
 1519 0144 C1040000 		.4byte	0x4c1
 1520 0148 05       		.uleb128 0x5
 1521 0149 91150000 		.4byte	.LASF42
 1522 014d 00       		.byte	0
 1523 014e 05       		.uleb128 0x5
 1524 014f 312E0000 		.4byte	.LASF43
 1525 0153 01       		.byte	0x1
 1526 0154 05       		.uleb128 0x5
 1527 0155 92230000 		.4byte	.LASF44
 1528 0159 02       		.byte	0x2
 1529 015a 05       		.uleb128 0x5
 1530 015b 36240000 		.4byte	.LASF45
 1531 015f 03       		.byte	0x3
 1532 0160 05       		.uleb128 0x5
 1533 0161 1A090000 		.4byte	.LASF46
 1534 0165 04       		.byte	0x4
 1535 0166 05       		.uleb128 0x5
 1536 0167 42040000 		.4byte	.LASF47
 1537 016b 05       		.byte	0x5
 1538 016c 05       		.uleb128 0x5
 1539 016d 96310000 		.4byte	.LASF48
 1540 0171 06       		.byte	0x6
 1541 0172 05       		.uleb128 0x5
 1542 0173 BC380000 		.4byte	.LASF49
 1543 0177 07       		.byte	0x7
 1544 0178 05       		.uleb128 0x5
 1545 0179 1E110000 		.4byte	.LASF50
 1546 017d 08       		.byte	0x8
 1547 017e 05       		.uleb128 0x5
 1548 017f A03E0000 		.4byte	.LASF51
 1549 0183 09       		.byte	0x9
 1550 0184 05       		.uleb128 0x5
 1551 0185 AA3F0000 		.4byte	.LASF52
 1552 0189 0A       		.byte	0xa
ARM GAS  C:\Users\salaz\AppData\Local\Temp\ccnyouLe.s 			page 76


 1553 018a 05       		.uleb128 0x5
 1554 018b 06230000 		.4byte	.LASF53
 1555 018f 0B       		.byte	0xb
 1556 0190 05       		.uleb128 0x5
 1557 0191 AC060000 		.4byte	.LASF54
 1558 0195 0C       		.byte	0xc
 1559 0196 05       		.uleb128 0x5
 1560 0197 F0010000 		.4byte	.LASF55
 1561 019b 0D       		.byte	0xd
 1562 019c 05       		.uleb128 0x5
 1563 019d 562F0000 		.4byte	.LASF56
 1564 01a1 0E       		.byte	0xe
 1565 01a2 05       		.uleb128 0x5
 1566 01a3 232C0000 		.4byte	.LASF57
 1567 01a7 0F       		.byte	0xf
 1568 01a8 05       		.uleb128 0x5
 1569 01a9 E7420000 		.4byte	.LASF58
 1570 01ad 10       		.byte	0x10
 1571 01ae 05       		.uleb128 0x5
 1572 01af CF3D0000 		.4byte	.LASF59
 1573 01b3 11       		.byte	0x11
 1574 01b4 05       		.uleb128 0x5
 1575 01b5 563E0000 		.4byte	.LASF60
 1576 01b9 12       		.byte	0x12
 1577 01ba 05       		.uleb128 0x5
 1578 01bb C9480000 		.4byte	.LASF61
 1579 01bf 13       		.byte	0x13
 1580 01c0 05       		.uleb128 0x5
 1581 01c1 B02F0000 		.4byte	.LASF62
 1582 01c5 14       		.byte	0x14
 1583 01c6 05       		.uleb128 0x5
 1584 01c7 66480000 		.4byte	.LASF63
 1585 01cb 15       		.byte	0x15
 1586 01cc 05       		.uleb128 0x5
 1587 01cd 11300000 		.4byte	.LASF64
 1588 01d1 16       		.byte	0x16
 1589 01d2 05       		.uleb128 0x5
 1590 01d3 E53D0000 		.4byte	.LASF65
 1591 01d7 17       		.byte	0x17
 1592 01d8 05       		.uleb128 0x5
 1593 01d9 8A320000 		.4byte	.LASF66
 1594 01dd 18       		.byte	0x18
 1595 01de 05       		.uleb128 0x5
 1596 01df 3D460000 		.4byte	.LASF67
 1597 01e3 19       		.byte	0x19
 1598 01e4 05       		.uleb128 0x5
 1599 01e5 3E410000 		.4byte	.LASF68
 1600 01e9 1A       		.byte	0x1a
 1601 01ea 05       		.uleb128 0x5
 1602 01eb F8230000 		.4byte	.LASF69
 1603 01ef 1B       		.byte	0x1b
 1604 01f0 05       		.uleb128 0x5
 1605 01f1 CE080000 		.4byte	.LASF70
 1606 01f5 1C       		.byte	0x1c
 1607 01f6 05       		.uleb128 0x5
 1608 01f7 0C040000 		.4byte	.LASF71
 1609 01fb 1D       		.byte	0x1d
ARM GAS  C:\Users\salaz\AppData\Local\Temp\ccnyouLe.s 			page 77


 1610 01fc 05       		.uleb128 0x5
 1611 01fd 40310000 		.4byte	.LASF72
 1612 0201 1E       		.byte	0x1e
 1613 0202 05       		.uleb128 0x5
 1614 0203 67160000 		.4byte	.LASF73
 1615 0207 1F       		.byte	0x1f
 1616 0208 05       		.uleb128 0x5
 1617 0209 BF100000 		.4byte	.LASF74
 1618 020d 20       		.byte	0x20
 1619 020e 05       		.uleb128 0x5
 1620 020f 7A3E0000 		.4byte	.LASF75
 1621 0213 21       		.byte	0x21
 1622 0214 05       		.uleb128 0x5
 1623 0215 86210000 		.4byte	.LASF76
 1624 0219 22       		.byte	0x22
 1625 021a 05       		.uleb128 0x5
 1626 021b 3C290000 		.4byte	.LASF77
 1627 021f 23       		.byte	0x23
 1628 0220 05       		.uleb128 0x5
 1629 0221 550D0000 		.4byte	.LASF78
 1630 0225 24       		.byte	0x24
 1631 0226 05       		.uleb128 0x5
 1632 0227 963B0000 		.4byte	.LASF79
 1633 022b 25       		.byte	0x25
 1634 022c 05       		.uleb128 0x5
 1635 022d 8D370000 		.4byte	.LASF80
 1636 0231 26       		.byte	0x26
 1637 0232 05       		.uleb128 0x5
 1638 0233 181B0000 		.4byte	.LASF81
 1639 0237 27       		.byte	0x27
 1640 0238 05       		.uleb128 0x5
 1641 0239 2E480000 		.4byte	.LASF82
 1642 023d 28       		.byte	0x28
 1643 023e 05       		.uleb128 0x5
 1644 023f 76390000 		.4byte	.LASF83
 1645 0243 29       		.byte	0x29
 1646 0244 05       		.uleb128 0x5
 1647 0245 58360000 		.4byte	.LASF84
 1648 0249 2A       		.byte	0x2a
 1649 024a 05       		.uleb128 0x5
 1650 024b 74220000 		.4byte	.LASF85
 1651 024f 2B       		.byte	0x2b
 1652 0250 05       		.uleb128 0x5
 1653 0251 50420000 		.4byte	.LASF86
 1654 0255 2C       		.byte	0x2c
 1655 0256 05       		.uleb128 0x5
 1656 0257 1E3C0000 		.4byte	.LASF87
 1657 025b 2D       		.byte	0x2d
 1658 025c 05       		.uleb128 0x5
 1659 025d 94040000 		.4byte	.LASF88
 1660 0261 2E       		.byte	0x2e
 1661 0262 05       		.uleb128 0x5
 1662 0263 333C0000 		.4byte	.LASF89
 1663 0267 2F       		.byte	0x2f
 1664 0268 05       		.uleb128 0x5
 1665 0269 3A110000 		.4byte	.LASF90
 1666 026d 30       		.byte	0x30
ARM GAS  C:\Users\salaz\AppData\Local\Temp\ccnyouLe.s 			page 78


 1667 026e 05       		.uleb128 0x5
 1668 026f 9B1C0000 		.4byte	.LASF91
 1669 0273 31       		.byte	0x31
 1670 0274 05       		.uleb128 0x5
 1671 0275 39190000 		.4byte	.LASF92
 1672 0279 32       		.byte	0x32
 1673 027a 05       		.uleb128 0x5
 1674 027b B6450000 		.4byte	.LASF93
 1675 027f 33       		.byte	0x33
 1676 0280 05       		.uleb128 0x5
 1677 0281 9F280000 		.4byte	.LASF94
 1678 0285 34       		.byte	0x34
 1679 0286 05       		.uleb128 0x5
 1680 0287 C9230000 		.4byte	.LASF95
 1681 028b 35       		.byte	0x35
 1682 028c 05       		.uleb128 0x5
 1683 028d 57080000 		.4byte	.LASF96
 1684 0291 36       		.byte	0x36
 1685 0292 05       		.uleb128 0x5
 1686 0293 84360000 		.4byte	.LASF97
 1687 0297 37       		.byte	0x37
 1688 0298 05       		.uleb128 0x5
 1689 0299 BC300000 		.4byte	.LASF98
 1690 029d 38       		.byte	0x38
 1691 029e 05       		.uleb128 0x5
 1692 029f C6150000 		.4byte	.LASF99
 1693 02a3 39       		.byte	0x39
 1694 02a4 05       		.uleb128 0x5
 1695 02a5 8B440000 		.4byte	.LASF100
 1696 02a9 3A       		.byte	0x3a
 1697 02aa 05       		.uleb128 0x5
 1698 02ab 4A250000 		.4byte	.LASF101
 1699 02af 3B       		.byte	0x3b
 1700 02b0 05       		.uleb128 0x5
 1701 02b1 3D230000 		.4byte	.LASF102
 1702 02b5 3C       		.byte	0x3c
 1703 02b6 05       		.uleb128 0x5
 1704 02b7 CE060000 		.4byte	.LASF103
 1705 02bb 3D       		.byte	0x3d
 1706 02bc 05       		.uleb128 0x5
 1707 02bd 0F350000 		.4byte	.LASF104
 1708 02c1 3E       		.byte	0x3e
 1709 02c2 05       		.uleb128 0x5
 1710 02c3 732F0000 		.4byte	.LASF105
 1711 02c7 3F       		.byte	0x3f
 1712 02c8 05       		.uleb128 0x5
 1713 02c9 AF140000 		.4byte	.LASF106
 1714 02cd 40       		.byte	0x40
 1715 02ce 05       		.uleb128 0x5
 1716 02cf 21410000 		.4byte	.LASF107
 1717 02d3 41       		.byte	0x41
 1718 02d4 05       		.uleb128 0x5
 1719 02d5 50470000 		.4byte	.LASF108
 1720 02d9 42       		.byte	0x42
 1721 02da 05       		.uleb128 0x5
 1722 02db 412A0000 		.4byte	.LASF109
 1723 02df 43       		.byte	0x43
ARM GAS  C:\Users\salaz\AppData\Local\Temp\ccnyouLe.s 			page 79


 1724 02e0 05       		.uleb128 0x5
 1725 02e1 BF0E0000 		.4byte	.LASF110
 1726 02e5 44       		.byte	0x44
 1727 02e6 05       		.uleb128 0x5
 1728 02e7 D3090000 		.4byte	.LASF111
 1729 02eb 45       		.byte	0x45
 1730 02ec 05       		.uleb128 0x5
 1731 02ed 02380000 		.4byte	.LASF112
 1732 02f1 46       		.byte	0x46
 1733 02f2 05       		.uleb128 0x5
 1734 02f3 07050000 		.4byte	.LASF113
 1735 02f7 47       		.byte	0x47
 1736 02f8 05       		.uleb128 0x5
 1737 02f9 4E170000 		.4byte	.LASF114
 1738 02fd 48       		.byte	0x48
 1739 02fe 05       		.uleb128 0x5
 1740 02ff 00440000 		.4byte	.LASF115
 1741 0303 49       		.byte	0x49
 1742 0304 05       		.uleb128 0x5
 1743 0305 D4260000 		.4byte	.LASF116
 1744 0309 4A       		.byte	0x4a
 1745 030a 05       		.uleb128 0x5
 1746 030b 9D220000 		.4byte	.LASF117
 1747 030f 4B       		.byte	0x4b
 1748 0310 05       		.uleb128 0x5
 1749 0311 EF330000 		.4byte	.LASF118
 1750 0315 4C       		.byte	0x4c
 1751 0316 05       		.uleb128 0x5
 1752 0317 B0180000 		.4byte	.LASF119
 1753 031b 4D       		.byte	0x4d
 1754 031c 05       		.uleb128 0x5
 1755 031d F8440000 		.4byte	.LASF120
 1756 0321 4E       		.byte	0x4e
 1757 0322 05       		.uleb128 0x5
 1758 0323 3C400000 		.4byte	.LASF121
 1759 0327 4F       		.byte	0x4f
 1760 0328 05       		.uleb128 0x5
 1761 0329 08270000 		.4byte	.LASF122
 1762 032d 50       		.byte	0x50
 1763 032e 05       		.uleb128 0x5
 1764 032f 9E070000 		.4byte	.LASF123
 1765 0333 51       		.byte	0x51
 1766 0334 05       		.uleb128 0x5
 1767 0335 1E380000 		.4byte	.LASF124
 1768 0339 52       		.byte	0x52
 1769 033a 05       		.uleb128 0x5
 1770 033b 361C0000 		.4byte	.LASF125
 1771 033f 53       		.byte	0x53
 1772 0340 05       		.uleb128 0x5
 1773 0341 A0380000 		.4byte	.LASF126
 1774 0345 54       		.byte	0x54
 1775 0346 05       		.uleb128 0x5
 1776 0347 6C050000 		.4byte	.LASF127
 1777 034b 55       		.byte	0x55
 1778 034c 05       		.uleb128 0x5
 1779 034d 06310000 		.4byte	.LASF128
 1780 0351 56       		.byte	0x56
ARM GAS  C:\Users\salaz\AppData\Local\Temp\ccnyouLe.s 			page 80


 1781 0352 05       		.uleb128 0x5
 1782 0353 01390000 		.4byte	.LASF129
 1783 0357 57       		.byte	0x57
 1784 0358 05       		.uleb128 0x5
 1785 0359 D8320000 		.4byte	.LASF130
 1786 035d 58       		.byte	0x58
 1787 035e 05       		.uleb128 0x5
 1788 035f D83E0000 		.4byte	.LASF131
 1789 0363 59       		.byte	0x59
 1790 0364 05       		.uleb128 0x5
 1791 0365 F1390000 		.4byte	.LASF132
 1792 0369 5A       		.byte	0x5a
 1793 036a 05       		.uleb128 0x5
 1794 036b FA020000 		.4byte	.LASF133
 1795 036f 5B       		.byte	0x5b
 1796 0370 05       		.uleb128 0x5
 1797 0371 041E0000 		.4byte	.LASF134
 1798 0375 5C       		.byte	0x5c
 1799 0376 05       		.uleb128 0x5
 1800 0377 64460000 		.4byte	.LASF135
 1801 037b 5D       		.byte	0x5d
 1802 037c 05       		.uleb128 0x5
 1803 037d 5A410000 		.4byte	.LASF136
 1804 0381 5E       		.byte	0x5e
 1805 0382 05       		.uleb128 0x5
 1806 0383 1C240000 		.4byte	.LASF137
 1807 0387 5F       		.byte	0x5f
 1808 0388 05       		.uleb128 0x5
 1809 0389 EA080000 		.4byte	.LASF138
 1810 038d 60       		.byte	0x60
 1811 038e 05       		.uleb128 0x5
 1812 038f 28040000 		.4byte	.LASF139
 1813 0393 61       		.byte	0x61
 1814 0394 05       		.uleb128 0x5
 1815 0395 683B0000 		.4byte	.LASF140
 1816 0399 62       		.byte	0x62
 1817 039a 05       		.uleb128 0x5
 1818 039b 26310000 		.4byte	.LASF141
 1819 039f 63       		.byte	0x63
 1820 03a0 05       		.uleb128 0x5
 1821 03a1 4D160000 		.4byte	.LASF142
 1822 03a5 64       		.byte	0x64
 1823 03a6 05       		.uleb128 0x5
 1824 03a7 902F0000 		.4byte	.LASF143
 1825 03ab 65       		.byte	0x65
 1826 03ac 05       		.uleb128 0x5
 1827 03ad 8B250000 		.4byte	.LASF144
 1828 03b1 66       		.byte	0x66
 1829 03b2 05       		.uleb128 0x5
 1830 03b3 6C210000 		.4byte	.LASF145
 1831 03b7 67       		.byte	0x67
 1832 03b8 05       		.uleb128 0x5
 1833 03b9 52050000 		.4byte	.LASF146
 1834 03bd 68       		.byte	0x68
 1835 03be 05       		.uleb128 0x5
 1836 03bf F8320000 		.4byte	.LASF147
 1837 03c3 69       		.byte	0x69
ARM GAS  C:\Users\salaz\AppData\Local\Temp\ccnyouLe.s 			page 81


 1838 03c4 05       		.uleb128 0x5
 1839 03c5 802D0000 		.4byte	.LASF148
 1840 03c9 6A       		.byte	0x6a
 1841 03ca 05       		.uleb128 0x5
 1842 03cb 213A0000 		.4byte	.LASF149
 1843 03cf 6B       		.byte	0x6b
 1844 03d0 05       		.uleb128 0x5
 1845 03d1 64180000 		.4byte	.LASF150
 1846 03d5 6C       		.byte	0x6c
 1847 03d6 05       		.uleb128 0x5
 1848 03d7 BF440000 		.4byte	.LASF151
 1849 03db 6D       		.byte	0x6d
 1850 03dc 05       		.uleb128 0x5
 1851 03dd 84270000 		.4byte	.LASF152
 1852 03e1 6E       		.byte	0x6e
 1853 03e2 05       		.uleb128 0x5
 1854 03e3 F60B0000 		.4byte	.LASF153
 1855 03e7 6F       		.byte	0x6f
 1856 03e8 05       		.uleb128 0x5
 1857 03e9 4F070000 		.4byte	.LASF154
 1858 03ed 70       		.byte	0x70
 1859 03ee 05       		.uleb128 0x5
 1860 03ef A9190000 		.4byte	.LASF155
 1861 03f3 71       		.byte	0x71
 1862 03f4 05       		.uleb128 0x5
 1863 03f5 C4190000 		.4byte	.LASF156
 1864 03f9 72       		.byte	0x72
 1865 03fa 05       		.uleb128 0x5
 1866 03fb 14150000 		.4byte	.LASF157
 1867 03ff 73       		.byte	0x73
 1868 0400 05       		.uleb128 0x5
 1869 0401 9C410000 		.4byte	.LASF158
 1870 0405 74       		.byte	0x74
 1871 0406 05       		.uleb128 0x5
 1872 0407 52240000 		.4byte	.LASF159
 1873 040b 75       		.byte	0x75
 1874 040c 05       		.uleb128 0x5
 1875 040d B71B0000 		.4byte	.LASF160
 1876 0411 76       		.byte	0x76
 1877 0412 05       		.uleb128 0x5
 1878 0413 EC480000 		.4byte	.LASF161
 1879 0417 77       		.byte	0x77
 1880 0418 05       		.uleb128 0x5
 1881 0419 372B0000 		.4byte	.LASF162
 1882 041d 78       		.byte	0x78
 1883 041e 05       		.uleb128 0x5
 1884 041f AA260000 		.4byte	.LASF163
 1885 0423 79       		.byte	0x79
 1886 0424 05       		.uleb128 0x5
 1887 0425 E00B0000 		.4byte	.LASF164
 1888 0429 7A       		.byte	0x7a
 1889 042a 05       		.uleb128 0x5
 1890 042b 0B3A0000 		.4byte	.LASF165
 1891 042f 7B       		.byte	0x7b
 1892 0430 05       		.uleb128 0x5
 1893 0431 771D0000 		.4byte	.LASF166
 1894 0435 7C       		.byte	0x7c
ARM GAS  C:\Users\salaz\AppData\Local\Temp\ccnyouLe.s 			page 82


 1895 0436 05       		.uleb128 0x5
 1896 0437 AC050000 		.4byte	.LASF167
 1897 043b 7D       		.byte	0x7d
 1898 043c 05       		.uleb128 0x5
 1899 043d 7E460000 		.4byte	.LASF168
 1900 0441 7E       		.byte	0x7e
 1901 0442 05       		.uleb128 0x5
 1902 0443 05290000 		.4byte	.LASF169
 1903 0447 7F       		.byte	0x7f
 1904 0448 05       		.uleb128 0x5
 1905 0449 0F0D0000 		.4byte	.LASF170
 1906 044d 80       		.byte	0x80
 1907 044e 05       		.uleb128 0x5
 1908 044f 04090000 		.4byte	.LASF171
 1909 0453 81       		.byte	0x81
 1910 0454 05       		.uleb128 0x5
 1911 0455 12370000 		.4byte	.LASF172
 1912 0459 82       		.byte	0x82
 1913 045a 05       		.uleb128 0x5
 1914 045b CC1A0000 		.4byte	.LASF173
 1915 045f 83       		.byte	0x83
 1916 0460 05       		.uleb128 0x5
 1917 0461 D0420000 		.4byte	.LASF174
 1918 0465 84       		.byte	0x84
 1919 0466 05       		.uleb128 0x5
 1920 0467 74250000 		.4byte	.LASF175
 1921 046b 85       		.byte	0x85
 1922 046c 05       		.uleb128 0x5
 1923 046d 2D210000 		.4byte	.LASF176
 1924 0471 86       		.byte	0x86
 1925 0472 05       		.uleb128 0x5
 1926 0473 3B050000 		.4byte	.LASF177
 1927 0477 87       		.byte	0x87
 1928 0478 05       		.uleb128 0x5
 1929 0479 AA370000 		.4byte	.LASF178
 1930 047d 88       		.byte	0x88
 1931 047e 05       		.uleb128 0x5
 1932 047f 2C2D0000 		.4byte	.LASF179
 1933 0483 89       		.byte	0x89
 1934 0484 05       		.uleb128 0x5
 1935 0485 F52B0000 		.4byte	.LASF180
 1936 0489 8A       		.byte	0x8a
 1937 048a 05       		.uleb128 0x5
 1938 048b D1390000 		.4byte	.LASF181
 1939 048f 8B       		.byte	0x8b
 1940 0490 05       		.uleb128 0x5
 1941 0491 DA310000 		.4byte	.LASF182
 1942 0495 8C       		.byte	0x8c
 1943 0496 05       		.uleb128 0x5
 1944 0497 6E340000 		.4byte	.LASF183
 1945 049b 8D       		.byte	0x8d
 1946 049c 05       		.uleb128 0x5
 1947 049d 3B070000 		.4byte	.LASF184
 1948 04a1 8E       		.byte	0x8e
 1949 04a2 05       		.uleb128 0x5
 1950 04a3 1C440000 		.4byte	.LASF185
 1951 04a7 8F       		.byte	0x8f
ARM GAS  C:\Users\salaz\AppData\Local\Temp\ccnyouLe.s 			page 83


 1952 04a8 05       		.uleb128 0x5
 1953 04a9 7A150000 		.4byte	.LASF186
 1954 04ad 90       		.byte	0x90
 1955 04ae 05       		.uleb128 0x5
 1956 04af 5D120000 		.4byte	.LASF187
 1957 04b3 91       		.byte	0x91
 1958 04b4 05       		.uleb128 0x5
 1959 04b5 D21B0000 		.4byte	.LASF188
 1960 04b9 92       		.byte	0x92
 1961 04ba 05       		.uleb128 0x5
 1962 04bb 29070000 		.4byte	.LASF189
 1963 04bf F0       		.byte	0xf0
 1964 04c0 00       		.byte	0
 1965 04c1 07       		.uleb128 0x7
 1966 04c2 1B420000 		.4byte	.LASF191
 1967 04c6 05       		.byte	0x5
 1968 04c7 9201     		.2byte	0x192
 1969 04c9 3C010000 		.4byte	0x13c
 1970 04cd 02       		.uleb128 0x2
 1971 04ce 01       		.byte	0x1
 1972 04cf 06       		.byte	0x6
 1973 04d0 C70F0000 		.4byte	.LASF192
 1974 04d4 06       		.uleb128 0x6
 1975 04d5 AE090000 		.4byte	.LASF193
 1976 04d9 06       		.byte	0x6
 1977 04da 1D       		.byte	0x1d
 1978 04db 2C000000 		.4byte	0x2c
 1979 04df 06       		.uleb128 0x6
 1980 04e0 47380000 		.4byte	.LASF194
 1981 04e4 06       		.byte	0x6
 1982 04e5 29       		.byte	0x29
 1983 04e6 2A010000 		.4byte	0x12a
 1984 04ea 06       		.uleb128 0x6
 1985 04eb 4A0D0000 		.4byte	.LASF195
 1986 04ef 06       		.byte	0x6
 1987 04f0 2B       		.byte	0x2b
 1988 04f1 F5040000 		.4byte	0x4f5
 1989 04f5 02       		.uleb128 0x2
 1990 04f6 02       		.byte	0x2
 1991 04f7 07       		.byte	0x7
 1992 04f8 3E450000 		.4byte	.LASF196
 1993 04fc 06       		.uleb128 0x6
 1994 04fd 09470000 		.4byte	.LASF197
 1995 0501 06       		.byte	0x6
 1996 0502 3F       		.byte	0x3f
 1997 0503 07050000 		.4byte	0x507
 1998 0507 02       		.uleb128 0x2
 1999 0508 04       		.byte	0x4
 2000 0509 05       		.byte	0x5
 2001 050a 5D0B0000 		.4byte	.LASF198
 2002 050e 06       		.uleb128 0x6
 2003 050f E5230000 		.4byte	.LASF199
 2004 0513 06       		.byte	0x6
 2005 0514 41       		.byte	0x41
 2006 0515 19050000 		.4byte	0x519
 2007 0519 02       		.uleb128 0x2
 2008 051a 04       		.byte	0x4
ARM GAS  C:\Users\salaz\AppData\Local\Temp\ccnyouLe.s 			page 84


 2009 051b 07       		.byte	0x7
 2010 051c 331F0000 		.4byte	.LASF200
 2011 0520 02       		.uleb128 0x2
 2012 0521 08       		.byte	0x8
 2013 0522 05       		.byte	0x5
 2014 0523 56180000 		.4byte	.LASF201
 2015 0527 06       		.uleb128 0x6
 2016 0528 B01E0000 		.4byte	.LASF202
 2017 052c 06       		.byte	0x6
 2018 052d 5B       		.byte	0x5b
 2019 052e 25000000 		.4byte	0x25
 2020 0532 08       		.uleb128 0x8
 2021 0533 04       		.byte	0x4
 2022 0534 05       		.byte	0x5
 2023 0535 696E7400 		.ascii	"int\000"
 2024 0539 02       		.uleb128 0x2
 2025 053a 04       		.byte	0x4
 2026 053b 07       		.byte	0x7
 2027 053c 1B290000 		.4byte	.LASF203
 2028 0540 06       		.uleb128 0x6
 2029 0541 F50F0000 		.4byte	.LASF204
 2030 0545 07       		.byte	0x7
 2031 0546 18       		.byte	0x18
 2032 0547 D4040000 		.4byte	0x4d4
 2033 054b 06       		.uleb128 0x6
 2034 054c 423E0000 		.4byte	.LASF205
 2035 0550 07       		.byte	0x7
 2036 0551 20       		.byte	0x20
 2037 0552 DF040000 		.4byte	0x4df
 2038 0556 06       		.uleb128 0x6
 2039 0557 65340000 		.4byte	.LASF206
 2040 055b 07       		.byte	0x7
 2041 055c 24       		.byte	0x24
 2042 055d EA040000 		.4byte	0x4ea
 2043 0561 06       		.uleb128 0x6
 2044 0562 C1370000 		.4byte	.LASF207
 2045 0566 07       		.byte	0x7
 2046 0567 2C       		.byte	0x2c
 2047 0568 FC040000 		.4byte	0x4fc
 2048 056c 06       		.uleb128 0x6
 2049 056d 8D430000 		.4byte	.LASF208
 2050 0571 07       		.byte	0x7
 2051 0572 30       		.byte	0x30
 2052 0573 0E050000 		.4byte	0x50e
 2053 0577 06       		.uleb128 0x6
 2054 0578 9A100000 		.4byte	.LASF209
 2055 057c 07       		.byte	0x7
 2056 057d 3C       		.byte	0x3c
 2057 057e 27050000 		.4byte	0x527
 2058 0582 09       		.uleb128 0x9
 2059 0583 2003     		.2byte	0x320
 2060 0585 04       		.byte	0x4
 2061 0586 4601     		.2byte	0x146
 2062 0588 14060000 		.4byte	0x614
 2063 058c 0A       		.uleb128 0xa
 2064 058d 29480000 		.4byte	.LASF210
 2065 0591 04       		.byte	0x4
ARM GAS  C:\Users\salaz\AppData\Local\Temp\ccnyouLe.s 			page 85


 2066 0592 4801     		.2byte	0x148
 2067 0594 30060000 		.4byte	0x630
 2068 0598 00       		.byte	0
 2069 0599 0A       		.uleb128 0xa
 2070 059a 83110000 		.4byte	.LASF211
 2071 059e 04       		.byte	0x4
 2072 059f 4901     		.2byte	0x149
 2073 05a1 35060000 		.4byte	0x635
 2074 05a5 04       		.byte	0x4
 2075 05a6 0A       		.uleb128 0xa
 2076 05a7 E1370000 		.4byte	.LASF212
 2077 05ab 04       		.byte	0x4
 2078 05ac 4A01     		.2byte	0x14a
 2079 05ae 45060000 		.4byte	0x645
 2080 05b2 80       		.byte	0x80
 2081 05b3 0A       		.uleb128 0xa
 2082 05b4 17000000 		.4byte	.LASF213
 2083 05b8 04       		.byte	0x4
 2084 05b9 4B01     		.2byte	0x14b
 2085 05bb 35060000 		.4byte	0x635
 2086 05bf 84       		.byte	0x84
 2087 05c0 0B       		.uleb128 0xb
 2088 05c1 A4190000 		.4byte	.LASF214
 2089 05c5 04       		.byte	0x4
 2090 05c6 4C01     		.2byte	0x14c
 2091 05c8 4A060000 		.4byte	0x64a
 2092 05cc 0001     		.2byte	0x100
 2093 05ce 0B       		.uleb128 0xb
 2094 05cf 38170000 		.4byte	.LASF215
 2095 05d3 04       		.byte	0x4
 2096 05d4 4D01     		.2byte	0x14d
 2097 05d6 35060000 		.4byte	0x635
 2098 05da 0401     		.2byte	0x104
 2099 05dc 0B       		.uleb128 0xb
 2100 05dd FD070000 		.4byte	.LASF216
 2101 05e1 04       		.byte	0x4
 2102 05e2 4E01     		.2byte	0x14e
 2103 05e4 4F060000 		.4byte	0x64f
 2104 05e8 8001     		.2byte	0x180
 2105 05ea 0B       		.uleb128 0xb
 2106 05eb CC140000 		.4byte	.LASF217
 2107 05ef 04       		.byte	0x4
 2108 05f0 4F01     		.2byte	0x14f
 2109 05f2 35060000 		.4byte	0x635
 2110 05f6 8401     		.2byte	0x184
 2111 05f8 0B       		.uleb128 0xb
 2112 05f9 B2110000 		.4byte	.LASF218
 2113 05fd 04       		.byte	0x4
 2114 05fe 5001     		.2byte	0x150
 2115 0600 54060000 		.4byte	0x654
 2116 0604 0002     		.2byte	0x200
 2117 0606 0C       		.uleb128 0xc
 2118 0607 495000   		.ascii	"IP\000"
 2119 060a 04       		.byte	0x4
 2120 060b 5101     		.2byte	0x151
 2121 060d 74060000 		.4byte	0x674
 2122 0611 0003     		.2byte	0x300
ARM GAS  C:\Users\salaz\AppData\Local\Temp\ccnyouLe.s 			page 86


 2123 0613 00       		.byte	0
 2124 0614 0D       		.uleb128 0xd
 2125 0615 2B060000 		.4byte	0x62b
 2126 0619 24060000 		.4byte	0x624
 2127 061d 0E       		.uleb128 0xe
 2128 061e 24060000 		.4byte	0x624
 2129 0622 00       		.byte	0
 2130 0623 00       		.byte	0
 2131 0624 02       		.uleb128 0x2
 2132 0625 04       		.byte	0x4
 2133 0626 07       		.byte	0x7
 2134 0627 96000000 		.4byte	.LASF219
 2135 062b 0F       		.uleb128 0xf
 2136 062c 6C050000 		.4byte	0x56c
 2137 0630 0F       		.uleb128 0xf
 2138 0631 14060000 		.4byte	0x614
 2139 0635 0D       		.uleb128 0xd
 2140 0636 6C050000 		.4byte	0x56c
 2141 063a 45060000 		.4byte	0x645
 2142 063e 0E       		.uleb128 0xe
 2143 063f 24060000 		.4byte	0x624
 2144 0643 1E       		.byte	0x1e
 2145 0644 00       		.byte	0
 2146 0645 0F       		.uleb128 0xf
 2147 0646 14060000 		.4byte	0x614
 2148 064a 0F       		.uleb128 0xf
 2149 064b 14060000 		.4byte	0x614
 2150 064f 0F       		.uleb128 0xf
 2151 0650 14060000 		.4byte	0x614
 2152 0654 0D       		.uleb128 0xd
 2153 0655 6C050000 		.4byte	0x56c
 2154 0659 64060000 		.4byte	0x664
 2155 065d 0E       		.uleb128 0xe
 2156 065e 24060000 		.4byte	0x624
 2157 0662 3F       		.byte	0x3f
 2158 0663 00       		.byte	0
 2159 0664 0D       		.uleb128 0xd
 2160 0665 2B060000 		.4byte	0x62b
 2161 0669 74060000 		.4byte	0x674
 2162 066d 0E       		.uleb128 0xe
 2163 066e 24060000 		.4byte	0x624
 2164 0672 07       		.byte	0x7
 2165 0673 00       		.byte	0
 2166 0674 0F       		.uleb128 0xf
 2167 0675 64060000 		.4byte	0x664
 2168 0679 07       		.uleb128 0x7
 2169 067a C4320000 		.4byte	.LASF220
 2170 067e 04       		.byte	0x4
 2171 067f 5201     		.2byte	0x152
 2172 0681 82050000 		.4byte	0x582
 2173 0685 10       		.uleb128 0x10
 2174 0686 2B060000 		.4byte	0x62b
 2175 068a 0F       		.uleb128 0xf
 2176 068b 40050000 		.4byte	0x540
 2177 068f 0D       		.uleb128 0xd
 2178 0690 85060000 		.4byte	0x685
 2179 0694 9F060000 		.4byte	0x69f
ARM GAS  C:\Users\salaz\AppData\Local\Temp\ccnyouLe.s 			page 87


 2180 0698 0E       		.uleb128 0xe
 2181 0699 24060000 		.4byte	0x624
 2182 069d 05       		.byte	0x5
 2183 069e 00       		.byte	0
 2184 069f 0D       		.uleb128 0xd
 2185 06a0 85060000 		.4byte	0x685
 2186 06a4 AF060000 		.4byte	0x6af
 2187 06a8 0E       		.uleb128 0xe
 2188 06a9 24060000 		.4byte	0x624
 2189 06ad 7F       		.byte	0x7f
 2190 06ae 00       		.byte	0
 2191 06af 0D       		.uleb128 0xd
 2192 06b0 85060000 		.4byte	0x685
 2193 06b4 BF060000 		.4byte	0x6bf
 2194 06b8 0E       		.uleb128 0xe
 2195 06b9 24060000 		.4byte	0x624
 2196 06bd 02       		.byte	0x2
 2197 06be 00       		.byte	0
 2198 06bf 0D       		.uleb128 0xd
 2199 06c0 85060000 		.4byte	0x685
 2200 06c4 CF060000 		.4byte	0x6cf
 2201 06c8 0E       		.uleb128 0xe
 2202 06c9 24060000 		.4byte	0x624
 2203 06cd 03       		.byte	0x3
 2204 06ce 00       		.byte	0
 2205 06cf 0D       		.uleb128 0xd
 2206 06d0 85060000 		.4byte	0x685
 2207 06d4 DF060000 		.4byte	0x6df
 2208 06d8 0E       		.uleb128 0xe
 2209 06d9 24060000 		.4byte	0x624
 2210 06dd 3E       		.byte	0x3e
 2211 06de 00       		.byte	0
 2212 06df 0D       		.uleb128 0xd
 2213 06e0 85060000 		.4byte	0x685
 2214 06e4 EF060000 		.4byte	0x6ef
 2215 06e8 0E       		.uleb128 0xe
 2216 06e9 24060000 		.4byte	0x624
 2217 06ed 1E       		.byte	0x1e
 2218 06ee 00       		.byte	0
 2219 06ef 0D       		.uleb128 0xd
 2220 06f0 85060000 		.4byte	0x685
 2221 06f4 FF060000 		.4byte	0x6ff
 2222 06f8 0E       		.uleb128 0xe
 2223 06f9 24060000 		.4byte	0x624
 2224 06fd 0B       		.byte	0xb
 2225 06fe 00       		.byte	0
 2226 06ff 0D       		.uleb128 0xd
 2227 0700 85060000 		.4byte	0x685
 2228 0704 0F070000 		.4byte	0x70f
 2229 0708 0E       		.uleb128 0xe
 2230 0709 24060000 		.4byte	0x624
 2231 070d 0C       		.byte	0xc
 2232 070e 00       		.byte	0
 2233 070f 0D       		.uleb128 0xd
 2234 0710 85060000 		.4byte	0x685
 2235 0714 1F070000 		.4byte	0x71f
 2236 0718 0E       		.uleb128 0xe
ARM GAS  C:\Users\salaz\AppData\Local\Temp\ccnyouLe.s 			page 88


 2237 0719 24060000 		.4byte	0x624
 2238 071d 0A       		.byte	0xa
 2239 071e 00       		.byte	0
 2240 071f 0D       		.uleb128 0xd
 2241 0720 85060000 		.4byte	0x685
 2242 0724 2F070000 		.4byte	0x72f
 2243 0728 0E       		.uleb128 0xe
 2244 0729 24060000 		.4byte	0x624
 2245 072d 2E       		.byte	0x2e
 2246 072e 00       		.byte	0
 2247 072f 0D       		.uleb128 0xd
 2248 0730 85060000 		.4byte	0x685
 2249 0734 3F070000 		.4byte	0x73f
 2250 0738 0E       		.uleb128 0xe
 2251 0739 24060000 		.4byte	0x624
 2252 073d 2D       		.byte	0x2d
 2253 073e 00       		.byte	0
 2254 073f 11       		.uleb128 0x11
 2255 0740 D00F     		.2byte	0xfd0
 2256 0742 08       		.byte	0x8
 2257 0743 21       		.byte	0x21
 2258 0744 C30A0000 		.4byte	0xac3
 2259 0748 12       		.uleb128 0x12
 2260 0749 28290000 		.4byte	.LASF221
 2261 074d 08       		.byte	0x8
 2262 074e 22       		.byte	0x22
 2263 074f 2B060000 		.4byte	0x62b
 2264 0753 00       		.byte	0
 2265 0754 12       		.uleb128 0x12
 2266 0755 FA380000 		.4byte	.LASF222
 2267 0759 08       		.byte	0x8
 2268 075a 23       		.byte	0x23
 2269 075b 85060000 		.4byte	0x685
 2270 075f 04       		.byte	0x4
 2271 0760 12       		.uleb128 0x12
 2272 0761 EC380000 		.4byte	.LASF223
 2273 0765 08       		.byte	0x8
 2274 0766 24       		.byte	0x24
 2275 0767 2B060000 		.4byte	0x62b
 2276 076b 08       		.byte	0x8
 2277 076c 12       		.uleb128 0x12
 2278 076d E2360000 		.4byte	.LASF224
 2279 0771 08       		.byte	0x8
 2280 0772 25       		.byte	0x25
 2281 0773 85060000 		.4byte	0x685
 2282 0777 0C       		.byte	0xc
 2283 0778 12       		.uleb128 0x12
 2284 0779 EB1B0000 		.4byte	.LASF225
 2285 077d 08       		.byte	0x8
 2286 077e 26       		.byte	0x26
 2287 077f C80A0000 		.4byte	0xac8
 2288 0783 10       		.byte	0x10
 2289 0784 12       		.uleb128 0x12
 2290 0785 320C0000 		.4byte	.LASF226
 2291 0789 08       		.byte	0x8
 2292 078a 27       		.byte	0x27
 2293 078b 2B060000 		.4byte	0x62b
ARM GAS  C:\Users\salaz\AppData\Local\Temp\ccnyouLe.s 			page 89


 2294 078f 20       		.byte	0x20
 2295 0790 12       		.uleb128 0x12
 2296 0791 A3100000 		.4byte	.LASF227
 2297 0795 08       		.byte	0x8
 2298 0796 28       		.byte	0x28
 2299 0797 85060000 		.4byte	0x685
 2300 079b 24       		.byte	0x24
 2301 079c 12       		.uleb128 0x12
 2302 079d 8D110000 		.4byte	.LASF228
 2303 07a1 08       		.byte	0x8
 2304 07a2 29       		.byte	0x29
 2305 07a3 D20A0000 		.4byte	0xad2
 2306 07a7 28       		.byte	0x28
 2307 07a8 12       		.uleb128 0x12
 2308 07a9 37020000 		.4byte	.LASF229
 2309 07ad 08       		.byte	0x8
 2310 07ae 2A       		.byte	0x2a
 2311 07af 2B060000 		.4byte	0x62b
 2312 07b3 40       		.byte	0x40
 2313 07b4 12       		.uleb128 0x12
 2314 07b5 8D160000 		.4byte	.LASF230
 2315 07b9 08       		.byte	0x8
 2316 07ba 2B       		.byte	0x2b
 2317 07bb 2B060000 		.4byte	0x62b
 2318 07bf 44       		.byte	0x44
 2319 07c0 12       		.uleb128 0x12
 2320 07c1 3C0E0000 		.4byte	.LASF231
 2321 07c5 08       		.byte	0x8
 2322 07c6 2C       		.byte	0x2c
 2323 07c7 2B060000 		.4byte	0x62b
 2324 07cb 48       		.byte	0x48
 2325 07cc 12       		.uleb128 0x12
 2326 07cd 1D1C0000 		.4byte	.LASF232
 2327 07d1 08       		.byte	0x8
 2328 07d2 2D       		.byte	0x2d
 2329 07d3 85060000 		.4byte	0x685
 2330 07d7 4C       		.byte	0x4c
 2331 07d8 12       		.uleb128 0x12
 2332 07d9 AC2C0000 		.4byte	.LASF233
 2333 07dd 08       		.byte	0x8
 2334 07de 2E       		.byte	0x2e
 2335 07df 2B060000 		.4byte	0x62b
 2336 07e3 50       		.byte	0x50
 2337 07e4 12       		.uleb128 0x12
 2338 07e5 38170000 		.4byte	.LASF215
 2339 07e9 08       		.byte	0x8
 2340 07ea 2F       		.byte	0x2f
 2341 07eb DC0A0000 		.4byte	0xadc
 2342 07ef 54       		.byte	0x54
 2343 07f0 12       		.uleb128 0x12
 2344 07f1 3B4A0000 		.4byte	.LASF234
 2345 07f5 08       		.byte	0x8
 2346 07f6 30       		.byte	0x30
 2347 07f7 2B060000 		.4byte	0x62b
 2348 07fb 60       		.byte	0x60
 2349 07fc 12       		.uleb128 0x12
 2350 07fd 0D430000 		.4byte	.LASF235
ARM GAS  C:\Users\salaz\AppData\Local\Temp\ccnyouLe.s 			page 90


 2351 0801 08       		.byte	0x8
 2352 0802 31       		.byte	0x31
 2353 0803 85060000 		.4byte	0x685
 2354 0807 64       		.byte	0x64
 2355 0808 12       		.uleb128 0x12
 2356 0809 4E0F0000 		.4byte	.LASF236
 2357 080d 08       		.byte	0x8
 2358 080e 32       		.byte	0x32
 2359 080f 2B060000 		.4byte	0x62b
 2360 0813 68       		.byte	0x68
 2361 0814 12       		.uleb128 0x12
 2362 0815 4C150000 		.4byte	.LASF237
 2363 0819 08       		.byte	0x8
 2364 081a 33       		.byte	0x33
 2365 081b 2B060000 		.4byte	0x62b
 2366 081f 6C       		.byte	0x6c
 2367 0820 12       		.uleb128 0x12
 2368 0821 02080000 		.4byte	.LASF238
 2369 0825 08       		.byte	0x8
 2370 0826 34       		.byte	0x34
 2371 0827 2B060000 		.4byte	0x62b
 2372 082b 70       		.byte	0x70
 2373 082c 12       		.uleb128 0x12
 2374 082d CC140000 		.4byte	.LASF217
 2375 0831 08       		.byte	0x8
 2376 0832 35       		.byte	0x35
 2377 0833 F60A0000 		.4byte	0xaf6
 2378 0837 74       		.byte	0x74
 2379 0838 13       		.uleb128 0x13
 2380 0839 94390000 		.4byte	.LASF239
 2381 083d 08       		.byte	0x8
 2382 083e 36       		.byte	0x36
 2383 083f 2B060000 		.4byte	0x62b
 2384 0843 0001     		.2byte	0x100
 2385 0845 13       		.uleb128 0x13
 2386 0846 B2110000 		.4byte	.LASF218
 2387 084a 08       		.byte	0x8
 2388 084b 37       		.byte	0x37
 2389 084c 000B0000 		.4byte	0xb00
 2390 0850 0401     		.2byte	0x104
 2391 0852 13       		.uleb128 0x13
 2392 0853 B52B0000 		.4byte	.LASF240
 2393 0857 08       		.byte	0x8
 2394 0858 38       		.byte	0x38
 2395 0859 2B060000 		.4byte	0x62b
 2396 085d 0002     		.2byte	0x200
 2397 085f 13       		.uleb128 0x13
 2398 0860 DB340000 		.4byte	.LASF241
 2399 0864 08       		.byte	0x8
 2400 0865 39       		.byte	0x39
 2401 0866 2B060000 		.4byte	0x62b
 2402 086a 0402     		.2byte	0x204
 2403 086c 13       		.uleb128 0x13
 2404 086d FA130000 		.4byte	.LASF242
 2405 0871 08       		.byte	0x8
 2406 0872 3A       		.byte	0x3a
 2407 0873 85060000 		.4byte	0x685
ARM GAS  C:\Users\salaz\AppData\Local\Temp\ccnyouLe.s 			page 91


 2408 0877 0802     		.2byte	0x208
 2409 0879 13       		.uleb128 0x13
 2410 087a BC110000 		.4byte	.LASF243
 2411 087e 08       		.byte	0x8
 2412 087f 3B       		.byte	0x3b
 2413 0880 0A0B0000 		.4byte	0xb0a
 2414 0884 0C02     		.2byte	0x20c
 2415 0886 13       		.uleb128 0x13
 2416 0887 EF160000 		.4byte	.LASF244
 2417 088b 08       		.byte	0x8
 2418 088c 3C       		.byte	0x3c
 2419 088d 2B060000 		.4byte	0x62b
 2420 0891 4002     		.2byte	0x240
 2421 0893 13       		.uleb128 0x13
 2422 0894 C6110000 		.4byte	.LASF245
 2423 0898 08       		.byte	0x8
 2424 0899 3D       		.byte	0x3d
 2425 089a 140B0000 		.4byte	0xb14
 2426 089e 4402     		.2byte	0x244
 2427 08a0 13       		.uleb128 0x13
 2428 08a1 14240000 		.4byte	.LASF246
 2429 08a5 08       		.byte	0x8
 2430 08a6 3E       		.byte	0x3e
 2431 08a7 2B060000 		.4byte	0x62b
 2432 08ab 0003     		.2byte	0x300
 2433 08ad 13       		.uleb128 0x13
 2434 08ae CB3E0000 		.4byte	.LASF247
 2435 08b2 08       		.byte	0x8
 2436 08b3 3F       		.byte	0x3f
 2437 08b4 2B060000 		.4byte	0x62b
 2438 08b8 0403     		.2byte	0x304
 2439 08ba 13       		.uleb128 0x13
 2440 08bb 69090000 		.4byte	.LASF248
 2441 08bf 08       		.byte	0x8
 2442 08c0 40       		.byte	0x40
 2443 08c1 85060000 		.4byte	0x685
 2444 08c5 0803     		.2byte	0x308
 2445 08c7 13       		.uleb128 0x13
 2446 08c8 D0110000 		.4byte	.LASF249
 2447 08cc 08       		.byte	0x8
 2448 08cd 41       		.byte	0x41
 2449 08ce 85060000 		.4byte	0x685
 2450 08d2 0C03     		.2byte	0x30c
 2451 08d4 13       		.uleb128 0x13
 2452 08d5 51010000 		.4byte	.LASF250
 2453 08d9 08       		.byte	0x8
 2454 08da 42       		.byte	0x42
 2455 08db 2B060000 		.4byte	0x62b
 2456 08df 1003     		.2byte	0x310
 2457 08e1 13       		.uleb128 0x13
 2458 08e2 DA110000 		.4byte	.LASF251
 2459 08e6 08       		.byte	0x8
 2460 08e7 43       		.byte	0x43
 2461 08e8 1E0B0000 		.4byte	0xb1e
 2462 08ec 1403     		.2byte	0x314
 2463 08ee 13       		.uleb128 0x13
 2464 08ef 133C0000 		.4byte	.LASF252
ARM GAS  C:\Users\salaz\AppData\Local\Temp\ccnyouLe.s 			page 92


 2465 08f3 08       		.byte	0x8
 2466 08f4 44       		.byte	0x44
 2467 08f5 85060000 		.4byte	0x685
 2468 08f9 4003     		.2byte	0x340
 2469 08fb 13       		.uleb128 0x13
 2470 08fc DA440000 		.4byte	.LASF253
 2471 0900 08       		.byte	0x8
 2472 0901 45       		.byte	0x45
 2473 0902 85060000 		.4byte	0x685
 2474 0906 4403     		.2byte	0x344
 2475 0908 13       		.uleb128 0x13
 2476 0909 E4110000 		.4byte	.LASF254
 2477 090d 08       		.byte	0x8
 2478 090e 46       		.byte	0x46
 2479 090f 280B0000 		.4byte	0xb28
 2480 0913 4803     		.2byte	0x348
 2481 0915 13       		.uleb128 0x13
 2482 0916 F0230000 		.4byte	.LASF255
 2483 091a 08       		.byte	0x8
 2484 091b 47       		.byte	0x47
 2485 091c 3E0B0000 		.4byte	0xb3e
 2486 0920 0004     		.2byte	0x400
 2487 0922 13       		.uleb128 0x13
 2488 0923 4B350000 		.4byte	.LASF256
 2489 0927 08       		.byte	0x8
 2490 0928 48       		.byte	0x48
 2491 0929 480B0000 		.4byte	0xb48
 2492 092d 000C     		.2byte	0xc00
 2493 092f 13       		.uleb128 0x13
 2494 0930 2C020000 		.4byte	.LASF257
 2495 0934 08       		.byte	0x8
 2496 0935 49       		.byte	0x49
 2497 0936 85060000 		.4byte	0x685
 2498 093a 000E     		.2byte	0xe00
 2499 093c 13       		.uleb128 0x13
 2500 093d 32460000 		.4byte	.LASF258
 2501 0941 08       		.byte	0x8
 2502 0942 4A       		.byte	0x4a
 2503 0943 520B0000 		.4byte	0xb52
 2504 0947 040E     		.2byte	0xe04
 2505 0949 13       		.uleb128 0x13
 2506 094a E91C0000 		.4byte	.LASF259
 2507 094e 08       		.byte	0x8
 2508 094f 4B       		.byte	0x4b
 2509 0950 2B060000 		.4byte	0x62b
 2510 0954 800E     		.2byte	0xe80
 2511 0956 13       		.uleb128 0x13
 2512 0957 61350000 		.4byte	.LASF260
 2513 095b 08       		.byte	0x8
 2514 095c 4C       		.byte	0x4c
 2515 095d 85060000 		.4byte	0x685
 2516 0961 840E     		.2byte	0xe84
 2517 0963 13       		.uleb128 0x13
 2518 0964 CB2B0000 		.4byte	.LASF261
 2519 0968 08       		.byte	0x8
 2520 0969 4D       		.byte	0x4d
 2521 096a 2B060000 		.4byte	0x62b
ARM GAS  C:\Users\salaz\AppData\Local\Temp\ccnyouLe.s 			page 93


 2522 096e 880E     		.2byte	0xe88
 2523 0970 13       		.uleb128 0x13
 2524 0971 4E390000 		.4byte	.LASF262
 2525 0975 08       		.byte	0x8
 2526 0976 4E       		.byte	0x4e
 2527 0977 85060000 		.4byte	0x685
 2528 097b 8C0E     		.2byte	0xe8c
 2529 097d 13       		.uleb128 0x13
 2530 097e 59460000 		.4byte	.LASF263
 2531 0982 08       		.byte	0x8
 2532 0983 4F       		.byte	0x4f
 2533 0984 5C0B0000 		.4byte	0xb5c
 2534 0988 900E     		.2byte	0xe90
 2535 098a 13       		.uleb128 0x13
 2536 098b B0300000 		.4byte	.LASF264
 2537 098f 08       		.byte	0x8
 2538 0990 50       		.byte	0x50
 2539 0991 2B060000 		.4byte	0x62b
 2540 0995 C00E     		.2byte	0xec0
 2541 0997 13       		.uleb128 0x13
 2542 0998 7D350000 		.4byte	.LASF265
 2543 099c 08       		.byte	0x8
 2544 099d 51       		.byte	0x51
 2545 099e 85060000 		.4byte	0x685
 2546 09a2 C40E     		.2byte	0xec4
 2547 09a4 13       		.uleb128 0x13
 2548 09a5 B52E0000 		.4byte	.LASF266
 2549 09a9 08       		.byte	0x8
 2550 09aa 52       		.byte	0x52
 2551 09ab 2B060000 		.4byte	0x62b
 2552 09af C80E     		.2byte	0xec8
 2553 09b1 13       		.uleb128 0x13
 2554 09b2 A23A0000 		.4byte	.LASF267
 2555 09b6 08       		.byte	0x8
 2556 09b7 53       		.byte	0x53
 2557 09b8 85060000 		.4byte	0x685
 2558 09bc CC0E     		.2byte	0xecc
 2559 09be 13       		.uleb128 0x13
 2560 09bf 88350000 		.4byte	.LASF268
 2561 09c3 08       		.byte	0x8
 2562 09c4 54       		.byte	0x54
 2563 09c5 660B0000 		.4byte	0xb66
 2564 09c9 D00E     		.2byte	0xed0
 2565 09cb 13       		.uleb128 0x13
 2566 09cc 09060000 		.4byte	.LASF269
 2567 09d0 08       		.byte	0x8
 2568 09d1 55       		.byte	0x55
 2569 09d2 2B060000 		.4byte	0x62b
 2570 09d6 000F     		.2byte	0xf00
 2571 09d8 13       		.uleb128 0x13
 2572 09d9 883A0000 		.4byte	.LASF270
 2573 09dd 08       		.byte	0x8
 2574 09de 56       		.byte	0x56
 2575 09df 2B060000 		.4byte	0x62b
 2576 09e3 040F     		.2byte	0xf04
 2577 09e5 13       		.uleb128 0x13
 2578 09e6 533D0000 		.4byte	.LASF271
ARM GAS  C:\Users\salaz\AppData\Local\Temp\ccnyouLe.s 			page 94


 2579 09ea 08       		.byte	0x8
 2580 09eb 57       		.byte	0x57
 2581 09ec 2B060000 		.4byte	0x62b
 2582 09f0 080F     		.2byte	0xf08
 2583 09f2 13       		.uleb128 0x13
 2584 09f3 66250000 		.4byte	.LASF272
 2585 09f7 08       		.byte	0x8
 2586 09f8 58       		.byte	0x58
 2587 09f9 85060000 		.4byte	0x685
 2588 09fd 0C0F     		.2byte	0xf0c
 2589 09ff 13       		.uleb128 0x13
 2590 0a00 BD460000 		.4byte	.LASF273
 2591 0a04 08       		.byte	0x8
 2592 0a05 59       		.byte	0x59
 2593 0a06 700B0000 		.4byte	0xb70
 2594 0a0a 100F     		.2byte	0xf10
 2595 0a0c 13       		.uleb128 0x13
 2596 0a0d BF150000 		.4byte	.LASF274
 2597 0a11 08       		.byte	0x8
 2598 0a12 5A       		.byte	0x5a
 2599 0a13 2B060000 		.4byte	0x62b
 2600 0a17 400F     		.2byte	0xf40
 2601 0a19 13       		.uleb128 0x13
 2602 0a1a 063F0000 		.4byte	.LASF275
 2603 0a1e 08       		.byte	0x8
 2604 0a1f 5B       		.byte	0x5b
 2605 0a20 2B060000 		.4byte	0x62b
 2606 0a24 440F     		.2byte	0xf44
 2607 0a26 13       		.uleb128 0x13
 2608 0a27 3B3A0000 		.4byte	.LASF276
 2609 0a2b 08       		.byte	0x8
 2610 0a2c 5C       		.byte	0x5c
 2611 0a2d 2B060000 		.4byte	0x62b
 2612 0a31 480F     		.2byte	0xf48
 2613 0a33 13       		.uleb128 0x13
 2614 0a34 EE2F0000 		.4byte	.LASF277
 2615 0a38 08       		.byte	0x8
 2616 0a39 5D       		.byte	0x5d
 2617 0a3a 85060000 		.4byte	0x685
 2618 0a3e 4C0F     		.2byte	0xf4c
 2619 0a40 13       		.uleb128 0x13
 2620 0a41 B4350000 		.4byte	.LASF278
 2621 0a45 08       		.byte	0x8
 2622 0a46 5E       		.byte	0x5e
 2623 0a47 7A0B0000 		.4byte	0xb7a
 2624 0a4b 500F     		.2byte	0xf50
 2625 0a4d 13       		.uleb128 0x13
 2626 0a4e 810C0000 		.4byte	.LASF279
 2627 0a52 08       		.byte	0x8
 2628 0a53 5F       		.byte	0x5f
 2629 0a54 2B060000 		.4byte	0x62b
 2630 0a58 800F     		.2byte	0xf80
 2631 0a5a 13       		.uleb128 0x13
 2632 0a5b 4C360000 		.4byte	.LASF280
 2633 0a5f 08       		.byte	0x8
 2634 0a60 60       		.byte	0x60
 2635 0a61 2B060000 		.4byte	0x62b
ARM GAS  C:\Users\salaz\AppData\Local\Temp\ccnyouLe.s 			page 95


 2636 0a65 840F     		.2byte	0xf84
 2637 0a67 13       		.uleb128 0x13
 2638 0a68 A5110000 		.4byte	.LASF281
 2639 0a6c 08       		.byte	0x8
 2640 0a6d 61       		.byte	0x61
 2641 0a6e 2B060000 		.4byte	0x62b
 2642 0a72 880F     		.2byte	0xf88
 2643 0a74 13       		.uleb128 0x13
 2644 0a75 BC0C0000 		.4byte	.LASF282
 2645 0a79 08       		.byte	0x8
 2646 0a7a 62       		.byte	0x62
 2647 0a7b 85060000 		.4byte	0x685
 2648 0a7f 8C0F     		.2byte	0xf8c
 2649 0a81 13       		.uleb128 0x13
 2650 0a82 BF350000 		.4byte	.LASF283
 2651 0a86 08       		.byte	0x8
 2652 0a87 63       		.byte	0x63
 2653 0a88 840B0000 		.4byte	0xb84
 2654 0a8c 900F     		.2byte	0xf90
 2655 0a8e 13       		.uleb128 0x13
 2656 0a8f F5070000 		.4byte	.LASF284
 2657 0a93 08       		.byte	0x8
 2658 0a94 64       		.byte	0x64
 2659 0a95 2B060000 		.4byte	0x62b
 2660 0a99 C00F     		.2byte	0xfc0
 2661 0a9b 13       		.uleb128 0x13
 2662 0a9c 740E0000 		.4byte	.LASF285
 2663 0aa0 08       		.byte	0x8
 2664 0aa1 65       		.byte	0x65
 2665 0aa2 2B060000 		.4byte	0x62b
 2666 0aa6 C40F     		.2byte	0xfc4
 2667 0aa8 13       		.uleb128 0x13
 2668 0aa9 F7090000 		.4byte	.LASF286
 2669 0aad 08       		.byte	0x8
 2670 0aae 66       		.byte	0x66
 2671 0aaf 2B060000 		.4byte	0x62b
 2672 0ab3 C80F     		.2byte	0xfc8
 2673 0ab5 13       		.uleb128 0x13
 2674 0ab6 C43A0000 		.4byte	.LASF287
 2675 0aba 08       		.byte	0x8
 2676 0abb 67       		.byte	0x67
 2677 0abc 85060000 		.4byte	0x685
 2678 0ac0 CC0F     		.2byte	0xfcc
 2679 0ac2 00       		.byte	0
 2680 0ac3 0F       		.uleb128 0xf
 2681 0ac4 BF060000 		.4byte	0x6bf
 2682 0ac8 10       		.uleb128 0x10
 2683 0ac9 C30A0000 		.4byte	0xac3
 2684 0acd 0F       		.uleb128 0xf
 2685 0ace 8F060000 		.4byte	0x68f
 2686 0ad2 10       		.uleb128 0x10
 2687 0ad3 CD0A0000 		.4byte	0xacd
 2688 0ad7 0F       		.uleb128 0xf
 2689 0ad8 AF060000 		.4byte	0x6af
 2690 0adc 10       		.uleb128 0x10
 2691 0add D70A0000 		.4byte	0xad7
 2692 0ae1 0D       		.uleb128 0xd
ARM GAS  C:\Users\salaz\AppData\Local\Temp\ccnyouLe.s 			page 96


 2693 0ae2 85060000 		.4byte	0x685
 2694 0ae6 F10A0000 		.4byte	0xaf1
 2695 0aea 0E       		.uleb128 0xe
 2696 0aeb 24060000 		.4byte	0x624
 2697 0aef 22       		.byte	0x22
 2698 0af0 00       		.byte	0
 2699 0af1 0F       		.uleb128 0xf
 2700 0af2 E10A0000 		.4byte	0xae1
 2701 0af6 10       		.uleb128 0x10
 2702 0af7 F10A0000 		.4byte	0xaf1
 2703 0afb 0F       		.uleb128 0xf
 2704 0afc CF060000 		.4byte	0x6cf
 2705 0b00 10       		.uleb128 0x10
 2706 0b01 FB0A0000 		.4byte	0xafb
 2707 0b05 0F       		.uleb128 0xf
 2708 0b06 FF060000 		.4byte	0x6ff
 2709 0b0a 10       		.uleb128 0x10
 2710 0b0b 050B0000 		.4byte	0xb05
 2711 0b0f 0F       		.uleb128 0xf
 2712 0b10 1F070000 		.4byte	0x71f
 2713 0b14 10       		.uleb128 0x10
 2714 0b15 0F0B0000 		.4byte	0xb0f
 2715 0b19 0F       		.uleb128 0xf
 2716 0b1a 0F070000 		.4byte	0x70f
 2717 0b1e 10       		.uleb128 0x10
 2718 0b1f 190B0000 		.4byte	0xb19
 2719 0b23 0F       		.uleb128 0xf
 2720 0b24 2F070000 		.4byte	0x72f
 2721 0b28 10       		.uleb128 0x10
 2722 0b29 230B0000 		.4byte	0xb23
 2723 0b2d 0D       		.uleb128 0xd
 2724 0b2e 2B060000 		.4byte	0x62b
 2725 0b32 3E0B0000 		.4byte	0xb3e
 2726 0b36 14       		.uleb128 0x14
 2727 0b37 24060000 		.4byte	0x624
 2728 0b3b FF01     		.2byte	0x1ff
 2729 0b3d 00       		.byte	0
 2730 0b3e 0F       		.uleb128 0xf
 2731 0b3f 2D0B0000 		.4byte	0xb2d
 2732 0b43 0F       		.uleb128 0xf
 2733 0b44 9F060000 		.4byte	0x69f
 2734 0b48 10       		.uleb128 0x10
 2735 0b49 430B0000 		.4byte	0xb43
 2736 0b4d 0F       		.uleb128 0xf
 2737 0b4e DF060000 		.4byte	0x6df
 2738 0b52 10       		.uleb128 0x10
 2739 0b53 4D0B0000 		.4byte	0xb4d
 2740 0b57 0F       		.uleb128 0xf
 2741 0b58 EF060000 		.4byte	0x6ef
 2742 0b5c 10       		.uleb128 0x10
 2743 0b5d 570B0000 		.4byte	0xb57
 2744 0b61 0F       		.uleb128 0xf
 2745 0b62 EF060000 		.4byte	0x6ef
 2746 0b66 10       		.uleb128 0x10
 2747 0b67 610B0000 		.4byte	0xb61
 2748 0b6b 0F       		.uleb128 0xf
 2749 0b6c EF060000 		.4byte	0x6ef
ARM GAS  C:\Users\salaz\AppData\Local\Temp\ccnyouLe.s 			page 97


 2750 0b70 10       		.uleb128 0x10
 2751 0b71 6B0B0000 		.4byte	0xb6b
 2752 0b75 0F       		.uleb128 0xf
 2753 0b76 EF060000 		.4byte	0x6ef
 2754 0b7a 10       		.uleb128 0x10
 2755 0b7b 750B0000 		.4byte	0xb75
 2756 0b7f 0F       		.uleb128 0xf
 2757 0b80 EF060000 		.4byte	0x6ef
 2758 0b84 10       		.uleb128 0x10
 2759 0b85 7F0B0000 		.4byte	0xb7f
 2760 0b89 06       		.uleb128 0x6
 2761 0b8a 732E0000 		.4byte	.LASF288
 2762 0b8e 08       		.byte	0x8
 2763 0b8f 68       		.byte	0x68
 2764 0b90 3F070000 		.4byte	0x73f
 2765 0b94 02       		.uleb128 0x2
 2766 0b95 08       		.byte	0x8
 2767 0b96 04       		.byte	0x4
 2768 0b97 42170000 		.4byte	.LASF289
 2769 0b9b 02       		.uleb128 0x2
 2770 0b9c 01       		.byte	0x1
 2771 0b9d 08       		.byte	0x8
 2772 0b9e 3D150000 		.4byte	.LASF290
 2773 0ba2 02       		.uleb128 0x2
 2774 0ba3 04       		.byte	0x4
 2775 0ba4 04       		.byte	0x4
 2776 0ba5 AF270000 		.4byte	.LASF291
 2777 0ba9 02       		.uleb128 0x2
 2778 0baa 08       		.byte	0x8
 2779 0bab 04       		.byte	0x4
 2780 0bac C4250000 		.4byte	.LASF292
 2781 0bb0 07       		.uleb128 0x7
 2782 0bb1 5B3C0000 		.4byte	.LASF293
 2783 0bb5 09       		.byte	0x9
 2784 0bb6 8503     		.2byte	0x385
 2785 0bb8 40050000 		.4byte	0x540
 2786 0bbc 07       		.uleb128 0x7
 2787 0bbd FA490000 		.4byte	.LASF294
 2788 0bc1 09       		.byte	0x9
 2789 0bc2 8603     		.2byte	0x386
 2790 0bc4 56050000 		.4byte	0x556
 2791 0bc8 07       		.uleb128 0x7
 2792 0bc9 F5030000 		.4byte	.LASF295
 2793 0bcd 09       		.byte	0x9
 2794 0bce 8703     		.2byte	0x387
 2795 0bd0 6C050000 		.4byte	0x56c
 2796 0bd4 07       		.uleb128 0x7
 2797 0bd5 08410000 		.4byte	.LASF296
 2798 0bd9 09       		.byte	0x9
 2799 0bda 8903     		.2byte	0x389
 2800 0bdc 4B050000 		.4byte	0x54b
 2801 0be0 07       		.uleb128 0x7
 2802 0be1 560B0000 		.4byte	.LASF297
 2803 0be5 09       		.byte	0x9
 2804 0be6 8E03     		.2byte	0x38e
 2805 0be8 77050000 		.4byte	0x577
 2806 0bec 07       		.uleb128 0x7
ARM GAS  C:\Users\salaz\AppData\Local\Temp\ccnyouLe.s 			page 98


 2807 0bed EC0C0000 		.4byte	.LASF298
 2808 0bf1 09       		.byte	0x9
 2809 0bf2 9003     		.2byte	0x390
 2810 0bf4 9B0B0000 		.4byte	0xb9b
 2811 0bf8 15       		.uleb128 0x15
 2812 0bf9 08       		.byte	0x8
 2813 0bfa 0A       		.byte	0xa
 2814 0bfb EB       		.byte	0xeb
 2815 0bfc 250C0000 		.4byte	0xc25
 2816 0c00 12       		.uleb128 0x12
 2817 0c01 EF090000 		.4byte	.LASF299
 2818 0c05 0A       		.byte	0xa
 2819 0c06 EC       		.byte	0xec
 2820 0c07 31010000 		.4byte	0x131
 2821 0c0b 00       		.byte	0
 2822 0c0c 12       		.uleb128 0x12
 2823 0c0d 451F0000 		.4byte	.LASF300
 2824 0c11 0A       		.byte	0xa
 2825 0c12 EE       		.byte	0xee
 2826 0c13 C1040000 		.4byte	0x4c1
 2827 0c17 02       		.byte	0x2
 2828 0c18 12       		.uleb128 0x12
 2829 0c19 36320000 		.4byte	.LASF301
 2830 0c1d 0A       		.byte	0xa
 2831 0c1e F0       		.byte	0xf0
 2832 0c1f 6C050000 		.4byte	0x56c
 2833 0c23 04       		.byte	0x4
 2834 0c24 00       		.byte	0
 2835 0c25 06       		.uleb128 0x6
 2836 0c26 D81F0000 		.4byte	.LASF302
 2837 0c2a 0A       		.byte	0xa
 2838 0c2b F1       		.byte	0xf1
 2839 0c2c F80B0000 		.4byte	0xbf8
 2840 0c30 16       		.uleb128 0x16
 2841 0c31 04       		.byte	0x4
 2842 0c32 02       		.uleb128 0x2
 2843 0c33 01       		.byte	0x1
 2844 0c34 02       		.byte	0x2
 2845 0c35 F4130000 		.4byte	.LASF303
 2846 0c39 17       		.uleb128 0x17
 2847 0c3a BA210000 		.4byte	.LASF324
 2848 0c3e 4C       		.byte	0x4c
 2849 0c3f 0B       		.byte	0xb
 2850 0c40 2B       		.byte	0x2b
 2851 0c41 2A0D0000 		.4byte	0xd2a
 2852 0c45 12       		.uleb128 0x12
 2853 0c46 FB370000 		.4byte	.LASF304
 2854 0c4a 0B       		.byte	0xb
 2855 0c4b 2D       		.byte	0x2d
 2856 0c4c 6C050000 		.4byte	0x56c
 2857 0c50 00       		.byte	0
 2858 0c51 12       		.uleb128 0x12
 2859 0c52 1F170000 		.4byte	.LASF305
 2860 0c56 0B       		.byte	0xb
 2861 0c57 2F       		.byte	0x2f
 2862 0c58 6C050000 		.4byte	0x56c
 2863 0c5c 04       		.byte	0x4
ARM GAS  C:\Users\salaz\AppData\Local\Temp\ccnyouLe.s 			page 99


 2864 0c5d 12       		.uleb128 0x12
 2865 0c5e 45160000 		.4byte	.LASF306
 2866 0c62 0B       		.byte	0xb
 2867 0c63 30       		.byte	0x30
 2868 0c64 6C050000 		.4byte	0x56c
 2869 0c68 08       		.byte	0x8
 2870 0c69 12       		.uleb128 0x12
 2871 0c6a 4B2C0000 		.4byte	.LASF307
 2872 0c6e 0B       		.byte	0xb
 2873 0c6f 31       		.byte	0x31
 2874 0c70 6C050000 		.4byte	0x56c
 2875 0c74 0C       		.byte	0xc
 2876 0c75 12       		.uleb128 0x12
 2877 0c76 18430000 		.4byte	.LASF308
 2878 0c7a 0B       		.byte	0xb
 2879 0c7b 33       		.byte	0x33
 2880 0c7c 6C050000 		.4byte	0x56c
 2881 0c80 10       		.byte	0x10
 2882 0c81 12       		.uleb128 0x12
 2883 0c82 55060000 		.4byte	.LASF309
 2884 0c86 0B       		.byte	0xb
 2885 0c87 34       		.byte	0x34
 2886 0c88 6C050000 		.4byte	0x56c
 2887 0c8c 14       		.byte	0x14
 2888 0c8d 12       		.uleb128 0x12
 2889 0c8e 5E060000 		.4byte	.LASF310
 2890 0c92 0B       		.byte	0xb
 2891 0c93 35       		.byte	0x35
 2892 0c94 6C050000 		.4byte	0x56c
 2893 0c98 18       		.byte	0x18
 2894 0c99 12       		.uleb128 0x12
 2895 0c9a 6B2A0000 		.4byte	.LASF311
 2896 0c9e 0B       		.byte	0xb
 2897 0c9f 36       		.byte	0x36
 2898 0ca0 320C0000 		.4byte	0xc32
 2899 0ca4 1C       		.byte	0x1c
 2900 0ca5 12       		.uleb128 0x12
 2901 0ca6 5A230000 		.4byte	.LASF312
 2902 0caa 0B       		.byte	0xb
 2903 0cab 38       		.byte	0x38
 2904 0cac 6C050000 		.4byte	0x56c
 2905 0cb0 20       		.byte	0x20
 2906 0cb1 12       		.uleb128 0x12
 2907 0cb2 41020000 		.4byte	.LASF313
 2908 0cb6 0B       		.byte	0xb
 2909 0cb7 39       		.byte	0x39
 2910 0cb8 6C050000 		.4byte	0x56c
 2911 0cbc 24       		.byte	0x24
 2912 0cbd 12       		.uleb128 0x12
 2913 0cbe FE470000 		.4byte	.LASF314
 2914 0cc2 0B       		.byte	0xb
 2915 0cc3 3B       		.byte	0x3b
 2916 0cc4 6C050000 		.4byte	0x56c
 2917 0cc8 28       		.byte	0x28
 2918 0cc9 12       		.uleb128 0x12
 2919 0cca 710C0000 		.4byte	.LASF315
 2920 0cce 0B       		.byte	0xb
ARM GAS  C:\Users\salaz\AppData\Local\Temp\ccnyouLe.s 			page 100


 2921 0ccf 3C       		.byte	0x3c
 2922 0cd0 6C050000 		.4byte	0x56c
 2923 0cd4 2C       		.byte	0x2c
 2924 0cd5 12       		.uleb128 0x12
 2925 0cd6 F2470000 		.4byte	.LASF316
 2926 0cda 0B       		.byte	0xb
 2927 0cdb 3E       		.byte	0x3e
 2928 0cdc 6C050000 		.4byte	0x56c
 2929 0ce0 30       		.byte	0x30
 2930 0ce1 12       		.uleb128 0x12
 2931 0ce2 503B0000 		.4byte	.LASF317
 2932 0ce6 0B       		.byte	0xb
 2933 0ce7 3F       		.byte	0x3f
 2934 0ce8 6C050000 		.4byte	0x56c
 2935 0cec 34       		.byte	0x34
 2936 0ced 12       		.uleb128 0x12
 2937 0cee 444A0000 		.4byte	.LASF318
 2938 0cf2 0B       		.byte	0xb
 2939 0cf3 41       		.byte	0x41
 2940 0cf4 6C050000 		.4byte	0x56c
 2941 0cf8 38       		.byte	0x38
 2942 0cf9 12       		.uleb128 0x12
 2943 0cfa 75260000 		.4byte	.LASF319
 2944 0cfe 0B       		.byte	0xb
 2945 0cff 42       		.byte	0x42
 2946 0d00 6C050000 		.4byte	0x56c
 2947 0d04 3C       		.byte	0x3c
 2948 0d05 12       		.uleb128 0x12
 2949 0d06 34450000 		.4byte	.LASF320
 2950 0d0a 0B       		.byte	0xb
 2951 0d0b 44       		.byte	0x44
 2952 0d0c 6C050000 		.4byte	0x56c
 2953 0d10 40       		.byte	0x40
 2954 0d11 12       		.uleb128 0x12
 2955 0d12 BB070000 		.4byte	.LASF321
 2956 0d16 0B       		.byte	0xb
 2957 0d17 45       		.byte	0x45
 2958 0d18 6C050000 		.4byte	0x56c
 2959 0d1c 44       		.byte	0x44
 2960 0d1d 12       		.uleb128 0x12
 2961 0d1e 2C2B0000 		.4byte	.LASF322
 2962 0d22 0B       		.byte	0xb
 2963 0d23 47       		.byte	0x47
 2964 0d24 6C050000 		.4byte	0x56c
 2965 0d28 48       		.byte	0x48
 2966 0d29 00       		.byte	0
 2967 0d2a 06       		.uleb128 0x6
 2968 0d2b 79400000 		.4byte	.LASF323
 2969 0d2f 0B       		.byte	0xb
 2970 0d30 48       		.byte	0x48
 2971 0d31 390C0000 		.4byte	0xc39
 2972 0d35 17       		.uleb128 0x17
 2973 0d36 E21A0000 		.4byte	.LASF325
 2974 0d3a 64       		.byte	0x64
 2975 0d3b 0C       		.byte	0xc
 2976 0d3c 2B       		.byte	0x2b
 2977 0d3d 6E0E0000 		.4byte	0xe6e
ARM GAS  C:\Users\salaz\AppData\Local\Temp\ccnyouLe.s 			page 101


 2978 0d41 12       		.uleb128 0x12
 2979 0d42 DC290000 		.4byte	.LASF326
 2980 0d46 0C       		.byte	0xc
 2981 0d47 2D       		.byte	0x2d
 2982 0d48 6C050000 		.4byte	0x56c
 2983 0d4c 00       		.byte	0
 2984 0d4d 12       		.uleb128 0x12
 2985 0d4e 1F170000 		.4byte	.LASF305
 2986 0d52 0C       		.byte	0xc
 2987 0d53 2F       		.byte	0x2f
 2988 0d54 6C050000 		.4byte	0x56c
 2989 0d58 04       		.byte	0x4
 2990 0d59 12       		.uleb128 0x12
 2991 0d5a D8430000 		.4byte	.LASF327
 2992 0d5e 0C       		.byte	0xc
 2993 0d5f 30       		.byte	0x30
 2994 0d60 6C050000 		.4byte	0x56c
 2995 0d64 08       		.byte	0x8
 2996 0d65 12       		.uleb128 0x12
 2997 0d66 0B400000 		.4byte	.LASF328
 2998 0d6a 0C       		.byte	0xc
 2999 0d6b 31       		.byte	0x31
 3000 0d6c 6C050000 		.4byte	0x56c
 3001 0d70 0C       		.byte	0xc
 3002 0d71 12       		.uleb128 0x12
 3003 0d72 45160000 		.4byte	.LASF306
 3004 0d76 0C       		.byte	0xc
 3005 0d77 32       		.byte	0x32
 3006 0d78 6C050000 		.4byte	0x56c
 3007 0d7c 10       		.byte	0x10
 3008 0d7d 12       		.uleb128 0x12
 3009 0d7e CD2C0000 		.4byte	.LASF329
 3010 0d82 0C       		.byte	0xc
 3011 0d83 33       		.byte	0x33
 3012 0d84 6C050000 		.4byte	0x56c
 3013 0d88 14       		.byte	0x14
 3014 0d89 12       		.uleb128 0x12
 3015 0d8a 31100000 		.4byte	.LASF330
 3016 0d8e 0C       		.byte	0xc
 3017 0d8f 34       		.byte	0x34
 3018 0d90 6C050000 		.4byte	0x56c
 3019 0d94 18       		.byte	0x18
 3020 0d95 12       		.uleb128 0x12
 3021 0d96 E9200000 		.4byte	.LASF331
 3022 0d9a 0C       		.byte	0xc
 3023 0d9b 35       		.byte	0x35
 3024 0d9c 320C0000 		.4byte	0xc32
 3025 0da0 1C       		.byte	0x1c
 3026 0da1 12       		.uleb128 0x12
 3027 0da2 55060000 		.4byte	.LASF309
 3028 0da6 0C       		.byte	0xc
 3029 0da7 36       		.byte	0x36
 3030 0da8 6C050000 		.4byte	0x56c
 3031 0dac 20       		.byte	0x20
 3032 0dad 12       		.uleb128 0x12
 3033 0dae 5E060000 		.4byte	.LASF310
 3034 0db2 0C       		.byte	0xc
ARM GAS  C:\Users\salaz\AppData\Local\Temp\ccnyouLe.s 			page 102


 3035 0db3 37       		.byte	0x37
 3036 0db4 6C050000 		.4byte	0x56c
 3037 0db8 24       		.byte	0x24
 3038 0db9 12       		.uleb128 0x12
 3039 0dba 6B2A0000 		.4byte	.LASF311
 3040 0dbe 0C       		.byte	0xc
 3041 0dbf 38       		.byte	0x38
 3042 0dc0 320C0000 		.4byte	0xc32
 3043 0dc4 28       		.byte	0x28
 3044 0dc5 12       		.uleb128 0x12
 3045 0dc6 5A230000 		.4byte	.LASF312
 3046 0dca 0C       		.byte	0xc
 3047 0dcb 3A       		.byte	0x3a
 3048 0dcc 6C050000 		.4byte	0x56c
 3049 0dd0 2C       		.byte	0x2c
 3050 0dd1 12       		.uleb128 0x12
 3051 0dd2 7E2E0000 		.4byte	.LASF332
 3052 0dd6 0C       		.byte	0xc
 3053 0dd7 3B       		.byte	0x3b
 3054 0dd8 6C050000 		.4byte	0x56c
 3055 0ddc 30       		.byte	0x30
 3056 0ddd 12       		.uleb128 0x12
 3057 0dde 13470000 		.4byte	.LASF333
 3058 0de2 0C       		.byte	0xc
 3059 0de3 3C       		.byte	0x3c
 3060 0de4 6C050000 		.4byte	0x56c
 3061 0de8 34       		.byte	0x34
 3062 0de9 12       		.uleb128 0x12
 3063 0dea AC1D0000 		.4byte	.LASF334
 3064 0dee 0C       		.byte	0xc
 3065 0def 3D       		.byte	0x3d
 3066 0df0 6C050000 		.4byte	0x56c
 3067 0df4 38       		.byte	0x38
 3068 0df5 12       		.uleb128 0x12
 3069 0df6 BB230000 		.4byte	.LASF335
 3070 0dfa 0C       		.byte	0xc
 3071 0dfb 3E       		.byte	0x3e
 3072 0dfc 6C050000 		.4byte	0x56c
 3073 0e00 3C       		.byte	0x3c
 3074 0e01 12       		.uleb128 0x12
 3075 0e02 E60A0000 		.4byte	.LASF336
 3076 0e06 0C       		.byte	0xc
 3077 0e07 40       		.byte	0x40
 3078 0e08 6C050000 		.4byte	0x56c
 3079 0e0c 40       		.byte	0x40
 3080 0e0d 12       		.uleb128 0x12
 3081 0e0e 710C0000 		.4byte	.LASF315
 3082 0e12 0C       		.byte	0xc
 3083 0e13 41       		.byte	0x41
 3084 0e14 6C050000 		.4byte	0x56c
 3085 0e18 44       		.byte	0x44
 3086 0e19 12       		.uleb128 0x12
 3087 0e1a F2470000 		.4byte	.LASF316
 3088 0e1e 0C       		.byte	0xc
 3089 0e1f 43       		.byte	0x43
 3090 0e20 6C050000 		.4byte	0x56c
 3091 0e24 48       		.byte	0x48
ARM GAS  C:\Users\salaz\AppData\Local\Temp\ccnyouLe.s 			page 103


 3092 0e25 12       		.uleb128 0x12
 3093 0e26 503B0000 		.4byte	.LASF317
 3094 0e2a 0C       		.byte	0xc
 3095 0e2b 44       		.byte	0x44
 3096 0e2c 6C050000 		.4byte	0x56c
 3097 0e30 4C       		.byte	0x4c
 3098 0e31 12       		.uleb128 0x12
 3099 0e32 444A0000 		.4byte	.LASF318
 3100 0e36 0C       		.byte	0xc
 3101 0e37 46       		.byte	0x46
 3102 0e38 6C050000 		.4byte	0x56c
 3103 0e3c 50       		.byte	0x50
 3104 0e3d 12       		.uleb128 0x12
 3105 0e3e 0D420000 		.4byte	.LASF337
 3106 0e42 0C       		.byte	0xc
 3107 0e43 47       		.byte	0x47
 3108 0e44 6C050000 		.4byte	0x56c
 3109 0e48 54       		.byte	0x54
 3110 0e49 12       		.uleb128 0x12
 3111 0e4a 2C1C0000 		.4byte	.LASF338
 3112 0e4e 0C       		.byte	0xc
 3113 0e4f 49       		.byte	0x49
 3114 0e50 6C050000 		.4byte	0x56c
 3115 0e54 58       		.byte	0x58
 3116 0e55 12       		.uleb128 0x12
 3117 0e56 BB070000 		.4byte	.LASF321
 3118 0e5a 0C       		.byte	0xc
 3119 0e5b 4A       		.byte	0x4a
 3120 0e5c 6C050000 		.4byte	0x56c
 3121 0e60 5C       		.byte	0x5c
 3122 0e61 12       		.uleb128 0x12
 3123 0e62 2C2B0000 		.4byte	.LASF322
 3124 0e66 0C       		.byte	0xc
 3125 0e67 4C       		.byte	0x4c
 3126 0e68 6C050000 		.4byte	0x56c
 3127 0e6c 60       		.byte	0x60
 3128 0e6d 00       		.byte	0
 3129 0e6e 06       		.uleb128 0x6
 3130 0e6f 38080000 		.4byte	.LASF339
 3131 0e73 0C       		.byte	0xc
 3132 0e74 4D       		.byte	0x4d
 3133 0e75 350D0000 		.4byte	0xd35
 3134 0e79 18       		.uleb128 0x18
 3135 0e7a 01       		.byte	0x1
 3136 0e7b 2C000000 		.4byte	0x2c
 3137 0e7f 0D       		.byte	0xd
 3138 0e80 DE01     		.2byte	0x1de
 3139 0e82 930E0000 		.4byte	0xe93
 3140 0e86 05       		.uleb128 0x5
 3141 0e87 7F1C0000 		.4byte	.LASF340
 3142 0e8b 00       		.byte	0
 3143 0e8c 05       		.uleb128 0x5
 3144 0e8d B0440000 		.4byte	.LASF341
 3145 0e91 01       		.byte	0x1
 3146 0e92 00       		.byte	0
 3147 0e93 07       		.uleb128 0x7
 3148 0e94 C9370000 		.4byte	.LASF342
ARM GAS  C:\Users\salaz\AppData\Local\Temp\ccnyouLe.s 			page 104


 3149 0e98 0D       		.byte	0xd
 3150 0e99 E101     		.2byte	0x1e1
 3151 0e9b 790E0000 		.4byte	0xe79
 3152 0e9f 07       		.uleb128 0x7
 3153 0ea0 432D0000 		.4byte	.LASF343
 3154 0ea4 0D       		.byte	0xd
 3155 0ea5 F301     		.2byte	0x1f3
 3156 0ea7 AB0E0000 		.4byte	0xeab
 3157 0eab 19       		.uleb128 0x19
 3158 0eac 04       		.byte	0x4
 3159 0ead B10E0000 		.4byte	0xeb1
 3160 0eb1 1A       		.uleb128 0x1a
 3161 0eb2 BC0E0000 		.4byte	0xebc
 3162 0eb6 1B       		.uleb128 0x1b
 3163 0eb7 6C050000 		.4byte	0x56c
 3164 0ebb 00       		.byte	0
 3165 0ebc 07       		.uleb128 0x7
 3166 0ebd AE4A0000 		.4byte	.LASF344
 3167 0ec1 0D       		.byte	0xd
 3168 0ec2 FE01     		.2byte	0x1fe
 3169 0ec4 C80E0000 		.4byte	0xec8
 3170 0ec8 19       		.uleb128 0x19
 3171 0ec9 04       		.byte	0x4
 3172 0eca CE0E0000 		.4byte	0xece
 3173 0ece 1C       		.uleb128 0x1c
 3174 0ecf 930E0000 		.4byte	0xe93
 3175 0ed3 DD0E0000 		.4byte	0xedd
 3176 0ed7 1B       		.uleb128 0x1b
 3177 0ed8 6C050000 		.4byte	0x56c
 3178 0edc 00       		.byte	0
 3179 0edd 1D       		.uleb128 0x1d
 3180 0ede 23490000 		.4byte	.LASF345
 3181 0ee2 4C       		.byte	0x4c
 3182 0ee3 0D       		.byte	0xd
 3183 0ee4 6502     		.2byte	0x265
 3184 0ee6 FC0F0000 		.4byte	0xffc
 3185 0eea 0A       		.uleb128 0xa
 3186 0eeb 560A0000 		.4byte	.LASF346
 3187 0eef 0D       		.byte	0xd
 3188 0ef0 6802     		.2byte	0x268
 3189 0ef2 320C0000 		.4byte	0xc32
 3190 0ef6 00       		.byte	0
 3191 0ef7 0A       		.uleb128 0xa
 3192 0ef8 FA1D0000 		.4byte	.LASF347
 3193 0efc 0D       		.byte	0xd
 3194 0efd 6902     		.2byte	0x269
 3195 0eff 320C0000 		.4byte	0xc32
 3196 0f03 01       		.byte	0x1
 3197 0f04 0A       		.uleb128 0xa
 3198 0f05 84050000 		.4byte	.LASF348
 3199 0f09 0D       		.byte	0xd
 3200 0f0a 6B02     		.2byte	0x26b
 3201 0f0c 2B060000 		.4byte	0x62b
 3202 0f10 04       		.byte	0x4
 3203 0f11 0A       		.uleb128 0xa
 3204 0f12 D13F0000 		.4byte	.LASF349
 3205 0f16 0D       		.byte	0xd
ARM GAS  C:\Users\salaz\AppData\Local\Temp\ccnyouLe.s 			page 105


 3206 0f17 6D02     		.2byte	0x26d
 3207 0f19 2B060000 		.4byte	0x62b
 3208 0f1d 08       		.byte	0x8
 3209 0f1e 0A       		.uleb128 0xa
 3210 0f1f E5430000 		.4byte	.LASF350
 3211 0f23 0D       		.byte	0xd
 3212 0f24 6E02     		.2byte	0x26e
 3213 0f26 320C0000 		.4byte	0xc32
 3214 0f2a 0C       		.byte	0xc
 3215 0f2b 0A       		.uleb128 0xa
 3216 0f2c 32440000 		.4byte	.LASF351
 3217 0f30 0D       		.byte	0xd
 3218 0f31 6F02     		.2byte	0x26f
 3219 0f33 320C0000 		.4byte	0xc32
 3220 0f37 0D       		.byte	0xd
 3221 0f38 0A       		.uleb128 0xa
 3222 0f39 823B0000 		.4byte	.LASF352
 3223 0f3d 0D       		.byte	0xd
 3224 0f3e 7102     		.2byte	0x271
 3225 0f40 FC0F0000 		.4byte	0xffc
 3226 0f44 10       		.byte	0x10
 3227 0f45 0A       		.uleb128 0xa
 3228 0f46 4B1E0000 		.4byte	.LASF353
 3229 0f4a 0D       		.byte	0xd
 3230 0f4b 7202     		.2byte	0x272
 3231 0f4d 6C050000 		.4byte	0x56c
 3232 0f51 14       		.byte	0x14
 3233 0f52 0A       		.uleb128 0xa
 3234 0f53 563F0000 		.4byte	.LASF354
 3235 0f57 0D       		.byte	0xd
 3236 0f58 7302     		.2byte	0x273
 3237 0f5a 2B060000 		.4byte	0x62b
 3238 0f5e 18       		.byte	0x18
 3239 0f5f 0A       		.uleb128 0xa
 3240 0f60 F8240000 		.4byte	.LASF355
 3241 0f64 0D       		.byte	0xd
 3242 0f65 7402     		.2byte	0x274
 3243 0f67 2B060000 		.4byte	0x62b
 3244 0f6b 1C       		.byte	0x1c
 3245 0f6c 0A       		.uleb128 0xa
 3246 0f6d B3200000 		.4byte	.LASF356
 3247 0f71 0D       		.byte	0xd
 3248 0f72 7602     		.2byte	0x276
 3249 0f74 2B060000 		.4byte	0x62b
 3250 0f78 20       		.byte	0x20
 3251 0f79 0A       		.uleb128 0xa
 3252 0f7a EA180000 		.4byte	.LASF357
 3253 0f7e 0D       		.byte	0xd
 3254 0f7f 7702     		.2byte	0x277
 3255 0f81 02100000 		.4byte	0x1002
 3256 0f85 24       		.byte	0x24
 3257 0f86 0A       		.uleb128 0xa
 3258 0f87 C2170000 		.4byte	.LASF358
 3259 0f8b 0D       		.byte	0xd
 3260 0f8c 7902     		.2byte	0x279
 3261 0f8e FC0F0000 		.4byte	0xffc
 3262 0f92 28       		.byte	0x28
ARM GAS  C:\Users\salaz\AppData\Local\Temp\ccnyouLe.s 			page 106


 3263 0f93 0A       		.uleb128 0xa
 3264 0f94 80230000 		.4byte	.LASF359
 3265 0f98 0D       		.byte	0xd
 3266 0f99 7A02     		.2byte	0x27a
 3267 0f9b 6C050000 		.4byte	0x56c
 3268 0f9f 2C       		.byte	0x2c
 3269 0fa0 0A       		.uleb128 0xa
 3270 0fa1 DB100000 		.4byte	.LASF360
 3271 0fa5 0D       		.byte	0xd
 3272 0fa6 7B02     		.2byte	0x27b
 3273 0fa8 2B060000 		.4byte	0x62b
 3274 0fac 30       		.byte	0x30
 3275 0fad 0A       		.uleb128 0xa
 3276 0fae CF0B0000 		.4byte	.LASF361
 3277 0fb2 0D       		.byte	0xd
 3278 0fb3 7C02     		.2byte	0x27c
 3279 0fb5 2B060000 		.4byte	0x62b
 3280 0fb9 34       		.byte	0x34
 3281 0fba 0A       		.uleb128 0xa
 3282 0fbb 75110000 		.4byte	.LASF362
 3283 0fbf 0D       		.byte	0xd
 3284 0fc0 7E02     		.2byte	0x27e
 3285 0fc2 FC0F0000 		.4byte	0xffc
 3286 0fc6 38       		.byte	0x38
 3287 0fc7 0A       		.uleb128 0xa
 3288 0fc8 BB2C0000 		.4byte	.LASF363
 3289 0fcc 0D       		.byte	0xd
 3290 0fcd 7F02     		.2byte	0x27f
 3291 0fcf 6C050000 		.4byte	0x56c
 3292 0fd3 3C       		.byte	0x3c
 3293 0fd4 0A       		.uleb128 0xa
 3294 0fd5 2D2F0000 		.4byte	.LASF364
 3295 0fd9 0D       		.byte	0xd
 3296 0fda 8002     		.2byte	0x280
 3297 0fdc 2B060000 		.4byte	0x62b
 3298 0fe0 40       		.byte	0x40
 3299 0fe1 0A       		.uleb128 0xa
 3300 0fe2 43320000 		.4byte	.LASF365
 3301 0fe6 0D       		.byte	0xd
 3302 0fe7 8602     		.2byte	0x286
 3303 0fe9 9F0E0000 		.4byte	0xe9f
 3304 0fed 44       		.byte	0x44
 3305 0fee 0A       		.uleb128 0xa
 3306 0fef 8F3B0000 		.4byte	.LASF366
 3307 0ff3 0D       		.byte	0xd
 3308 0ff4 8D02     		.2byte	0x28d
 3309 0ff6 BC0E0000 		.4byte	0xebc
 3310 0ffa 48       		.byte	0x48
 3311 0ffb 00       		.byte	0
 3312 0ffc 19       		.uleb128 0x19
 3313 0ffd 04       		.byte	0x4
 3314 0ffe 40050000 		.4byte	0x540
 3315 1002 0F       		.uleb128 0xf
 3316 1003 320C0000 		.4byte	0xc32
 3317 1007 07       		.uleb128 0x7
 3318 1008 04120000 		.4byte	.LASF367
 3319 100c 0D       		.byte	0xd
ARM GAS  C:\Users\salaz\AppData\Local\Temp\ccnyouLe.s 			page 107


 3320 100d 9002     		.2byte	0x290
 3321 100f DD0E0000 		.4byte	0xedd
 3322 1013 18       		.uleb128 0x18
 3323 1014 01       		.byte	0x1
 3324 1015 2C000000 		.4byte	0x2c
 3325 1019 0E       		.byte	0xe
 3326 101a 7A01     		.2byte	0x17a
 3327 101c 33100000 		.4byte	0x1033
 3328 1020 05       		.uleb128 0x5
 3329 1021 953F0000 		.4byte	.LASF368
 3330 1025 00       		.byte	0
 3331 1026 05       		.uleb128 0x5
 3332 1027 17010000 		.4byte	.LASF369
 3333 102b 01       		.byte	0x1
 3334 102c 05       		.uleb128 0x5
 3335 102d 9D4A0000 		.4byte	.LASF370
 3336 1031 02       		.byte	0x2
 3337 1032 00       		.byte	0
 3338 1033 07       		.uleb128 0x7
 3339 1034 F7410000 		.4byte	.LASF371
 3340 1038 0E       		.byte	0xe
 3341 1039 7E01     		.2byte	0x17e
 3342 103b 13100000 		.4byte	0x1013
 3343 103f 18       		.uleb128 0x18
 3344 1040 01       		.byte	0x1
 3345 1041 2C000000 		.4byte	0x2c
 3346 1045 0E       		.byte	0xe
 3347 1046 8201     		.2byte	0x182
 3348 1048 77100000 		.4byte	0x1077
 3349 104c 05       		.uleb128 0x5
 3350 104d 644A0000 		.4byte	.LASF372
 3351 1051 02       		.byte	0x2
 3352 1052 05       		.uleb128 0x5
 3353 1053 86380000 		.4byte	.LASF373
 3354 1057 03       		.byte	0x3
 3355 1058 05       		.uleb128 0x5
 3356 1059 D7450000 		.4byte	.LASF374
 3357 105d 04       		.byte	0x4
 3358 105e 05       		.uleb128 0x5
 3359 105f A9340000 		.4byte	.LASF375
 3360 1063 05       		.byte	0x5
 3361 1064 05       		.uleb128 0x5
 3362 1065 EF450000 		.4byte	.LASF376
 3363 1069 06       		.byte	0x6
 3364 106a 05       		.uleb128 0x5
 3365 106b 96430000 		.4byte	.LASF377
 3366 106f 07       		.byte	0x7
 3367 1070 05       		.uleb128 0x5
 3368 1071 07460000 		.4byte	.LASF378
 3369 1075 08       		.byte	0x8
 3370 1076 00       		.byte	0
 3371 1077 07       		.uleb128 0x7
 3372 1078 1E190000 		.4byte	.LASF379
 3373 107c 0E       		.byte	0xe
 3374 107d 8A01     		.2byte	0x18a
 3375 107f 3F100000 		.4byte	0x103f
 3376 1083 18       		.uleb128 0x18
ARM GAS  C:\Users\salaz\AppData\Local\Temp\ccnyouLe.s 			page 108


 3377 1084 01       		.byte	0x1
 3378 1085 2C000000 		.4byte	0x2c
 3379 1089 0E       		.byte	0xe
 3380 108a 8E01     		.2byte	0x18e
 3381 108c A3100000 		.4byte	0x10a3
 3382 1090 05       		.uleb128 0x5
 3383 1091 D41D0000 		.4byte	.LASF380
 3384 1095 00       		.byte	0
 3385 1096 05       		.uleb128 0x5
 3386 1097 73440000 		.4byte	.LASF381
 3387 109b 02       		.byte	0x2
 3388 109c 05       		.uleb128 0x5
 3389 109d 2C340000 		.4byte	.LASF382
 3390 10a1 03       		.byte	0x3
 3391 10a2 00       		.byte	0
 3392 10a3 07       		.uleb128 0x7
 3393 10a4 41430000 		.4byte	.LASF383
 3394 10a8 0E       		.byte	0xe
 3395 10a9 9201     		.2byte	0x192
 3396 10ab 83100000 		.4byte	0x1083
 3397 10af 18       		.uleb128 0x18
 3398 10b0 01       		.byte	0x1
 3399 10b1 2C000000 		.4byte	0x2c
 3400 10b5 0E       		.byte	0xe
 3401 10b6 9601     		.2byte	0x196
 3402 10b8 C9100000 		.4byte	0x10c9
 3403 10bc 05       		.uleb128 0x5
 3404 10bd F43F0000 		.4byte	.LASF384
 3405 10c1 00       		.byte	0
 3406 10c2 05       		.uleb128 0x5
 3407 10c3 33270000 		.4byte	.LASF385
 3408 10c7 01       		.byte	0x1
 3409 10c8 00       		.byte	0
 3410 10c9 07       		.uleb128 0x7
 3411 10ca 94460000 		.4byte	.LASF386
 3412 10ce 0E       		.byte	0xe
 3413 10cf 9901     		.2byte	0x199
 3414 10d1 AF100000 		.4byte	0x10af
 3415 10d5 07       		.uleb128 0x7
 3416 10d6 25300000 		.4byte	.LASF387
 3417 10da 0E       		.byte	0xe
 3418 10db AB01     		.2byte	0x1ab
 3419 10dd AB0E0000 		.4byte	0xeab
 3420 10e1 1D       		.uleb128 0x1d
 3421 10e2 0C210000 		.4byte	.LASF388
 3422 10e6 40       		.byte	0x40
 3423 10e7 0E       		.byte	0xe
 3424 10e8 AE01     		.2byte	0x1ae
 3425 10ea 34120000 		.4byte	0x1234
 3426 10ee 0A       		.uleb128 0xa
 3427 10ef DA280000 		.4byte	.LASF389
 3428 10f3 0E       		.byte	0xe
 3429 10f4 B101     		.2byte	0x1b1
 3430 10f6 33100000 		.4byte	0x1033
 3431 10fa 00       		.byte	0
 3432 10fb 0A       		.uleb128 0xa
 3433 10fc DE200000 		.4byte	.LASF390
ARM GAS  C:\Users\salaz\AppData\Local\Temp\ccnyouLe.s 			page 109


 3434 1100 0E       		.byte	0xe
 3435 1101 BB01     		.2byte	0x1bb
 3436 1103 6C050000 		.4byte	0x56c
 3437 1107 04       		.byte	0x4
 3438 1108 0A       		.uleb128 0xa
 3439 1109 8C200000 		.4byte	.LASF391
 3440 110d 0E       		.byte	0xe
 3441 110e BE01     		.2byte	0x1be
 3442 1110 6C050000 		.4byte	0x56c
 3443 1114 08       		.byte	0x8
 3444 1115 0A       		.uleb128 0xa
 3445 1116 B7040000 		.4byte	.LASF392
 3446 111a 0E       		.byte	0xe
 3447 111b C401     		.2byte	0x1c4
 3448 111d 320C0000 		.4byte	0xc32
 3449 1121 0C       		.byte	0xc
 3450 1122 0A       		.uleb128 0xa
 3451 1123 C8390000 		.4byte	.LASF393
 3452 1127 0E       		.byte	0xe
 3453 1128 CA01     		.2byte	0x1ca
 3454 112a 77100000 		.4byte	0x1077
 3455 112e 0D       		.byte	0xd
 3456 112f 0A       		.uleb128 0xa
 3457 1130 E5480000 		.4byte	.LASF394
 3458 1134 0E       		.byte	0xe
 3459 1135 CD01     		.2byte	0x1cd
 3460 1137 A3100000 		.4byte	0x10a3
 3461 113b 0E       		.byte	0xe
 3462 113c 0A       		.uleb128 0xa
 3463 113d A32E0000 		.4byte	.LASF395
 3464 1141 0E       		.byte	0xe
 3465 1142 D501     		.2byte	0x1d5
 3466 1144 320C0000 		.4byte	0xc32
 3467 1148 0F       		.byte	0xf
 3468 1149 0A       		.uleb128 0xa
 3469 114a FA200000 		.4byte	.LASF396
 3470 114e 0E       		.byte	0xe
 3471 114f DB01     		.2byte	0x1db
 3472 1151 320C0000 		.4byte	0xc32
 3473 1155 10       		.byte	0x10
 3474 1156 0A       		.uleb128 0xa
 3475 1157 900A0000 		.4byte	.LASF397
 3476 115b 0E       		.byte	0xe
 3477 115c E101     		.2byte	0x1e1
 3478 115e 320C0000 		.4byte	0xc32
 3479 1162 11       		.byte	0x11
 3480 1163 0A       		.uleb128 0xa
 3481 1164 B7410000 		.4byte	.LASF398
 3482 1168 0E       		.byte	0xe
 3483 1169 E701     		.2byte	0x1e7
 3484 116b 320C0000 		.4byte	0xc32
 3485 116f 12       		.byte	0x12
 3486 1170 0A       		.uleb128 0xa
 3487 1171 86310000 		.4byte	.LASF399
 3488 1175 0E       		.byte	0xe
 3489 1176 EE01     		.2byte	0x1ee
 3490 1178 6C050000 		.4byte	0x56c
ARM GAS  C:\Users\salaz\AppData\Local\Temp\ccnyouLe.s 			page 110


 3491 117c 14       		.byte	0x14
 3492 117d 0A       		.uleb128 0xa
 3493 117e D8380000 		.4byte	.LASF400
 3494 1182 0E       		.byte	0xe
 3495 1183 F601     		.2byte	0x1f6
 3496 1185 6C050000 		.4byte	0x56c
 3497 1189 18       		.byte	0x18
 3498 118a 0A       		.uleb128 0xa
 3499 118b AE100000 		.4byte	.LASF401
 3500 118f 0E       		.byte	0xe
 3501 1190 FC01     		.2byte	0x1fc
 3502 1192 320C0000 		.4byte	0xc32
 3503 1196 1C       		.byte	0x1c
 3504 1197 0A       		.uleb128 0xa
 3505 1198 3C200000 		.4byte	.LASF402
 3506 119c 0E       		.byte	0xe
 3507 119d FF01     		.2byte	0x1ff
 3508 119f 320C0000 		.4byte	0xc32
 3509 11a3 1D       		.byte	0x1d
 3510 11a4 0A       		.uleb128 0xa
 3511 11a5 4A280000 		.4byte	.LASF403
 3512 11a9 0E       		.byte	0xe
 3513 11aa 0502     		.2byte	0x205
 3514 11ac 320C0000 		.4byte	0xc32
 3515 11b0 1E       		.byte	0x1e
 3516 11b1 0A       		.uleb128 0xa
 3517 11b2 FE310000 		.4byte	.LASF404
 3518 11b6 0E       		.byte	0xe
 3519 11b7 0C02     		.2byte	0x20c
 3520 11b9 320C0000 		.4byte	0xc32
 3521 11bd 1F       		.byte	0x1f
 3522 11be 0A       		.uleb128 0xa
 3523 11bf CE320000 		.4byte	.LASF405
 3524 11c3 0E       		.byte	0xe
 3525 11c4 1202     		.2byte	0x212
 3526 11c6 320C0000 		.4byte	0xc32
 3527 11ca 20       		.byte	0x20
 3528 11cb 0A       		.uleb128 0xa
 3529 11cc EC440000 		.4byte	.LASF406
 3530 11d0 0E       		.byte	0xe
 3531 11d1 1502     		.2byte	0x215
 3532 11d3 C9100000 		.4byte	0x10c9
 3533 11d7 21       		.byte	0x21
 3534 11d8 0A       		.uleb128 0xa
 3535 11d9 6C470000 		.4byte	.LASF407
 3536 11dd 0E       		.byte	0xe
 3537 11de 1B02     		.2byte	0x21b
 3538 11e0 6C050000 		.4byte	0x56c
 3539 11e4 24       		.byte	0x24
 3540 11e5 0A       		.uleb128 0xa
 3541 11e6 27120000 		.4byte	.LASF408
 3542 11ea 0E       		.byte	0xe
 3543 11eb 1E02     		.2byte	0x21e
 3544 11ed C9100000 		.4byte	0x10c9
 3545 11f1 28       		.byte	0x28
 3546 11f2 0A       		.uleb128 0xa
 3547 11f3 81480000 		.4byte	.LASF409
ARM GAS  C:\Users\salaz\AppData\Local\Temp\ccnyouLe.s 			page 111


 3548 11f7 0E       		.byte	0xe
 3549 11f8 2102     		.2byte	0x221
 3550 11fa 6C050000 		.4byte	0x56c
 3551 11fe 2C       		.byte	0x2c
 3552 11ff 0A       		.uleb128 0xa
 3553 1200 16070000 		.4byte	.LASF410
 3554 1204 0E       		.byte	0xe
 3555 1205 2902     		.2byte	0x229
 3556 1207 6C050000 		.4byte	0x56c
 3557 120b 30       		.byte	0x30
 3558 120c 0A       		.uleb128 0xa
 3559 120d 10060000 		.4byte	.LASF411
 3560 1211 0E       		.byte	0xe
 3561 1212 2F02     		.2byte	0x22f
 3562 1214 6C050000 		.4byte	0x56c
 3563 1218 34       		.byte	0x34
 3564 1219 0A       		.uleb128 0xa
 3565 121a 50100000 		.4byte	.LASF412
 3566 121e 0E       		.byte	0xe
 3567 121f 3702     		.2byte	0x237
 3568 1221 6C050000 		.4byte	0x56c
 3569 1225 38       		.byte	0x38
 3570 1226 0A       		.uleb128 0xa
 3571 1227 7B470000 		.4byte	.LASF413
 3572 122b 0E       		.byte	0xe
 3573 122c 3D02     		.2byte	0x23d
 3574 122e 6C050000 		.4byte	0x56c
 3575 1232 3C       		.byte	0x3c
 3576 1233 00       		.byte	0
 3577 1234 07       		.uleb128 0x7
 3578 1235 DF190000 		.4byte	.LASF414
 3579 1239 0E       		.byte	0xe
 3580 123a 3E02     		.2byte	0x23e
 3581 123c E1100000 		.4byte	0x10e1
 3582 1240 1D       		.uleb128 0x1d
 3583 1241 B6010000 		.4byte	.LASF415
 3584 1245 38       		.byte	0x38
 3585 1246 0E       		.byte	0xe
 3586 1247 4702     		.2byte	0x247
 3587 1249 04130000 		.4byte	0x1304
 3588 124d 0A       		.uleb128 0xa
 3589 124e 23050000 		.4byte	.LASF416
 3590 1252 0E       		.byte	0xe
 3591 1253 4A02     		.2byte	0x24a
 3592 1255 2B060000 		.4byte	0x62b
 3593 1259 00       		.byte	0
 3594 125a 0A       		.uleb128 0xa
 3595 125b 5F3B0000 		.4byte	.LASF417
 3596 125f 0E       		.byte	0xe
 3597 1260 4B02     		.2byte	0x24b
 3598 1262 2B060000 		.4byte	0x62b
 3599 1266 04       		.byte	0x4
 3600 1267 0A       		.uleb128 0xa
 3601 1268 19490000 		.4byte	.LASF418
 3602 126c 0E       		.byte	0xe
 3603 126d 4D02     		.2byte	0x24d
 3604 126f 300C0000 		.4byte	0xc30
ARM GAS  C:\Users\salaz\AppData\Local\Temp\ccnyouLe.s 			page 112


 3605 1273 08       		.byte	0x8
 3606 1274 0A       		.uleb128 0xa
 3607 1275 232E0000 		.4byte	.LASF419
 3608 1279 0E       		.byte	0xe
 3609 127a 4E02     		.2byte	0x24e
 3610 127c 6C050000 		.4byte	0x56c
 3611 1280 0C       		.byte	0xc
 3612 1281 0A       		.uleb128 0xa
 3613 1282 67110000 		.4byte	.LASF420
 3614 1286 0E       		.byte	0xe
 3615 1287 4F02     		.2byte	0x24f
 3616 1289 2B060000 		.4byte	0x62b
 3617 128d 10       		.byte	0x10
 3618 128e 0A       		.uleb128 0xa
 3619 128f 58480000 		.4byte	.LASF421
 3620 1293 0E       		.byte	0xe
 3621 1294 5002     		.2byte	0x250
 3622 1296 2B060000 		.4byte	0x62b
 3623 129a 14       		.byte	0x14
 3624 129b 0A       		.uleb128 0xa
 3625 129c 52020000 		.4byte	.LASF422
 3626 12a0 0E       		.byte	0xe
 3627 12a1 5202     		.2byte	0x252
 3628 12a3 300C0000 		.4byte	0xc30
 3629 12a7 18       		.byte	0x18
 3630 12a8 0A       		.uleb128 0xa
 3631 12a9 83160000 		.4byte	.LASF423
 3632 12ad 0E       		.byte	0xe
 3633 12ae 5302     		.2byte	0x253
 3634 12b0 6C050000 		.4byte	0x56c
 3635 12b4 1C       		.byte	0x1c
 3636 12b5 0A       		.uleb128 0xa
 3637 12b6 F0260000 		.4byte	.LASF424
 3638 12ba 0E       		.byte	0xe
 3639 12bb 5402     		.2byte	0x254
 3640 12bd 2B060000 		.4byte	0x62b
 3641 12c1 20       		.byte	0x20
 3642 12c2 0A       		.uleb128 0xa
 3643 12c3 A0360000 		.4byte	.LASF425
 3644 12c7 0E       		.byte	0xe
 3645 12c8 5602     		.2byte	0x256
 3646 12ca 300C0000 		.4byte	0xc30
 3647 12ce 24       		.byte	0x24
 3648 12cf 0A       		.uleb128 0xa
 3649 12d0 000B0000 		.4byte	.LASF426
 3650 12d4 0E       		.byte	0xe
 3651 12d5 5702     		.2byte	0x257
 3652 12d7 6C050000 		.4byte	0x56c
 3653 12db 28       		.byte	0x28
 3654 12dc 0A       		.uleb128 0xa
 3655 12dd F5300000 		.4byte	.LASF427
 3656 12e1 0E       		.byte	0xe
 3657 12e2 5802     		.2byte	0x258
 3658 12e4 2B060000 		.4byte	0x62b
 3659 12e8 2C       		.byte	0x2c
 3660 12e9 0A       		.uleb128 0xa
 3661 12ea 43320000 		.4byte	.LASF365
ARM GAS  C:\Users\salaz\AppData\Local\Temp\ccnyouLe.s 			page 113


 3662 12ee 0E       		.byte	0xe
 3663 12ef 5D02     		.2byte	0x25d
 3664 12f1 D5100000 		.4byte	0x10d5
 3665 12f5 30       		.byte	0x30
 3666 12f6 0A       		.uleb128 0xa
 3667 12f7 2C3D0000 		.4byte	.LASF428
 3668 12fb 0E       		.byte	0xe
 3669 12fc 6002     		.2byte	0x260
 3670 12fe 6C050000 		.4byte	0x56c
 3671 1302 34       		.byte	0x34
 3672 1303 00       		.byte	0
 3673 1304 07       		.uleb128 0x7
 3674 1305 690F0000 		.4byte	.LASF429
 3675 1309 0E       		.byte	0xe
 3676 130a 6302     		.2byte	0x263
 3677 130c 40120000 		.4byte	0x1240
 3678 1310 18       		.uleb128 0x18
 3679 1311 02       		.byte	0x2
 3680 1312 F5040000 		.4byte	0x4f5
 3681 1316 0F       		.byte	0xf
 3682 1317 4201     		.2byte	0x142
 3683 1319 49160000 		.4byte	0x1649
 3684 131d 05       		.uleb128 0x5
 3685 131e E4290000 		.4byte	.LASF430
 3686 1322 00       		.byte	0
 3687 1323 1E       		.uleb128 0x1e
 3688 1324 9E400000 		.4byte	.LASF431
 3689 1328 0010     		.2byte	0x1000
 3690 132a 1E       		.uleb128 0x1e
 3691 132b AC0E0000 		.4byte	.LASF432
 3692 132f 0110     		.2byte	0x1001
 3693 1331 1E       		.uleb128 0x1e
 3694 1332 330B0000 		.4byte	.LASF433
 3695 1336 0210     		.2byte	0x1002
 3696 1338 1E       		.uleb128 0x1e
 3697 1339 63100000 		.4byte	.LASF434
 3698 133d 0310     		.2byte	0x1003
 3699 133f 1E       		.uleb128 0x1e
 3700 1340 20000000 		.4byte	.LASF435
 3701 1344 0410     		.2byte	0x1004
 3702 1346 1E       		.uleb128 0x1e
 3703 1347 E1460000 		.4byte	.LASF436
 3704 134b 0510     		.2byte	0x1005
 3705 134d 1E       		.uleb128 0x1e
 3706 134e 7A040000 		.4byte	.LASF437
 3707 1352 0020     		.2byte	0x2000
 3708 1354 1E       		.uleb128 0x1e
 3709 1355 56130000 		.4byte	.LASF438
 3710 1359 0120     		.2byte	0x2001
 3711 135b 1E       		.uleb128 0x1e
 3712 135c 0B1A0000 		.4byte	.LASF439
 3713 1360 0220     		.2byte	0x2002
 3714 1362 1E       		.uleb128 0x1e
 3715 1363 AC3C0000 		.4byte	.LASF440
 3716 1367 0320     		.2byte	0x2003
 3717 1369 1E       		.uleb128 0x1e
 3718 136a EC120000 		.4byte	.LASF441
ARM GAS  C:\Users\salaz\AppData\Local\Temp\ccnyouLe.s 			page 114


 3719 136e 0420     		.2byte	0x2004
 3720 1370 1E       		.uleb128 0x1e
 3721 1371 0C340000 		.4byte	.LASF442
 3722 1375 0520     		.2byte	0x2005
 3723 1377 1E       		.uleb128 0x1e
 3724 1378 44300000 		.4byte	.LASF443
 3725 137c 0620     		.2byte	0x2006
 3726 137e 1E       		.uleb128 0x1e
 3727 137f CC490000 		.4byte	.LASF444
 3728 1383 0720     		.2byte	0x2007
 3729 1385 1E       		.uleb128 0x1e
 3730 1386 60270000 		.4byte	.LASF445
 3731 138a 0820     		.2byte	0x2008
 3732 138c 1E       		.uleb128 0x1e
 3733 138d 74420000 		.4byte	.LASF446
 3734 1391 0920     		.2byte	0x2009
 3735 1393 1E       		.uleb128 0x1e
 3736 1394 93350000 		.4byte	.LASF447
 3737 1398 0A20     		.2byte	0x200a
 3738 139a 1E       		.uleb128 0x1e
 3739 139b 1A400000 		.4byte	.LASF448
 3740 139f 0B20     		.2byte	0x200b
 3741 13a1 1E       		.uleb128 0x1e
 3742 13a2 B91F0000 		.4byte	.LASF449
 3743 13a6 0C20     		.2byte	0x200c
 3744 13a8 1E       		.uleb128 0x1e
 3745 13a9 13320000 		.4byte	.LASF450
 3746 13ad 0D20     		.2byte	0x200d
 3747 13af 1E       		.uleb128 0x1e
 3748 13b0 050E0000 		.4byte	.LASF451
 3749 13b4 0E20     		.2byte	0x200e
 3750 13b6 1E       		.uleb128 0x1e
 3751 13b7 A1490000 		.4byte	.LASF452
 3752 13bb 0F20     		.2byte	0x200f
 3753 13bd 1E       		.uleb128 0x1e
 3754 13be 1E0F0000 		.4byte	.LASF453
 3755 13c2 1020     		.2byte	0x2010
 3756 13c4 1E       		.uleb128 0x1e
 3757 13c5 142A0000 		.4byte	.LASF454
 3758 13c9 1120     		.2byte	0x2011
 3759 13cb 1E       		.uleb128 0x1e
 3760 13cc 6D240000 		.4byte	.LASF455
 3761 13d0 1220     		.2byte	0x2012
 3762 13d2 1E       		.uleb128 0x1e
 3763 13d3 E2150000 		.4byte	.LASF456
 3764 13d7 1320     		.2byte	0x2013
 3765 13d9 1E       		.uleb128 0x1e
 3766 13da 351B0000 		.4byte	.LASF457
 3767 13de 1420     		.2byte	0x2014
 3768 13e0 1E       		.uleb128 0x1e
 3769 13e1 FE150000 		.4byte	.LASF458
 3770 13e5 1520     		.2byte	0x2015
 3771 13e7 1E       		.uleb128 0x1e
 3772 13e8 A5250000 		.4byte	.LASF459
 3773 13ec 1620     		.2byte	0x2016
 3774 13ee 1E       		.uleb128 0x1e
 3775 13ef 250D0000 		.4byte	.LASF460
ARM GAS  C:\Users\salaz\AppData\Local\Temp\ccnyouLe.s 			page 115


 3776 13f3 1720     		.2byte	0x2017
 3777 13f5 1E       		.uleb128 0x1e
 3778 13f6 74070000 		.4byte	.LASF461
 3779 13fa 0030     		.2byte	0x3000
 3780 13fc 1E       		.uleb128 0x1e
 3781 13fd 58020000 		.4byte	.LASF462
 3782 1401 0130     		.2byte	0x3001
 3783 1403 1E       		.uleb128 0x1e
 3784 1404 2D010000 		.4byte	.LASF463
 3785 1408 0230     		.2byte	0x3002
 3786 140a 1E       		.uleb128 0x1e
 3787 140b 4C320000 		.4byte	.LASF464
 3788 140f 0330     		.2byte	0x3003
 3789 1411 1E       		.uleb128 0x1e
 3790 1412 2E1E0000 		.4byte	.LASF465
 3791 1416 0430     		.2byte	0x3004
 3792 1418 1E       		.uleb128 0x1e
 3793 1419 903D0000 		.4byte	.LASF466
 3794 141d 0530     		.2byte	0x3005
 3795 141f 1E       		.uleb128 0x1e
 3796 1420 AA480000 		.4byte	.LASF467
 3797 1424 0630     		.2byte	0x3006
 3798 1426 1E       		.uleb128 0x1e
 3799 1427 55030000 		.4byte	.LASF468
 3800 142b 0730     		.2byte	0x3007
 3801 142d 1E       		.uleb128 0x1e
 3802 142e D5000000 		.4byte	.LASF469
 3803 1432 0830     		.2byte	0x3008
 3804 1434 1E       		.uleb128 0x1e
 3805 1435 E3220000 		.4byte	.LASF470
 3806 1439 0930     		.2byte	0x3009
 3807 143b 1E       		.uleb128 0x1e
 3808 143c 5E430000 		.4byte	.LASF471
 3809 1440 0A30     		.2byte	0x300a
 3810 1442 1E       		.uleb128 0x1e
 3811 1443 85340000 		.4byte	.LASF472
 3812 1447 0B30     		.2byte	0x300b
 3813 1449 1E       		.uleb128 0x1e
 3814 144a 21160000 		.4byte	.LASF473
 3815 144e 0C30     		.2byte	0x300c
 3816 1450 1E       		.uleb128 0x1e
 3817 1451 CA030000 		.4byte	.LASF474
 3818 1455 1130     		.2byte	0x3011
 3819 1457 1E       		.uleb128 0x1e
 3820 1458 5F3D0000 		.4byte	.LASF475
 3821 145c 1230     		.2byte	0x3012
 3822 145e 1E       		.uleb128 0x1e
 3823 145f 0F2D0000 		.4byte	.LASF476
 3824 1463 1330     		.2byte	0x3013
 3825 1465 1E       		.uleb128 0x1e
 3826 1466 373F0000 		.4byte	.LASF477
 3827 146a 1430     		.2byte	0x3014
 3828 146c 1E       		.uleb128 0x1e
 3829 146d 5A2C0000 		.4byte	.LASF478
 3830 1471 1530     		.2byte	0x3015
 3831 1473 1E       		.uleb128 0x1e
 3832 1474 850B0000 		.4byte	.LASF479
ARM GAS  C:\Users\salaz\AppData\Local\Temp\ccnyouLe.s 			page 116


 3833 1478 1630     		.2byte	0x3016
 3834 147a 1E       		.uleb128 0x1e
 3835 147b 012E0000 		.4byte	.LASF480
 3836 147f 1730     		.2byte	0x3017
 3837 1481 1E       		.uleb128 0x1e
 3838 1482 A61A0000 		.4byte	.LASF481
 3839 1486 1830     		.2byte	0x3018
 3840 1488 1E       		.uleb128 0x1e
 3841 1489 C62E0000 		.4byte	.LASF482
 3842 148d 0040     		.2byte	0x4000
 3843 148f 1E       		.uleb128 0x1e
 3844 1490 FF270000 		.4byte	.LASF483
 3845 1494 0140     		.2byte	0x4001
 3846 1496 1E       		.uleb128 0x1e
 3847 1497 EB350000 		.4byte	.LASF484
 3848 149b 0240     		.2byte	0x4002
 3849 149d 1E       		.uleb128 0x1e
 3850 149e 7E330000 		.4byte	.LASF485
 3851 14a2 0340     		.2byte	0x4003
 3852 14a4 1E       		.uleb128 0x1e
 3853 14a5 102F0000 		.4byte	.LASF486
 3854 14a9 0440     		.2byte	0x4004
 3855 14ab 1E       		.uleb128 0x1e
 3856 14ac B8090000 		.4byte	.LASF487
 3857 14b0 0540     		.2byte	0x4005
 3858 14b2 1E       		.uleb128 0x1e
 3859 14b3 273B0000 		.4byte	.LASF488
 3860 14b7 0640     		.2byte	0x4006
 3861 14b9 1E       		.uleb128 0x1e
 3862 14ba 173F0000 		.4byte	.LASF489
 3863 14be 0740     		.2byte	0x4007
 3864 14c0 1E       		.uleb128 0x1e
 3865 14c1 892C0000 		.4byte	.LASF490
 3866 14c5 0840     		.2byte	0x4008
 3867 14c7 1E       		.uleb128 0x1e
 3868 14c8 9F0D0000 		.4byte	.LASF491
 3869 14cc 0940     		.2byte	0x4009
 3870 14ce 1E       		.uleb128 0x1e
 3871 14cf 12330000 		.4byte	.LASF492
 3872 14d3 0A40     		.2byte	0x400a
 3873 14d5 1E       		.uleb128 0x1e
 3874 14d6 691F0000 		.4byte	.LASF493
 3875 14da 0B40     		.2byte	0x400b
 3876 14dc 1E       		.uleb128 0x1e
 3877 14dd 9F320000 		.4byte	.LASF494
 3878 14e1 0C40     		.2byte	0x400c
 3879 14e3 1E       		.uleb128 0x1e
 3880 14e4 57450000 		.4byte	.LASF495
 3881 14e8 0D40     		.2byte	0x400d
 3882 14ea 1E       		.uleb128 0x1e
 3883 14eb DF2A0000 		.4byte	.LASF496
 3884 14ef 0E40     		.2byte	0x400e
 3885 14f1 1E       		.uleb128 0x1e
 3886 14f2 7C1A0000 		.4byte	.LASF497
 3887 14f6 0F40     		.2byte	0x400f
 3888 14f8 1E       		.uleb128 0x1e
 3889 14f9 6A170000 		.4byte	.LASF498
ARM GAS  C:\Users\salaz\AppData\Local\Temp\ccnyouLe.s 			page 117


 3890 14fd 1040     		.2byte	0x4010
 3891 14ff 1E       		.uleb128 0x1e
 3892 1500 D30F0000 		.4byte	.LASF499
 3893 1504 1140     		.2byte	0x4011
 3894 1506 1E       		.uleb128 0x1e
 3895 1507 5E380000 		.4byte	.LASF500
 3896 150b 1240     		.2byte	0x4012
 3897 150d 1E       		.uleb128 0x1e
 3898 150e F51C0000 		.4byte	.LASF501
 3899 1512 1340     		.2byte	0x4013
 3900 1514 1E       		.uleb128 0x1e
 3901 1515 7C4A0000 		.4byte	.LASF502
 3902 1519 1440     		.2byte	0x4014
 3903 151b 1E       		.uleb128 0x1e
 3904 151c E8340000 		.4byte	.LASF503
 3905 1520 1540     		.2byte	0x4015
 3906 1522 1E       		.uleb128 0x1e
 3907 1523 9E080000 		.4byte	.LASF504
 3908 1527 1640     		.2byte	0x4016
 3909 1529 1E       		.uleb128 0x1e
 3910 152a DA0D0000 		.4byte	.LASF505
 3911 152e 1740     		.2byte	0x4017
 3912 1530 1E       		.uleb128 0x1e
 3913 1531 B5270000 		.4byte	.LASF506
 3914 1535 1840     		.2byte	0x4018
 3915 1537 1E       		.uleb128 0x1e
 3916 1538 014A0000 		.4byte	.LASF507
 3917 153c 1940     		.2byte	0x4019
 3918 153e 1E       		.uleb128 0x1e
 3919 153f A6360000 		.4byte	.LASF508
 3920 1543 1A40     		.2byte	0x401a
 3921 1545 1E       		.uleb128 0x1e
 3922 1546 AE1C0000 		.4byte	.LASF509
 3923 154a 0050     		.2byte	0x5000
 3924 154c 1E       		.uleb128 0x1e
 3925 154d 992B0000 		.4byte	.LASF510
 3926 1551 0150     		.2byte	0x5001
 3927 1553 1E       		.uleb128 0x1e
 3928 1554 BF200000 		.4byte	.LASF511
 3929 1558 0250     		.2byte	0x5002
 3930 155a 1E       		.uleb128 0x1e
 3931 155b 660B0000 		.4byte	.LASF512
 3932 155f 0350     		.2byte	0x5003
 3933 1561 1E       		.uleb128 0x1e
 3934 1562 2C350000 		.4byte	.LASF513
 3935 1566 0450     		.2byte	0x5004
 3936 1568 1E       		.uleb128 0x1e
 3937 1569 0B1F0000 		.4byte	.LASF514
 3938 156d 0550     		.2byte	0x5005
 3939 156f 1E       		.uleb128 0x1e
 3940 1570 3F000000 		.4byte	.LASF515
 3941 1574 0650     		.2byte	0x5006
 3942 1576 1E       		.uleb128 0x1e
 3943 1577 88120000 		.4byte	.LASF516
 3944 157b 0750     		.2byte	0x5007
 3945 157d 1E       		.uleb128 0x1e
 3946 157e 44210000 		.4byte	.LASF517
ARM GAS  C:\Users\salaz\AppData\Local\Temp\ccnyouLe.s 			page 118


 3947 1582 0850     		.2byte	0x5008
 3948 1584 1E       		.uleb128 0x1e
 3949 1585 23230000 		.4byte	.LASF518
 3950 1589 0950     		.2byte	0x5009
 3951 158b 1E       		.uleb128 0x1e
 3952 158c DD2C0000 		.4byte	.LASF519
 3953 1590 0A50     		.2byte	0x500a
 3954 1592 1E       		.uleb128 0x1e
 3955 1593 9F240000 		.4byte	.LASF520
 3956 1597 0B50     		.2byte	0x500b
 3957 1599 1E       		.uleb128 0x1e
 3958 159a 110C0000 		.4byte	.LASF521
 3959 159e 0C50     		.2byte	0x500c
 3960 15a0 1E       		.uleb128 0x1e
 3961 15a1 7D190000 		.4byte	.LASF522
 3962 15a5 0D50     		.2byte	0x500d
 3963 15a7 1E       		.uleb128 0x1e
 3964 15a8 612D0000 		.4byte	.LASF523
 3965 15ac 0E50     		.2byte	0x500e
 3966 15ae 1E       		.uleb128 0x1e
 3967 15af C91C0000 		.4byte	.LASF524
 3968 15b3 0F50     		.2byte	0x500f
 3969 15b5 1E       		.uleb128 0x1e
 3970 15b6 68300000 		.4byte	.LASF525
 3971 15ba 1050     		.2byte	0x5010
 3972 15bc 1E       		.uleb128 0x1e
 3973 15bd A3030000 		.4byte	.LASF526
 3974 15c1 1150     		.2byte	0x5011
 3975 15c3 1E       		.uleb128 0x1e
 3976 15c4 B6130000 		.4byte	.LASF527
 3977 15c8 1250     		.2byte	0x5012
 3978 15ca 1E       		.uleb128 0x1e
 3979 15cb A10A0000 		.4byte	.LASF528
 3980 15cf 1350     		.2byte	0x5013
 3981 15d1 1E       		.uleb128 0x1e
 3982 15d2 FC100000 		.4byte	.LASF529
 3983 15d6 1450     		.2byte	0x5014
 3984 15d8 1E       		.uleb128 0x1e
 3985 15d9 B0000000 		.4byte	.LASF530
 3986 15dd 1550     		.2byte	0x5015
 3987 15df 1E       		.uleb128 0x1e
 3988 15e0 D0170000 		.4byte	.LASF531
 3989 15e4 1650     		.2byte	0x5016
 3990 15e6 1E       		.uleb128 0x1e
 3991 15e7 5E3A0000 		.4byte	.LASF532
 3992 15eb 1750     		.2byte	0x5017
 3993 15ed 1E       		.uleb128 0x1e
 3994 15ee 36090000 		.4byte	.LASF533
 3995 15f2 1850     		.2byte	0x5018
 3996 15f4 1E       		.uleb128 0x1e
 3997 15f5 3B0C0000 		.4byte	.LASF534
 3998 15f9 0060     		.2byte	0x6000
 3999 15fb 1E       		.uleb128 0x1e
 4000 15fc 6D1E0000 		.4byte	.LASF535
 4001 1600 0160     		.2byte	0x6001
 4002 1602 1E       		.uleb128 0x1e
 4003 1603 5D150000 		.4byte	.LASF536
ARM GAS  C:\Users\salaz\AppData\Local\Temp\ccnyouLe.s 			page 119


 4004 1607 0260     		.2byte	0x6002
 4005 1609 1E       		.uleb128 0x1e
 4006 160a B51D0000 		.4byte	.LASF537
 4007 160e 0360     		.2byte	0x6003
 4008 1610 1E       		.uleb128 0x1e
 4009 1611 78090000 		.4byte	.LASF538
 4010 1615 0460     		.2byte	0x6004
 4011 1617 1E       		.uleb128 0x1e
 4012 1618 47330000 		.4byte	.LASF539
 4013 161c 0560     		.2byte	0x6005
 4014 161e 1E       		.uleb128 0x1e
 4015 161f BF240000 		.4byte	.LASF540
 4016 1623 0660     		.2byte	0x6006
 4017 1625 1E       		.uleb128 0x1e
 4018 1626 06260000 		.4byte	.LASF541
 4019 162a 0760     		.2byte	0x6007
 4020 162c 1E       		.uleb128 0x1e
 4021 162d FD0F0000 		.4byte	.LASF542
 4022 1631 0860     		.2byte	0x6008
 4023 1633 1E       		.uleb128 0x1e
 4024 1634 5A010000 		.4byte	.LASF543
 4025 1638 0960     		.2byte	0x6009
 4026 163a 1E       		.uleb128 0x1e
 4027 163b 68370000 		.4byte	.LASF544
 4028 163f 0A60     		.2byte	0x600a
 4029 1641 1E       		.uleb128 0x1e
 4030 1642 2C050000 		.4byte	.LASF545
 4031 1646 FFFF     		.2byte	0xffff
 4032 1648 00       		.byte	0
 4033 1649 18       		.uleb128 0x18
 4034 164a 04       		.byte	0x4
 4035 164b 39050000 		.4byte	0x539
 4036 164f 0F       		.byte	0xf
 4037 1650 BF04     		.2byte	0x4bf
 4038 1652 62170000 		.4byte	0x1762
 4039 1656 05       		.uleb128 0x5
 4040 1657 FC1E0000 		.4byte	.LASF546
 4041 165b 00       		.byte	0
 4042 165c 1F       		.uleb128 0x1f
 4043 165d 22030000 		.4byte	.LASF547
 4044 1661 01001400 		.4byte	0x140001
 4045 1665 1F       		.uleb128 0x1f
 4046 1666 7F3C0000 		.4byte	.LASF548
 4047 166a 01001600 		.4byte	0x160001
 4048 166e 1F       		.uleb128 0x1f
 4049 166f 6D200000 		.4byte	.LASF549
 4050 1673 02001600 		.4byte	0x160002
 4051 1677 1F       		.uleb128 0x1f
 4052 1678 59290000 		.4byte	.LASF550
 4053 167c 03001600 		.4byte	0x160003
 4054 1680 1F       		.uleb128 0x1f
 4055 1681 17280000 		.4byte	.LASF551
 4056 1685 04001600 		.4byte	0x160004
 4057 1689 1F       		.uleb128 0x1f
 4058 168a C0400000 		.4byte	.LASF552
 4059 168e 05001600 		.4byte	0x160005
 4060 1692 1F       		.uleb128 0x1f
ARM GAS  C:\Users\salaz\AppData\Local\Temp\ccnyouLe.s 			page 120


 4061 1693 5A260000 		.4byte	.LASF553
 4062 1697 06001600 		.4byte	0x160006
 4063 169b 1F       		.uleb128 0x1f
 4064 169c 613C0000 		.4byte	.LASF554
 4065 16a0 07001600 		.4byte	0x160007
 4066 16a4 1F       		.uleb128 0x1f
 4067 16a5 F03B0000 		.4byte	.LASF555
 4068 16a9 08001600 		.4byte	0x160008
 4069 16ad 1F       		.uleb128 0x1f
 4070 16ae F8000000 		.4byte	.LASF556
 4071 16b2 09001600 		.4byte	0x160009
 4072 16b6 1F       		.uleb128 0x1f
 4073 16b7 DE3F0000 		.4byte	.LASF557
 4074 16bb 0A001600 		.4byte	0x16000a
 4075 16bf 1F       		.uleb128 0x1f
 4076 16c0 641A0000 		.4byte	.LASF558
 4077 16c4 0B001600 		.4byte	0x16000b
 4078 16c8 1F       		.uleb128 0x1f
 4079 16c9 4D2E0000 		.4byte	.LASF559
 4080 16cd 0C001600 		.4byte	0x16000c
 4081 16d1 1F       		.uleb128 0x1f
 4082 16d2 5C310000 		.4byte	.LASF560
 4083 16d6 0D001600 		.4byte	0x16000d
 4084 16da 1F       		.uleb128 0x1f
 4085 16db BC360000 		.4byte	.LASF561
 4086 16df 0E001600 		.4byte	0x16000e
 4087 16e3 1F       		.uleb128 0x1f
 4088 16e4 D7250000 		.4byte	.LASF562
 4089 16e8 0F001600 		.4byte	0x16000f
 4090 16ec 1F       		.uleb128 0x1f
 4091 16ed FD170000 		.4byte	.LASF563
 4092 16f1 10001600 		.4byte	0x160010
 4093 16f5 1F       		.uleb128 0x1f
 4094 16f6 E81F0000 		.4byte	.LASF564
 4095 16fa 11001600 		.4byte	0x160011
 4096 16fe 1F       		.uleb128 0x1f
 4097 16ff 21390000 		.4byte	.LASF565
 4098 1703 12001600 		.4byte	0x160012
 4099 1707 1F       		.uleb128 0x1f
 4100 1708 C1310000 		.4byte	.LASF566
 4101 170c 13001600 		.4byte	0x160013
 4102 1710 1F       		.uleb128 0x1f
 4103 1711 621C0000 		.4byte	.LASF567
 4104 1715 14001600 		.4byte	0x160014
 4105 1719 1F       		.uleb128 0x1f
 4106 171a FA1A0000 		.4byte	.LASF568
 4107 171e 15001600 		.4byte	0x160015
 4108 1722 1F       		.uleb128 0x1f
 4109 1723 DF400000 		.4byte	.LASF569
 4110 1727 16001600 		.4byte	0x160016
 4111 172b 1F       		.uleb128 0x1f
 4112 172c 29220000 		.4byte	.LASF570
 4113 1730 17001600 		.4byte	0x160017
 4114 1734 1F       		.uleb128 0x1f
 4115 1735 0F220000 		.4byte	.LASF571
 4116 1739 18001600 		.4byte	0x160018
 4117 173d 1F       		.uleb128 0x1f
ARM GAS  C:\Users\salaz\AppData\Local\Temp\ccnyouLe.s 			page 121


 4118 173e FA180000 		.4byte	.LASF572
 4119 1742 19001600 		.4byte	0x160019
 4120 1746 1F       		.uleb128 0x1f
 4121 1747 872A0000 		.4byte	.LASF573
 4122 174b FE001600 		.4byte	0x1600fe
 4123 174f 1F       		.uleb128 0x1f
 4124 1750 3B130000 		.4byte	.LASF574
 4125 1754 FF001600 		.4byte	0x1600ff
 4126 1758 1F       		.uleb128 0x1f
 4127 1759 BE290000 		.4byte	.LASF575
 4128 175d FFFF1600 		.4byte	0x16ffff
 4129 1761 00       		.byte	0
 4130 1762 07       		.uleb128 0x7
 4131 1763 E1240000 		.4byte	.LASF576
 4132 1767 0F       		.byte	0xf
 4133 1768 2205     		.2byte	0x522
 4134 176a 49160000 		.4byte	0x1649
 4135 176e 20       		.uleb128 0x20
 4136 176f 07       		.byte	0x7
 4137 1770 0F       		.byte	0xf
 4138 1771 4005     		.2byte	0x540
 4139 1773 92170000 		.4byte	0x1792
 4140 1777 0A       		.uleb128 0xa
 4141 1778 97400000 		.4byte	.LASF577
 4142 177c 0F       		.byte	0xf
 4143 177d 4305     		.2byte	0x543
 4144 177f 92170000 		.4byte	0x1792
 4145 1783 00       		.byte	0
 4146 1784 0A       		.uleb128 0xa
 4147 1785 C9060000 		.4byte	.LASF578
 4148 1789 0F       		.byte	0xf
 4149 178a 4605     		.2byte	0x546
 4150 178c 40050000 		.4byte	0x540
 4151 1790 06       		.byte	0x6
 4152 1791 00       		.byte	0
 4153 1792 0D       		.uleb128 0xd
 4154 1793 40050000 		.4byte	0x540
 4155 1797 A2170000 		.4byte	0x17a2
 4156 179b 0E       		.uleb128 0xe
 4157 179c 24060000 		.4byte	0x624
 4158 17a0 05       		.byte	0x5
 4159 17a1 00       		.byte	0
 4160 17a2 07       		.uleb128 0x7
 4161 17a3 21470000 		.4byte	.LASF579
 4162 17a7 0F       		.byte	0xf
 4163 17a8 4805     		.2byte	0x548
 4164 17aa 6E170000 		.4byte	0x176e
 4165 17ae 10       		.uleb128 0x10
 4166 17af 40050000 		.4byte	0x540
 4167 17b3 18       		.uleb128 0x18
 4168 17b4 01       		.byte	0x1
 4169 17b5 CD040000 		.4byte	0x4cd
 4170 17b9 0F       		.byte	0xf
 4171 17ba 1606     		.2byte	0x616
 4172 17bc E5170000 		.4byte	0x17e5
 4173 17c0 04       		.uleb128 0x4
 4174 17c1 F20C0000 		.4byte	.LASF580
ARM GAS  C:\Users\salaz\AppData\Local\Temp\ccnyouLe.s 			page 122


 4175 17c5 6C       		.sleb128 -20
 4176 17c6 04       		.uleb128 0x4
 4177 17c7 82280000 		.4byte	.LASF581
 4178 17cb 70       		.sleb128 -16
 4179 17cc 04       		.uleb128 0x4
 4180 17cd 43340000 		.4byte	.LASF582
 4181 17d1 74       		.sleb128 -12
 4182 17d2 04       		.uleb128 0x4
 4183 17d3 900F0000 		.4byte	.LASF583
 4184 17d7 7A       		.sleb128 -6
 4185 17d8 05       		.uleb128 0x5
 4186 17d9 65190000 		.4byte	.LASF584
 4187 17dd 00       		.byte	0
 4188 17de 05       		.uleb128 0x5
 4189 17df 26260000 		.4byte	.LASF585
 4190 17e3 04       		.byte	0x4
 4191 17e4 00       		.byte	0
 4192 17e5 07       		.uleb128 0x7
 4193 17e6 E0020000 		.4byte	.LASF586
 4194 17ea 0F       		.byte	0xf
 4195 17eb 2906     		.2byte	0x629
 4196 17ed B3170000 		.4byte	0x17b3
 4197 17f1 20       		.uleb128 0x20
 4198 17f2 02       		.byte	0x2
 4199 17f3 10       		.byte	0x10
 4200 17f4 5B01     		.2byte	0x15b
 4201 17f6 15180000 		.4byte	0x1815
 4202 17fa 0A       		.uleb128 0xa
 4203 17fb 97090000 		.4byte	.LASF587
 4204 17ff 10       		.byte	0x10
 4205 1800 6501     		.2byte	0x165
 4206 1802 40050000 		.4byte	0x540
 4207 1806 00       		.byte	0
 4208 1807 0A       		.uleb128 0xa
 4209 1808 9D470000 		.4byte	.LASF588
 4210 180c 10       		.byte	0x10
 4211 180d 6901     		.2byte	0x169
 4212 180f 40050000 		.4byte	0x540
 4213 1813 01       		.byte	0x1
 4214 1814 00       		.byte	0
 4215 1815 07       		.uleb128 0x7
 4216 1816 E73A0000 		.4byte	.LASF589
 4217 181a 10       		.byte	0x10
 4218 181b 6B01     		.2byte	0x16b
 4219 181d F1170000 		.4byte	0x17f1
 4220 1821 0D       		.uleb128 0xd
 4221 1822 40050000 		.4byte	0x540
 4222 1826 31180000 		.4byte	0x1831
 4223 182a 0E       		.uleb128 0xe
 4224 182b 24060000 		.4byte	0x624
 4225 182f 0F       		.byte	0xf
 4226 1830 00       		.byte	0
 4227 1831 07       		.uleb128 0x7
 4228 1832 7D100000 		.4byte	.LASF590
 4229 1836 11       		.byte	0x11
 4230 1837 7F01     		.2byte	0x17f
 4231 1839 56050000 		.4byte	0x556
ARM GAS  C:\Users\salaz\AppData\Local\Temp\ccnyouLe.s 			page 123


 4232 183d 20       		.uleb128 0x20
 4233 183e 08       		.byte	0x8
 4234 183f 11       		.byte	0x11
 4235 1840 9401     		.2byte	0x194
 4236 1842 6E180000 		.4byte	0x186e
 4237 1846 21       		.uleb128 0x21
 4238 1847 76616C00 		.ascii	"val\000"
 4239 184b 11       		.byte	0x11
 4240 184c 9701     		.2byte	0x197
 4241 184e FC0F0000 		.4byte	0xffc
 4242 1852 00       		.byte	0
 4243 1853 21       		.uleb128 0x21
 4244 1854 6C656E00 		.ascii	"len\000"
 4245 1858 11       		.byte	0x11
 4246 1859 9A01     		.2byte	0x19a
 4247 185b 56050000 		.4byte	0x556
 4248 185f 04       		.byte	0x4
 4249 1860 0A       		.uleb128 0xa
 4250 1861 B3460000 		.4byte	.LASF591
 4251 1865 11       		.byte	0x11
 4252 1866 A101     		.2byte	0x1a1
 4253 1868 56050000 		.4byte	0x556
 4254 186c 06       		.byte	0x6
 4255 186d 00       		.byte	0
 4256 186e 07       		.uleb128 0x7
 4257 186f 890C0000 		.4byte	.LASF592
 4258 1873 11       		.byte	0x11
 4259 1874 A301     		.2byte	0x1a3
 4260 1876 3D180000 		.4byte	0x183d
 4261 187a 20       		.uleb128 0x20
 4262 187b 0C       		.byte	0xc
 4263 187c 11       		.byte	0x11
 4264 187d A601     		.2byte	0x1a6
 4265 187f 9E180000 		.4byte	0x189e
 4266 1883 0A       		.uleb128 0xa
 4267 1884 2C0C0000 		.4byte	.LASF593
 4268 1888 11       		.byte	0x11
 4269 1889 A901     		.2byte	0x1a9
 4270 188b 6E180000 		.4byte	0x186e
 4271 188f 00       		.byte	0
 4272 1890 0A       		.uleb128 0xa
 4273 1891 CF280000 		.4byte	.LASF594
 4274 1895 11       		.byte	0x11
 4275 1896 AC01     		.2byte	0x1ac
 4276 1898 31180000 		.4byte	0x1831
 4277 189c 08       		.byte	0x8
 4278 189d 00       		.byte	0
 4279 189e 07       		.uleb128 0x7
 4280 189f C2050000 		.4byte	.LASF595
 4281 18a3 11       		.byte	0x11
 4282 18a4 AE01     		.2byte	0x1ae
 4283 18a6 7A180000 		.4byte	0x187a
 4284 18aa 20       		.uleb128 0x20
 4285 18ab 10       		.byte	0x10
 4286 18ac 11       		.byte	0x11
 4287 18ad D201     		.2byte	0x1d2
 4288 18af CE180000 		.4byte	0x18ce
ARM GAS  C:\Users\salaz\AppData\Local\Temp\ccnyouLe.s 			page 124


 4289 18b3 0A       		.uleb128 0xa
 4290 18b4 823D0000 		.4byte	.LASF596
 4291 18b8 11       		.byte	0x11
 4292 18b9 D501     		.2byte	0x1d5
 4293 18bb 9E180000 		.4byte	0x189e
 4294 18bf 00       		.byte	0
 4295 18c0 0A       		.uleb128 0xa
 4296 18c1 3C380000 		.4byte	.LASF597
 4297 18c5 11       		.byte	0x11
 4298 18c6 D801     		.2byte	0x1d8
 4299 18c8 15180000 		.4byte	0x1815
 4300 18cc 0C       		.byte	0xc
 4301 18cd 00       		.byte	0
 4302 18ce 07       		.uleb128 0x7
 4303 18cf 3C260000 		.4byte	.LASF598
 4304 18d3 11       		.byte	0x11
 4305 18d4 DA01     		.2byte	0x1da
 4306 18d6 AA180000 		.4byte	0x18aa
 4307 18da 03       		.uleb128 0x3
 4308 18db 01       		.byte	0x1
 4309 18dc 2C000000 		.4byte	0x2c
 4310 18e0 12       		.byte	0x12
 4311 18e1 B2       		.byte	0xb2
 4312 18e2 05190000 		.4byte	0x1905
 4313 18e6 05       		.uleb128 0x5
 4314 18e7 BB1E0000 		.4byte	.LASF599
 4315 18eb 00       		.byte	0
 4316 18ec 05       		.uleb128 0x5
 4317 18ed A7120000 		.4byte	.LASF600
 4318 18f1 01       		.byte	0x1
 4319 18f2 05       		.uleb128 0x5
 4320 18f3 BE120000 		.4byte	.LASF601
 4321 18f7 02       		.byte	0x2
 4322 18f8 05       		.uleb128 0x5
 4323 18f9 D5120000 		.4byte	.LASF602
 4324 18fd 03       		.byte	0x3
 4325 18fe 05       		.uleb128 0x5
 4326 18ff 0A0B0000 		.4byte	.LASF603
 4327 1903 0F       		.byte	0xf
 4328 1904 00       		.byte	0
 4329 1905 03       		.uleb128 0x3
 4330 1906 01       		.byte	0x1
 4331 1907 2C000000 		.4byte	0x2c
 4332 190b 12       		.byte	0x12
 4333 190c D0       		.byte	0xd0
 4334 190d 30190000 		.4byte	0x1930
 4335 1911 05       		.uleb128 0x5
 4336 1912 E32D0000 		.4byte	.LASF604
 4337 1916 00       		.byte	0
 4338 1917 05       		.uleb128 0x5
 4339 1918 8D1D0000 		.4byte	.LASF605
 4340 191c 01       		.byte	0x1
 4341 191d 05       		.uleb128 0x5
 4342 191e A3170000 		.4byte	.LASF606
 4343 1922 02       		.byte	0x2
 4344 1923 05       		.uleb128 0x5
 4345 1924 DD270000 		.4byte	.LASF607
ARM GAS  C:\Users\salaz\AppData\Local\Temp\ccnyouLe.s 			page 125


 4346 1928 03       		.byte	0x3
 4347 1929 05       		.uleb128 0x5
 4348 192a 8A050000 		.4byte	.LASF608
 4349 192e 04       		.byte	0x4
 4350 192f 00       		.byte	0
 4351 1930 06       		.uleb128 0x6
 4352 1931 1C200000 		.4byte	.LASF609
 4353 1935 12       		.byte	0x12
 4354 1936 E2       		.byte	0xe2
 4355 1937 05190000 		.4byte	0x1905
 4356 193b 03       		.uleb128 0x3
 4357 193c 01       		.byte	0x1
 4358 193d 2C000000 		.4byte	0x2c
 4359 1941 12       		.byte	0x12
 4360 1942 E6       		.byte	0xe6
 4361 1943 AE190000 		.4byte	0x19ae
 4362 1947 05       		.uleb128 0x5
 4363 1948 AC0F0000 		.4byte	.LASF610
 4364 194c 00       		.byte	0
 4365 194d 05       		.uleb128 0x5
 4366 194e 8B010000 		.4byte	.LASF611
 4367 1952 01       		.byte	0x1
 4368 1953 05       		.uleb128 0x5
 4369 1954 45490000 		.4byte	.LASF612
 4370 1958 02       		.byte	0x2
 4371 1959 05       		.uleb128 0x5
 4372 195a 43220000 		.4byte	.LASF613
 4373 195e 03       		.byte	0x3
 4374 195f 05       		.uleb128 0x5
 4375 1960 A7020000 		.4byte	.LASF614
 4376 1964 04       		.byte	0x4
 4377 1965 05       		.uleb128 0x5
 4378 1966 591B0000 		.4byte	.LASF615
 4379 196a 05       		.byte	0x5
 4380 196b 05       		.uleb128 0x5
 4381 196c BB470000 		.4byte	.LASF616
 4382 1970 06       		.byte	0x6
 4383 1971 05       		.uleb128 0x5
 4384 1972 A5330000 		.4byte	.LASF617
 4385 1976 07       		.byte	0x7
 4386 1977 05       		.uleb128 0x5
 4387 1978 67060000 		.4byte	.LASF618
 4388 197c 08       		.byte	0x8
 4389 197d 05       		.uleb128 0x5
 4390 197e 88300000 		.4byte	.LASF619
 4391 1982 09       		.byte	0x9
 4392 1983 05       		.uleb128 0x5
 4393 1984 12130000 		.4byte	.LASF620
 4394 1988 0A       		.byte	0xa
 4395 1989 05       		.uleb128 0x5
 4396 198a F41B0000 		.4byte	.LASF621
 4397 198e 0B       		.byte	0xb
 4398 198f 05       		.uleb128 0x5
 4399 1990 600A0000 		.4byte	.LASF622
 4400 1994 0C       		.byte	0xc
 4401 1995 05       		.uleb128 0x5
 4402 1996 2B1D0000 		.4byte	.LASF623
ARM GAS  C:\Users\salaz\AppData\Local\Temp\ccnyouLe.s 			page 126


 4403 199a 0D       		.byte	0xd
 4404 199b 05       		.uleb128 0x5
 4405 199c D6140000 		.4byte	.LASF624
 4406 19a0 0E       		.byte	0xe
 4407 19a1 05       		.uleb128 0x5
 4408 19a2 720D0000 		.4byte	.LASF625
 4409 19a6 15       		.byte	0x15
 4410 19a7 05       		.uleb128 0x5
 4411 19a8 28420000 		.4byte	.LASF626
 4412 19ac 18       		.byte	0x18
 4413 19ad 00       		.byte	0
 4414 19ae 07       		.uleb128 0x7
 4415 19af C30A0000 		.4byte	.LASF627
 4416 19b3 12       		.byte	0x12
 4417 19b4 2301     		.2byte	0x123
 4418 19b6 3B190000 		.4byte	0x193b
 4419 19ba 18       		.uleb128 0x18
 4420 19bb 01       		.byte	0x1
 4421 19bc 2C000000 		.4byte	0x2c
 4422 19c0 12       		.byte	0x12
 4423 19c1 2701     		.2byte	0x127
 4424 19c3 E0190000 		.4byte	0x19e0
 4425 19c7 05       		.uleb128 0x5
 4426 19c8 CA070000 		.4byte	.LASF628
 4427 19cc 00       		.byte	0
 4428 19cd 05       		.uleb128 0x5
 4429 19ce 003B0000 		.4byte	.LASF629
 4430 19d2 01       		.byte	0x1
 4431 19d3 05       		.uleb128 0x5
 4432 19d4 39100000 		.4byte	.LASF630
 4433 19d8 02       		.byte	0x2
 4434 19d9 05       		.uleb128 0x5
 4435 19da DB0E0000 		.4byte	.LASF631
 4436 19de 03       		.byte	0x3
 4437 19df 00       		.byte	0
 4438 19e0 07       		.uleb128 0x7
 4439 19e1 EB2E0000 		.4byte	.LASF632
 4440 19e5 12       		.byte	0x12
 4441 19e6 3401     		.2byte	0x134
 4442 19e8 BA190000 		.4byte	0x19ba
 4443 19ec 07       		.uleb128 0x7
 4444 19ed 97180000 		.4byte	.LASF633
 4445 19f1 12       		.byte	0x12
 4446 19f2 6101     		.2byte	0x161
 4447 19f4 A2170000 		.4byte	0x17a2
 4448 19f8 20       		.uleb128 0x20
 4449 19f9 02       		.byte	0x2
 4450 19fa 12       		.byte	0x12
 4451 19fb 8501     		.2byte	0x185
 4452 19fd 1C1A0000 		.4byte	0x1a1c
 4453 1a01 0A       		.uleb128 0xa
 4454 1a02 28370000 		.4byte	.LASF634
 4455 1a06 12       		.byte	0x12
 4456 1a07 8801     		.2byte	0x188
 4457 1a09 40050000 		.4byte	0x540
 4458 1a0d 00       		.byte	0
 4459 1a0e 0A       		.uleb128 0xa
ARM GAS  C:\Users\salaz\AppData\Local\Temp\ccnyouLe.s 			page 127


 4460 1a0f 97090000 		.4byte	.LASF587
 4461 1a13 12       		.byte	0x12
 4462 1a14 8B01     		.2byte	0x18b
 4463 1a16 40050000 		.4byte	0x540
 4464 1a1a 01       		.byte	0x1
 4465 1a1b 00       		.byte	0
 4466 1a1c 07       		.uleb128 0x7
 4467 1a1d B33B0000 		.4byte	.LASF635
 4468 1a21 12       		.byte	0x12
 4469 1a22 8D01     		.2byte	0x18d
 4470 1a24 F8190000 		.4byte	0x19f8
 4471 1a28 20       		.uleb128 0x20
 4472 1a29 08       		.byte	0x8
 4473 1a2a 12       		.byte	0x12
 4474 1a2b 9001     		.2byte	0x190
 4475 1a2d 4C1A0000 		.4byte	0x1a4c
 4476 1a31 0A       		.uleb128 0xa
 4477 1a32 97400000 		.4byte	.LASF577
 4478 1a36 12       		.byte	0x12
 4479 1a37 9301     		.2byte	0x193
 4480 1a39 EC190000 		.4byte	0x19ec
 4481 1a3d 00       		.byte	0
 4482 1a3e 0A       		.uleb128 0xa
 4483 1a3f 97090000 		.4byte	.LASF587
 4484 1a43 12       		.byte	0x12
 4485 1a44 9601     		.2byte	0x196
 4486 1a46 40050000 		.4byte	0x540
 4487 1a4a 07       		.byte	0x7
 4488 1a4b 00       		.byte	0
 4489 1a4c 07       		.uleb128 0x7
 4490 1a4d 87020000 		.4byte	.LASF636
 4491 1a51 12       		.byte	0x12
 4492 1a52 9801     		.2byte	0x198
 4493 1a54 281A0000 		.4byte	0x1a28
 4494 1a58 20       		.uleb128 0x20
 4495 1a59 18       		.byte	0x18
 4496 1a5a 12       		.byte	0x12
 4497 1a5b D401     		.2byte	0x1d4
 4498 1a5d 891A0000 		.4byte	0x1a89
 4499 1a61 0A       		.uleb128 0xa
 4500 1a62 E62F0000 		.4byte	.LASF637
 4501 1a66 12       		.byte	0x12
 4502 1a67 D701     		.2byte	0x1d7
 4503 1a69 21180000 		.4byte	0x1821
 4504 1a6d 00       		.byte	0
 4505 1a6e 0A       		.uleb128 0xa
 4506 1a6f 963E0000 		.4byte	.LASF638
 4507 1a73 12       		.byte	0x12
 4508 1a74 DC01     		.2byte	0x1dc
 4509 1a76 EC190000 		.4byte	0x19ec
 4510 1a7a 10       		.byte	0x10
 4511 1a7b 0A       		.uleb128 0xa
 4512 1a7c F5310000 		.4byte	.LASF639
 4513 1a80 12       		.byte	0x12
 4514 1a81 DF01     		.2byte	0x1df
 4515 1a83 E0190000 		.4byte	0x19e0
 4516 1a87 17       		.byte	0x17
ARM GAS  C:\Users\salaz\AppData\Local\Temp\ccnyouLe.s 			page 128


 4517 1a88 00       		.byte	0
 4518 1a89 07       		.uleb128 0x7
 4519 1a8a 6C000000 		.4byte	.LASF640
 4520 1a8e 12       		.byte	0x12
 4521 1a8f E101     		.2byte	0x1e1
 4522 1a91 581A0000 		.4byte	0x1a58
 4523 1a95 20       		.uleb128 0x20
 4524 1a96 06       		.byte	0x6
 4525 1a97 12       		.byte	0x12
 4526 1a98 E501     		.2byte	0x1e5
 4527 1a9a ED1A0000 		.4byte	0x1aed
 4528 1a9e 0A       		.uleb128 0xa
 4529 1a9f 26250000 		.4byte	.LASF641
 4530 1aa3 12       		.byte	0x12
 4531 1aa4 EE01     		.2byte	0x1ee
 4532 1aa6 40050000 		.4byte	0x540
 4533 1aaa 00       		.byte	0
 4534 1aab 0A       		.uleb128 0xa
 4535 1aac FD280000 		.4byte	.LASF642
 4536 1ab0 12       		.byte	0x12
 4537 1ab1 F401     		.2byte	0x1f4
 4538 1ab3 40050000 		.4byte	0x540
 4539 1ab7 01       		.byte	0x1
 4540 1ab8 0A       		.uleb128 0xa
 4541 1ab9 A7440000 		.4byte	.LASF643
 4542 1abd 12       		.byte	0x12
 4543 1abe FB01     		.2byte	0x1fb
 4544 1ac0 40050000 		.4byte	0x540
 4545 1ac4 02       		.byte	0x2
 4546 1ac5 0A       		.uleb128 0xa
 4547 1ac6 8E1C0000 		.4byte	.LASF644
 4548 1aca 12       		.byte	0x12
 4549 1acb FF01     		.2byte	0x1ff
 4550 1acd AE190000 		.4byte	0x19ae
 4551 1ad1 03       		.byte	0x3
 4552 1ad2 0A       		.uleb128 0xa
 4553 1ad3 8C1B0000 		.4byte	.LASF645
 4554 1ad7 12       		.byte	0x12
 4555 1ad8 0902     		.2byte	0x209
 4556 1ada 40050000 		.4byte	0x540
 4557 1ade 04       		.byte	0x4
 4558 1adf 0A       		.uleb128 0xa
 4559 1ae0 97090000 		.4byte	.LASF587
 4560 1ae4 12       		.byte	0x12
 4561 1ae5 0C02     		.2byte	0x20c
 4562 1ae7 40050000 		.4byte	0x540
 4563 1aeb 05       		.byte	0x5
 4564 1aec 00       		.byte	0
 4565 1aed 07       		.uleb128 0x7
 4566 1aee 5C1D0000 		.4byte	.LASF646
 4567 1af2 12       		.byte	0x12
 4568 1af3 0E02     		.2byte	0x20e
 4569 1af5 951A0000 		.4byte	0x1a95
 4570 1af9 20       		.uleb128 0x20
 4571 1afa 08       		.byte	0x8
 4572 1afb 12       		.byte	0x12
 4573 1afc 7C02     		.2byte	0x27c
ARM GAS  C:\Users\salaz\AppData\Local\Temp\ccnyouLe.s 			page 129


 4574 1afe 1D1B0000 		.4byte	0x1b1d
 4575 1b02 0A       		.uleb128 0xa
 4576 1b03 580F0000 		.4byte	.LASF647
 4577 1b07 12       		.byte	0x12
 4578 1b08 7F02     		.2byte	0x27f
 4579 1b0a 1D1B0000 		.4byte	0x1b1d
 4580 1b0e 00       		.byte	0
 4581 1b0f 0A       		.uleb128 0xa
 4582 1b10 98190000 		.4byte	.LASF648
 4583 1b14 12       		.byte	0x12
 4584 1b15 8202     		.2byte	0x282
 4585 1b17 40050000 		.4byte	0x540
 4586 1b1b 04       		.byte	0x4
 4587 1b1c 00       		.byte	0
 4588 1b1d 19       		.uleb128 0x19
 4589 1b1e 04       		.byte	0x4
 4590 1b1f 4C1A0000 		.4byte	0x1a4c
 4591 1b23 07       		.uleb128 0x7
 4592 1b24 0F080000 		.4byte	.LASF649
 4593 1b28 12       		.byte	0x12
 4594 1b29 8402     		.2byte	0x284
 4595 1b2b F91A0000 		.4byte	0x1af9
 4596 1b2f 15       		.uleb128 0x15
 4597 1b30 0C       		.byte	0xc
 4598 1b31 13       		.byte	0x13
 4599 1b32 6D       		.byte	0x6d
 4600 1b33 981B0000 		.4byte	0x1b98
 4601 1b37 12       		.uleb128 0x12
 4602 1b38 EC1D0000 		.4byte	.LASF650
 4603 1b3c 13       		.byte	0x13
 4604 1b3d 74       		.byte	0x74
 4605 1b3e 40050000 		.4byte	0x540
 4606 1b42 00       		.byte	0
 4607 1b43 12       		.uleb128 0x12
 4608 1b44 E30C0000 		.4byte	.LASF651
 4609 1b48 13       		.byte	0x13
 4610 1b49 7A       		.byte	0x7a
 4611 1b4a 40050000 		.4byte	0x540
 4612 1b4e 01       		.byte	0x1
 4613 1b4f 12       		.uleb128 0x12
 4614 1b50 57270000 		.4byte	.LASF652
 4615 1b54 13       		.byte	0x13
 4616 1b55 81       		.byte	0x81
 4617 1b56 56050000 		.4byte	0x556
 4618 1b5a 02       		.byte	0x2
 4619 1b5b 12       		.uleb128 0x12
 4620 1b5c 3C330000 		.4byte	.LASF653
 4621 1b60 13       		.byte	0x13
 4622 1b61 88       		.byte	0x88
 4623 1b62 56050000 		.4byte	0x556
 4624 1b66 04       		.byte	0x4
 4625 1b67 12       		.uleb128 0x12
 4626 1b68 2F4A0000 		.4byte	.LASF654
 4627 1b6c 13       		.byte	0x13
 4628 1b6d 90       		.byte	0x90
 4629 1b6e 40050000 		.4byte	0x540
 4630 1b72 06       		.byte	0x6
ARM GAS  C:\Users\salaz\AppData\Local\Temp\ccnyouLe.s 			page 130


 4631 1b73 12       		.uleb128 0x12
 4632 1b74 5E040000 		.4byte	.LASF655
 4633 1b78 13       		.byte	0x13
 4634 1b79 98       		.byte	0x98
 4635 1b7a 40050000 		.4byte	0x540
 4636 1b7e 07       		.byte	0x7
 4637 1b7f 12       		.uleb128 0x12
 4638 1b80 47390000 		.4byte	.LASF656
 4639 1b84 13       		.byte	0x13
 4640 1b85 9C       		.byte	0x9c
 4641 1b86 56050000 		.4byte	0x556
 4642 1b8a 08       		.byte	0x8
 4643 1b8b 12       		.uleb128 0x12
 4644 1b8c 71280000 		.4byte	.LASF657
 4645 1b90 13       		.byte	0x13
 4646 1b91 A6       		.byte	0xa6
 4647 1b92 40050000 		.4byte	0x540
 4648 1b96 0A       		.byte	0xa
 4649 1b97 00       		.byte	0
 4650 1b98 06       		.uleb128 0x6
 4651 1b99 263E0000 		.4byte	.LASF658
 4652 1b9d 13       		.byte	0x13
 4653 1b9e A8       		.byte	0xa8
 4654 1b9f 2F1B0000 		.4byte	0x1b2f
 4655 1ba3 03       		.uleb128 0x3
 4656 1ba4 01       		.byte	0x1
 4657 1ba5 2C000000 		.4byte	0x2c
 4658 1ba9 14       		.byte	0x14
 4659 1baa 39       		.byte	0x39
 4660 1bab CE1B0000 		.4byte	0x1bce
 4661 1baf 05       		.uleb128 0x5
 4662 1bb0 A42A0000 		.4byte	.LASF659
 4663 1bb4 00       		.byte	0
 4664 1bb5 05       		.uleb128 0x5
 4665 1bb6 1F360000 		.4byte	.LASF660
 4666 1bba 01       		.byte	0x1
 4667 1bbb 05       		.uleb128 0x5
 4668 1bbc FA160000 		.4byte	.LASF661
 4669 1bc0 02       		.byte	0x2
 4670 1bc1 05       		.uleb128 0x5
 4671 1bc2 EB060000 		.4byte	.LASF662
 4672 1bc6 03       		.byte	0x3
 4673 1bc7 05       		.uleb128 0x5
 4674 1bc8 9A160000 		.4byte	.LASF663
 4675 1bcc 04       		.byte	0x4
 4676 1bcd 00       		.byte	0
 4677 1bce 06       		.uleb128 0x6
 4678 1bcf 61390000 		.4byte	.LASF664
 4679 1bd3 14       		.byte	0x14
 4680 1bd4 49       		.byte	0x49
 4681 1bd5 A31B0000 		.4byte	0x1ba3
 4682 1bd9 15       		.uleb128 0x15
 4683 1bda 10       		.byte	0x10
 4684 1bdb 14       		.byte	0x14
 4685 1bdc 51       		.byte	0x51
 4686 1bdd 421C0000 		.4byte	0x1c42
 4687 1be1 12       		.uleb128 0x12
ARM GAS  C:\Users\salaz\AppData\Local\Temp\ccnyouLe.s 			page 131


 4688 1be2 73120000 		.4byte	.LASF665
 4689 1be6 14       		.byte	0x14
 4690 1be7 59       		.byte	0x59
 4691 1be8 56050000 		.4byte	0x556
 4692 1bec 00       		.byte	0
 4693 1bed 12       		.uleb128 0x12
 4694 1bee CA4A0000 		.4byte	.LASF666
 4695 1bf2 14       		.byte	0x14
 4696 1bf3 61       		.byte	0x61
 4697 1bf4 56050000 		.4byte	0x556
 4698 1bf8 02       		.byte	0x2
 4699 1bf9 12       		.uleb128 0x12
 4700 1bfa A81E0000 		.4byte	.LASF667
 4701 1bfe 14       		.byte	0x14
 4702 1bff 6A       		.byte	0x6a
 4703 1c00 CE1B0000 		.4byte	0x1bce
 4704 1c04 04       		.byte	0x4
 4705 1c05 12       		.uleb128 0x12
 4706 1c06 2F4A0000 		.4byte	.LASF654
 4707 1c0a 14       		.byte	0x14
 4708 1c0b 72       		.byte	0x72
 4709 1c0c 40050000 		.4byte	0x540
 4710 1c10 05       		.byte	0x5
 4711 1c11 12       		.uleb128 0x12
 4712 1c12 C5260000 		.4byte	.LASF668
 4713 1c16 14       		.byte	0x14
 4714 1c17 79       		.byte	0x79
 4715 1c18 40050000 		.4byte	0x540
 4716 1c1c 06       		.byte	0x6
 4717 1c1d 12       		.uleb128 0x12
 4718 1c1e 61000000 		.4byte	.LASF669
 4719 1c22 14       		.byte	0x14
 4720 1c23 7F       		.byte	0x7f
 4721 1c24 92170000 		.4byte	0x1792
 4722 1c28 07       		.byte	0x7
 4723 1c29 12       		.uleb128 0x12
 4724 1c2a C8460000 		.4byte	.LASF670
 4725 1c2e 14       		.byte	0x14
 4726 1c2f 87       		.byte	0x87
 4727 1c30 40050000 		.4byte	0x540
 4728 1c34 0D       		.byte	0xd
 4729 1c35 12       		.uleb128 0x12
 4730 1c36 1E1E0000 		.4byte	.LASF671
 4731 1c3a 14       		.byte	0x14
 4732 1c3b 93       		.byte	0x93
 4733 1c3c 40050000 		.4byte	0x540
 4734 1c40 0E       		.byte	0xe
 4735 1c41 00       		.byte	0
 4736 1c42 06       		.uleb128 0x6
 4737 1c43 300A0000 		.4byte	.LASF672
 4738 1c47 14       		.byte	0x14
 4739 1c48 95       		.byte	0x95
 4740 1c49 D91B0000 		.4byte	0x1bd9
 4741 1c4d 15       		.uleb128 0x15
 4742 1c4e 20       		.byte	0x20
 4743 1c4f 14       		.byte	0x14
 4744 1c50 98       		.byte	0x98
ARM GAS  C:\Users\salaz\AppData\Local\Temp\ccnyouLe.s 			page 132


 4745 1c51 6E1C0000 		.4byte	0x1c6e
 4746 1c55 12       		.uleb128 0x12
 4747 1c56 D52C0000 		.4byte	.LASF673
 4748 1c5a 14       		.byte	0x14
 4749 1c5b 9B       		.byte	0x9b
 4750 1c5c 6E1C0000 		.4byte	0x1c6e
 4751 1c60 00       		.byte	0
 4752 1c61 12       		.uleb128 0x12
 4753 1c62 052F0000 		.4byte	.LASF674
 4754 1c66 14       		.byte	0x14
 4755 1c67 9E       		.byte	0x9e
 4756 1c68 40050000 		.4byte	0x540
 4757 1c6c 1F       		.byte	0x1f
 4758 1c6d 00       		.byte	0
 4759 1c6e 0D       		.uleb128 0xd
 4760 1c6f 40050000 		.4byte	0x540
 4761 1c73 7E1C0000 		.4byte	0x1c7e
 4762 1c77 0E       		.uleb128 0xe
 4763 1c78 24060000 		.4byte	0x624
 4764 1c7c 1E       		.byte	0x1e
 4765 1c7d 00       		.byte	0
 4766 1c7e 06       		.uleb128 0x6
 4767 1c7f 4D1F0000 		.4byte	.LASF675
 4768 1c83 14       		.byte	0x14
 4769 1c84 A0       		.byte	0xa0
 4770 1c85 4D1C0000 		.4byte	0x1c4d
 4771 1c89 15       		.uleb128 0x15
 4772 1c8a 20       		.byte	0x20
 4773 1c8b 14       		.byte	0x14
 4774 1c8c A3       		.byte	0xa3
 4775 1c8d AA1C0000 		.4byte	0x1caa
 4776 1c91 12       		.uleb128 0x12
 4777 1c92 8A000000 		.4byte	.LASF676
 4778 1c96 14       		.byte	0x14
 4779 1c97 A7       		.byte	0xa7
 4780 1c98 6E1C0000 		.4byte	0x1c6e
 4781 1c9c 00       		.byte	0
 4782 1c9d 12       		.uleb128 0x12
 4783 1c9e 173E0000 		.4byte	.LASF677
 4784 1ca2 14       		.byte	0x14
 4785 1ca3 AA       		.byte	0xaa
 4786 1ca4 40050000 		.4byte	0x540
 4787 1ca8 1F       		.byte	0x1f
 4788 1ca9 00       		.byte	0
 4789 1caa 06       		.uleb128 0x6
 4790 1cab E7040000 		.4byte	.LASF678
 4791 1caf 14       		.byte	0x14
 4792 1cb0 AC       		.byte	0xac
 4793 1cb1 891C0000 		.4byte	0x1c89
 4794 1cb5 15       		.uleb128 0x15
 4795 1cb6 14       		.byte	0x14
 4796 1cb7 14       		.byte	0x14
 4797 1cb8 AF       		.byte	0xaf
 4798 1cb9 FA1C0000 		.4byte	0x1cfa
 4799 1cbd 12       		.uleb128 0x12
 4800 1cbe DE040000 		.4byte	.LASF679
 4801 1cc2 14       		.byte	0x14
ARM GAS  C:\Users\salaz\AppData\Local\Temp\ccnyouLe.s 			page 133


 4802 1cc3 B7       		.byte	0xb7
 4803 1cc4 40050000 		.4byte	0x540
 4804 1cc8 00       		.byte	0
 4805 1cc9 12       		.uleb128 0x12
 4806 1cca 8E180000 		.4byte	.LASF680
 4807 1cce 14       		.byte	0x14
 4808 1ccf BC       		.byte	0xbc
 4809 1cd0 FA1C0000 		.4byte	0x1cfa
 4810 1cd4 04       		.byte	0x4
 4811 1cd5 12       		.uleb128 0x12
 4812 1cd6 D52C0000 		.4byte	.LASF673
 4813 1cda 14       		.byte	0x14
 4814 1cdb BE       		.byte	0xbe
 4815 1cdc 001D0000 		.4byte	0x1d00
 4816 1ce0 08       		.byte	0x8
 4817 1ce1 12       		.uleb128 0x12
 4818 1ce2 8A000000 		.4byte	.LASF676
 4819 1ce6 14       		.byte	0x14
 4820 1ce7 C0       		.byte	0xc0
 4821 1ce8 061D0000 		.4byte	0x1d06
 4822 1cec 0C       		.byte	0xc
 4823 1ced 12       		.uleb128 0x12
 4824 1cee AA2F0000 		.4byte	.LASF681
 4825 1cf2 14       		.byte	0x14
 4826 1cf3 CA       		.byte	0xca
 4827 1cf4 56050000 		.4byte	0x556
 4828 1cf8 10       		.byte	0x10
 4829 1cf9 00       		.byte	0
 4830 1cfa 19       		.uleb128 0x19
 4831 1cfb 04       		.byte	0x4
 4832 1cfc 421C0000 		.4byte	0x1c42
 4833 1d00 19       		.uleb128 0x19
 4834 1d01 04       		.byte	0x4
 4835 1d02 7E1C0000 		.4byte	0x1c7e
 4836 1d06 19       		.uleb128 0x19
 4837 1d07 04       		.byte	0x4
 4838 1d08 AA1C0000 		.4byte	0x1caa
 4839 1d0c 06       		.uleb128 0x6
 4840 1d0d EE210000 		.4byte	.LASF682
 4841 1d11 14       		.byte	0x14
 4842 1d12 CC       		.byte	0xcc
 4843 1d13 B51C0000 		.4byte	0x1cb5
 4844 1d17 03       		.uleb128 0x3
 4845 1d18 01       		.byte	0x1
 4846 1d19 2C000000 		.4byte	0x2c
 4847 1d1d 02       		.byte	0x2
 4848 1d1e 7E       		.byte	0x7e
 4849 1d1f 3C1D0000 		.4byte	0x1d3c
 4850 1d23 05       		.uleb128 0x5
 4851 1d24 DC2B0000 		.4byte	.LASF683
 4852 1d28 00       		.byte	0
 4853 1d29 05       		.uleb128 0x5
 4854 1d2a 850E0000 		.4byte	.LASF684
 4855 1d2e 01       		.byte	0x1
 4856 1d2f 05       		.uleb128 0x5
 4857 1d30 3E440000 		.4byte	.LASF685
 4858 1d34 02       		.byte	0x2
ARM GAS  C:\Users\salaz\AppData\Local\Temp\ccnyouLe.s 			page 134


 4859 1d35 05       		.uleb128 0x5
 4860 1d36 F2360000 		.4byte	.LASF686
 4861 1d3a 03       		.byte	0x3
 4862 1d3b 00       		.byte	0
 4863 1d3c 06       		.uleb128 0x6
 4864 1d3d 0D2C0000 		.4byte	.LASF687
 4865 1d41 02       		.byte	0x2
 4866 1d42 83       		.byte	0x83
 4867 1d43 171D0000 		.4byte	0x1d17
 4868 1d47 03       		.uleb128 0x3
 4869 1d48 01       		.byte	0x1
 4870 1d49 2C000000 		.4byte	0x2c
 4871 1d4d 02       		.byte	0x2
 4872 1d4e 87       		.byte	0x87
 4873 1d4f 841D0000 		.4byte	0x1d84
 4874 1d53 05       		.uleb128 0x5
 4875 1d54 343D0000 		.4byte	.LASF688
 4876 1d58 00       		.byte	0
 4877 1d59 05       		.uleb128 0x5
 4878 1d5a 7F290000 		.4byte	.LASF689
 4879 1d5e 01       		.byte	0x1
 4880 1d5f 05       		.uleb128 0x5
 4881 1d60 D43B0000 		.4byte	.LASF690
 4882 1d64 02       		.byte	0x2
 4883 1d65 05       		.uleb128 0x5
 4884 1d66 B9220000 		.4byte	.LASF691
 4885 1d6a 03       		.byte	0x3
 4886 1d6b 05       		.uleb128 0x5
 4887 1d6c 522B0000 		.4byte	.LASF692
 4888 1d70 04       		.byte	0x4
 4889 1d71 05       		.uleb128 0x5
 4890 1d72 33120000 		.4byte	.LASF693
 4891 1d76 05       		.byte	0x5
 4892 1d77 05       		.uleb128 0x5
 4893 1d78 78030000 		.4byte	.LASF694
 4894 1d7c 06       		.byte	0x6
 4895 1d7d 05       		.uleb128 0x5
 4896 1d7e F63C0000 		.4byte	.LASF695
 4897 1d82 07       		.byte	0x7
 4898 1d83 00       		.byte	0
 4899 1d84 06       		.uleb128 0x6
 4900 1d85 6D360000 		.4byte	.LASF696
 4901 1d89 02       		.byte	0x2
 4902 1d8a 90       		.byte	0x90
 4903 1d8b 471D0000 		.4byte	0x1d47
 4904 1d8f 15       		.uleb128 0x15
 4905 1d90 0C       		.byte	0xc
 4906 1d91 02       		.byte	0x2
 4907 1d92 93       		.byte	0x93
 4908 1d93 E01D0000 		.4byte	0x1de0
 4909 1d97 12       		.uleb128 0x12
 4910 1d98 A0090000 		.4byte	.LASF697
 4911 1d9c 02       		.byte	0x2
 4912 1d9d 96       		.byte	0x96
 4913 1d9e 31180000 		.4byte	0x1831
 4914 1da2 00       		.byte	0
 4915 1da3 12       		.uleb128 0x12
ARM GAS  C:\Users\salaz\AppData\Local\Temp\ccnyouLe.s 			page 135


 4916 1da4 95260000 		.4byte	.LASF698
 4917 1da8 02       		.byte	0x2
 4918 1da9 99       		.byte	0x99
 4919 1daa 31180000 		.4byte	0x1831
 4920 1dae 02       		.byte	0x2
 4921 1daf 12       		.uleb128 0x12
 4922 1db0 FC2F0000 		.4byte	.LASF699
 4923 1db4 02       		.byte	0x2
 4924 1db5 9C       		.byte	0x9c
 4925 1db6 31180000 		.4byte	0x1831
 4926 1dba 04       		.byte	0x4
 4927 1dbb 12       		.uleb128 0x12
 4928 1dbc 9A2D0000 		.4byte	.LASF700
 4929 1dc0 02       		.byte	0x2
 4930 1dc1 9F       		.byte	0x9f
 4931 1dc2 31180000 		.4byte	0x1831
 4932 1dc6 06       		.byte	0x6
 4933 1dc7 12       		.uleb128 0x12
 4934 1dc8 59400000 		.4byte	.LASF701
 4935 1dcc 02       		.byte	0x2
 4936 1dcd A2       		.byte	0xa2
 4937 1dce 31180000 		.4byte	0x1831
 4938 1dd2 08       		.byte	0x8
 4939 1dd3 12       		.uleb128 0x12
 4940 1dd4 96200000 		.4byte	.LASF702
 4941 1dd8 02       		.byte	0x2
 4942 1dd9 A5       		.byte	0xa5
 4943 1dda 31180000 		.4byte	0x1831
 4944 1dde 0A       		.byte	0xa
 4945 1ddf 00       		.byte	0
 4946 1de0 06       		.uleb128 0x6
 4947 1de1 490E0000 		.4byte	.LASF703
 4948 1de5 02       		.byte	0x2
 4949 1de6 A6       		.byte	0xa6
 4950 1de7 8F1D0000 		.4byte	0x1d8f
 4951 1deb 20       		.uleb128 0x20
 4952 1dec 0E       		.byte	0xe
 4953 1ded 02       		.byte	0x2
 4954 1dee 2B01     		.2byte	0x12b
 4955 1df0 501E0000 		.4byte	0x1e50
 4956 1df4 0A       		.uleb128 0xa
 4957 1df5 0E410000 		.4byte	.LASF704
 4958 1df9 02       		.byte	0x2
 4959 1dfa 2E01     		.2byte	0x12e
 4960 1dfc 56050000 		.4byte	0x556
 4961 1e00 00       		.byte	0
 4962 1e01 0A       		.uleb128 0xa
 4963 1e02 FC2C0000 		.4byte	.LASF705
 4964 1e06 02       		.byte	0x2
 4965 1e07 3101     		.2byte	0x131
 4966 1e09 56050000 		.4byte	0x556
 4967 1e0d 02       		.byte	0x2
 4968 1e0e 0A       		.uleb128 0xa
 4969 1e0f F5050000 		.4byte	.LASF706
 4970 1e13 02       		.byte	0x2
 4971 1e14 3401     		.2byte	0x134
 4972 1e16 56050000 		.4byte	0x556
ARM GAS  C:\Users\salaz\AppData\Local\Temp\ccnyouLe.s 			page 136


 4973 1e1a 04       		.byte	0x4
 4974 1e1b 0A       		.uleb128 0xa
 4975 1e1c 8F470000 		.4byte	.LASF707
 4976 1e20 02       		.byte	0x2
 4977 1e21 3701     		.2byte	0x137
 4978 1e23 40050000 		.4byte	0x540
 4979 1e27 06       		.byte	0x6
 4980 1e28 0A       		.uleb128 0xa
 4981 1e29 E91E0000 		.4byte	.LASF708
 4982 1e2d 02       		.byte	0x2
 4983 1e2e 3A01     		.2byte	0x13a
 4984 1e30 56050000 		.4byte	0x556
 4985 1e34 08       		.byte	0x8
 4986 1e35 0A       		.uleb128 0xa
 4987 1e36 BC0B0000 		.4byte	.LASF709
 4988 1e3a 02       		.byte	0x2
 4989 1e3b 3D01     		.2byte	0x13d
 4990 1e3d 56050000 		.4byte	0x556
 4991 1e41 0A       		.byte	0xa
 4992 1e42 0A       		.uleb128 0xa
 4993 1e43 AF420000 		.4byte	.LASF710
 4994 1e47 02       		.byte	0x2
 4995 1e48 4001     		.2byte	0x140
 4996 1e4a 56050000 		.4byte	0x556
 4997 1e4e 0C       		.byte	0xc
 4998 1e4f 00       		.byte	0
 4999 1e50 07       		.uleb128 0x7
 5000 1e51 F7290000 		.4byte	.LASF711
 5001 1e55 02       		.byte	0x2
 5002 1e56 4101     		.2byte	0x141
 5003 1e58 EB1D0000 		.4byte	0x1deb
 5004 1e5c 20       		.uleb128 0x20
 5005 1e5d 16       		.byte	0x16
 5006 1e5e 02       		.byte	0x2
 5007 1e5f 4401     		.2byte	0x144
 5008 1e61 F51E0000 		.4byte	0x1ef5
 5009 1e65 0A       		.uleb128 0xa
 5010 1e66 8B410000 		.4byte	.LASF712
 5011 1e6a 02       		.byte	0x2
 5012 1e6b 4701     		.2byte	0x147
 5013 1e6d 56050000 		.4byte	0x556
 5014 1e71 00       		.byte	0
 5015 1e72 0A       		.uleb128 0xa
 5016 1e73 E6050000 		.4byte	.LASF713
 5017 1e77 02       		.byte	0x2
 5018 1e78 4A01     		.2byte	0x14a
 5019 1e7a 56050000 		.4byte	0x556
 5020 1e7e 02       		.byte	0x2
 5021 1e7f 0A       		.uleb128 0xa
 5022 1e80 55190000 		.4byte	.LASF714
 5023 1e84 02       		.byte	0x2
 5024 1e85 4D01     		.2byte	0x14d
 5025 1e87 56050000 		.4byte	0x556
 5026 1e8b 04       		.byte	0x4
 5027 1e8c 0A       		.uleb128 0xa
 5028 1e8d 21100000 		.4byte	.LASF715
 5029 1e91 02       		.byte	0x2
ARM GAS  C:\Users\salaz\AppData\Local\Temp\ccnyouLe.s 			page 137


 5030 1e92 5001     		.2byte	0x150
 5031 1e94 40050000 		.4byte	0x540
 5032 1e98 06       		.byte	0x6
 5033 1e99 0A       		.uleb128 0xa
 5034 1e9a D03C0000 		.4byte	.LASF716
 5035 1e9e 02       		.byte	0x2
 5036 1e9f 5301     		.2byte	0x153
 5037 1ea1 56050000 		.4byte	0x556
 5038 1ea5 08       		.byte	0x8
 5039 1ea6 0A       		.uleb128 0xa
 5040 1ea7 A0420000 		.4byte	.LASF717
 5041 1eab 02       		.byte	0x2
 5042 1eac 5601     		.2byte	0x156
 5043 1eae 56050000 		.4byte	0x556
 5044 1eb2 0A       		.byte	0xa
 5045 1eb3 0A       		.uleb128 0xa
 5046 1eb4 EC100000 		.4byte	.LASF718
 5047 1eb8 02       		.byte	0x2
 5048 1eb9 5901     		.2byte	0x159
 5049 1ebb 56050000 		.4byte	0x556
 5050 1ebf 0C       		.byte	0xc
 5051 1ec0 0A       		.uleb128 0xa
 5052 1ec1 9C450000 		.4byte	.LASF719
 5053 1ec5 02       		.byte	0x2
 5054 1ec6 5C01     		.2byte	0x15c
 5055 1ec8 56050000 		.4byte	0x556
 5056 1ecc 0E       		.byte	0xe
 5057 1ecd 0A       		.uleb128 0xa
 5058 1ece 70320000 		.4byte	.LASF720
 5059 1ed2 02       		.byte	0x2
 5060 1ed3 5F01     		.2byte	0x15f
 5061 1ed5 56050000 		.4byte	0x556
 5062 1ed9 10       		.byte	0x10
 5063 1eda 0A       		.uleb128 0xa
 5064 1edb 81450000 		.4byte	.LASF721
 5065 1edf 02       		.byte	0x2
 5066 1ee0 6301     		.2byte	0x163
 5067 1ee2 56050000 		.4byte	0x556
 5068 1ee6 12       		.byte	0x12
 5069 1ee7 0A       		.uleb128 0xa
 5070 1ee8 A31F0000 		.4byte	.LASF722
 5071 1eec 02       		.byte	0x2
 5072 1eed 6601     		.2byte	0x166
 5073 1eef 56050000 		.4byte	0x556
 5074 1ef3 14       		.byte	0x14
 5075 1ef4 00       		.byte	0
 5076 1ef5 07       		.uleb128 0x7
 5077 1ef6 663F0000 		.4byte	.LASF723
 5078 1efa 02       		.byte	0x2
 5079 1efb 6701     		.2byte	0x167
 5080 1efd 5C1E0000 		.4byte	0x1e5c
 5081 1f01 06       		.uleb128 0x6
 5082 1f02 2F370000 		.4byte	.LASF724
 5083 1f06 15       		.byte	0x15
 5084 1f07 2E       		.byte	0x2e
 5085 1f08 CE180000 		.4byte	0x18ce
 5086 1f0c 06       		.uleb128 0x6
ARM GAS  C:\Users\salaz\AppData\Local\Temp\ccnyouLe.s 			page 138


 5087 1f0d BC2D0000 		.4byte	.LASF725
 5088 1f11 15       		.byte	0x15
 5089 1f12 74       		.byte	0x74
 5090 1f13 CE180000 		.4byte	0x18ce
 5091 1f17 15       		.uleb128 0x15
 5092 1f18 08       		.byte	0x8
 5093 1f19 16       		.byte	0x16
 5094 1f1a D6       		.byte	0xd6
 5095 1f1b 381F0000 		.4byte	0x1f38
 5096 1f1f 12       		.uleb128 0x12
 5097 1f20 51380000 		.4byte	.LASF726
 5098 1f24 16       		.byte	0x16
 5099 1f25 D9       		.byte	0xd9
 5100 1f26 56050000 		.4byte	0x556
 5101 1f2a 00       		.byte	0
 5102 1f2b 12       		.uleb128 0x12
 5103 1f2c 483C0000 		.4byte	.LASF727
 5104 1f30 16       		.byte	0x16
 5105 1f31 DE       		.byte	0xde
 5106 1f32 300C0000 		.4byte	0xc30
 5107 1f36 04       		.byte	0x4
 5108 1f37 00       		.byte	0
 5109 1f38 06       		.uleb128 0x6
 5110 1f39 24060000 		.4byte	.LASF728
 5111 1f3d 16       		.byte	0x16
 5112 1f3e E0       		.byte	0xe0
 5113 1f3f 171F0000 		.4byte	0x1f17
 5114 1f43 15       		.uleb128 0x15
 5115 1f44 08       		.byte	0x8
 5116 1f45 16       		.byte	0x16
 5117 1f46 E3       		.byte	0xe3
 5118 1f47 641F0000 		.4byte	0x1f64
 5119 1f4b 12       		.uleb128 0x12
 5120 1f4c FF420000 		.4byte	.LASF729
 5121 1f50 16       		.byte	0x16
 5122 1f51 E6       		.byte	0xe6
 5123 1f52 56050000 		.4byte	0x556
 5124 1f56 00       		.byte	0
 5125 1f57 12       		.uleb128 0x12
 5126 1f58 AF3D0000 		.4byte	.LASF730
 5127 1f5c 16       		.byte	0x16
 5128 1f5d EB       		.byte	0xeb
 5129 1f5e 641F0000 		.4byte	0x1f64
 5130 1f62 04       		.byte	0x4
 5131 1f63 00       		.byte	0
 5132 1f64 19       		.uleb128 0x19
 5133 1f65 04       		.byte	0x4
 5134 1f66 381F0000 		.4byte	0x1f38
 5135 1f6a 06       		.uleb128 0x6
 5136 1f6b 49200000 		.4byte	.LASF731
 5137 1f6f 16       		.byte	0x16
 5138 1f70 ED       		.byte	0xed
 5139 1f71 431F0000 		.4byte	0x1f43
 5140 1f75 22       		.uleb128 0x22
 5141 1f76 08       		.byte	0x8
 5142 1f77 16       		.byte	0x16
 5143 1f78 F0       		.byte	0xf0
ARM GAS  C:\Users\salaz\AppData\Local\Temp\ccnyouLe.s 			page 139


 5144 1f79 941F0000 		.4byte	0x1f94
 5145 1f7d 23       		.uleb128 0x23
 5146 1f7e C03D0000 		.4byte	.LASF732
 5147 1f82 16       		.byte	0x16
 5148 1f83 F6       		.byte	0xf6
 5149 1f84 6A1F0000 		.4byte	0x1f6a
 5150 1f88 23       		.uleb128 0x23
 5151 1f89 20210000 		.4byte	.LASF733
 5152 1f8d 16       		.byte	0x16
 5153 1f8e F9       		.byte	0xf9
 5154 1f8f 56050000 		.4byte	0x556
 5155 1f93 00       		.byte	0
 5156 1f94 06       		.uleb128 0x6
 5157 1f95 042B0000 		.4byte	.LASF734
 5158 1f99 16       		.byte	0x16
 5159 1f9a FB       		.byte	0xfb
 5160 1f9b 751F0000 		.4byte	0x1f75
 5161 1f9f 15       		.uleb128 0x15
 5162 1fa0 14       		.byte	0x14
 5163 1fa1 16       		.byte	0x16
 5164 1fa2 FE       		.byte	0xfe
 5165 1fa3 E91F0000 		.4byte	0x1fe9
 5166 1fa7 0A       		.uleb128 0xa
 5167 1fa8 7E120000 		.4byte	.LASF735
 5168 1fac 16       		.byte	0x16
 5169 1fad 0101     		.2byte	0x101
 5170 1faf 56050000 		.4byte	0x556
 5171 1fb3 00       		.byte	0
 5172 1fb4 0A       		.uleb128 0xa
 5173 1fb5 A40E0000 		.4byte	.LASF736
 5174 1fb9 16       		.byte	0x16
 5175 1fba 0701     		.2byte	0x107
 5176 1fbc 56050000 		.4byte	0x556
 5177 1fc0 02       		.byte	0x2
 5178 1fc1 0A       		.uleb128 0xa
 5179 1fc2 A1060000 		.4byte	.LASF737
 5180 1fc6 16       		.byte	0x16
 5181 1fc7 1501     		.2byte	0x115
 5182 1fc9 6C050000 		.4byte	0x56c
 5183 1fcd 04       		.byte	0x4
 5184 1fce 0A       		.uleb128 0xa
 5185 1fcf CF290000 		.4byte	.LASF738
 5186 1fd3 16       		.byte	0x16
 5187 1fd4 1801     		.2byte	0x118
 5188 1fd6 56050000 		.4byte	0x556
 5189 1fda 08       		.byte	0x8
 5190 1fdb 0A       		.uleb128 0xa
 5191 1fdc CA350000 		.4byte	.LASF739
 5192 1fe0 16       		.byte	0x16
 5193 1fe1 2101     		.2byte	0x121
 5194 1fe3 941F0000 		.4byte	0x1f94
 5195 1fe7 0C       		.byte	0xc
 5196 1fe8 00       		.byte	0
 5197 1fe9 07       		.uleb128 0x7
 5198 1fea EE110000 		.4byte	.LASF740
 5199 1fee 16       		.byte	0x16
 5200 1fef 2301     		.2byte	0x123
ARM GAS  C:\Users\salaz\AppData\Local\Temp\ccnyouLe.s 			page 140


 5201 1ff1 9F1F0000 		.4byte	0x1f9f
 5202 1ff5 19       		.uleb128 0x19
 5203 1ff6 04       		.byte	0x4
 5204 1ff7 FB1F0000 		.4byte	0x1ffb
 5205 1ffb 10       		.uleb128 0x10
 5206 1ffc E91F0000 		.4byte	0x1fe9
 5207 2000 15       		.uleb128 0x15
 5208 2001 06       		.byte	0x6
 5209 2002 17       		.byte	0x17
 5210 2003 87       		.byte	0x87
 5211 2004 2D200000 		.4byte	0x202d
 5212 2008 12       		.uleb128 0x12
 5213 2009 A0090000 		.4byte	.LASF697
 5214 200d 17       		.byte	0x17
 5215 200e 89       		.byte	0x89
 5216 200f 31180000 		.4byte	0x1831
 5217 2013 00       		.byte	0
 5218 2014 12       		.uleb128 0x12
 5219 2015 53370000 		.4byte	.LASF741
 5220 2019 17       		.byte	0x17
 5221 201a 8A       		.byte	0x8a
 5222 201b 31180000 		.4byte	0x1831
 5223 201f 02       		.byte	0x2
 5224 2020 12       		.uleb128 0x12
 5225 2021 D6460000 		.4byte	.LASF742
 5226 2025 17       		.byte	0x17
 5227 2026 8B       		.byte	0x8b
 5228 2027 31180000 		.4byte	0x1831
 5229 202b 04       		.byte	0x4
 5230 202c 00       		.byte	0
 5231 202d 06       		.uleb128 0x6
 5232 202e F8190000 		.4byte	.LASF743
 5233 2032 17       		.byte	0x17
 5234 2033 8C       		.byte	0x8c
 5235 2034 00200000 		.4byte	0x2000
 5236 2038 06       		.uleb128 0x6
 5237 2039 1A3D0000 		.4byte	.LASF744
 5238 203d 18       		.byte	0x18
 5239 203e 40       		.byte	0x40
 5240 203f 43200000 		.4byte	0x2043
 5241 2043 19       		.uleb128 0x19
 5242 2044 04       		.byte	0x4
 5243 2045 49200000 		.4byte	0x2049
 5244 2049 1A       		.uleb128 0x1a
 5245 204a 59200000 		.4byte	0x2059
 5246 204e 1B       		.uleb128 0x1b
 5247 204f 6C050000 		.4byte	0x56c
 5248 2053 1B       		.uleb128 0x1b
 5249 2054 300C0000 		.4byte	0xc30
 5250 2058 00       		.byte	0
 5251 2059 09       		.uleb128 0x9
 5252 205a B911     		.2byte	0x11b9
 5253 205c 18       		.byte	0x18
 5254 205d D901     		.2byte	0x1d9
 5255 205f 9B200000 		.4byte	0x209b
 5256 2063 0A       		.uleb128 0xa
 5257 2064 1D1D0000 		.4byte	.LASF745
ARM GAS  C:\Users\salaz\AppData\Local\Temp\ccnyouLe.s 			page 141


 5258 2068 18       		.byte	0x18
 5259 2069 DC01     		.2byte	0x1dc
 5260 206b 9B200000 		.4byte	0x209b
 5261 206f 00       		.byte	0
 5262 2070 0B       		.uleb128 0xb
 5263 2071 9E1B0000 		.4byte	.LASF746
 5264 2075 18       		.byte	0x18
 5265 2076 DF01     		.2byte	0x1df
 5266 2078 AC200000 		.4byte	0x20ac
 5267 207c 9610     		.2byte	0x1096
 5268 207e 0B       		.uleb128 0xb
 5269 207f C73F0000 		.4byte	.LASF747
 5270 2083 18       		.byte	0x18
 5271 2084 E201     		.2byte	0x1e2
 5272 2086 40050000 		.4byte	0x540
 5273 208a B711     		.2byte	0x11b7
 5274 208c 0B       		.uleb128 0xb
 5275 208d 431A0000 		.4byte	.LASF748
 5276 2091 18       		.byte	0x18
 5277 2092 E501     		.2byte	0x1e5
 5278 2094 40050000 		.4byte	0x540
 5279 2098 B811     		.2byte	0x11b8
 5280 209a 00       		.byte	0
 5281 209b 0D       		.uleb128 0xd
 5282 209c 40050000 		.4byte	0x540
 5283 20a0 AC200000 		.4byte	0x20ac
 5284 20a4 14       		.uleb128 0x14
 5285 20a5 24060000 		.4byte	0x624
 5286 20a9 9510     		.2byte	0x1095
 5287 20ab 00       		.byte	0
 5288 20ac 0D       		.uleb128 0xd
 5289 20ad 40050000 		.4byte	0x540
 5290 20b1 C2200000 		.4byte	0x20c2
 5291 20b5 0E       		.uleb128 0xe
 5292 20b6 24060000 		.4byte	0x624
 5293 20ba 10       		.byte	0x10
 5294 20bb 0E       		.uleb128 0xe
 5295 20bc 24060000 		.4byte	0x624
 5296 20c0 10       		.byte	0x10
 5297 20c1 00       		.byte	0
 5298 20c2 07       		.uleb128 0x7
 5299 20c3 A10C0000 		.4byte	.LASF749
 5300 20c7 18       		.byte	0x18
 5301 20c8 E601     		.2byte	0x1e6
 5302 20ca 59200000 		.4byte	0x2059
 5303 20ce 20       		.uleb128 0x20
 5304 20cf 08       		.byte	0x8
 5305 20d0 18       		.byte	0x18
 5306 20d1 E901     		.2byte	0x1e9
 5307 20d3 26210000 		.4byte	0x2126
 5308 20d7 0A       		.uleb128 0xa
 5309 20d8 9F270000 		.4byte	.LASF750
 5310 20dc 18       		.byte	0x18
 5311 20dd EC01     		.2byte	0x1ec
 5312 20df E5170000 		.4byte	0x17e5
 5313 20e3 00       		.byte	0
 5314 20e4 0A       		.uleb128 0xa
ARM GAS  C:\Users\salaz\AppData\Local\Temp\ccnyouLe.s 			page 142


 5315 20e5 9F000000 		.4byte	.LASF751
 5316 20e9 18       		.byte	0x18
 5317 20ea EF01     		.2byte	0x1ef
 5318 20ec E5170000 		.4byte	0x17e5
 5319 20f0 01       		.byte	0x1
 5320 20f1 0A       		.uleb128 0xa
 5321 20f2 69330000 		.4byte	.LASF752
 5322 20f6 18       		.byte	0x18
 5323 20f7 F201     		.2byte	0x1f2
 5324 20f9 30190000 		.4byte	0x1930
 5325 20fd 02       		.byte	0x2
 5326 20fe 0A       		.uleb128 0xa
 5327 20ff E1410000 		.4byte	.LASF753
 5328 2103 18       		.byte	0x18
 5329 2104 F501     		.2byte	0x1f5
 5330 2106 40050000 		.4byte	0x540
 5331 210a 03       		.byte	0x3
 5332 210b 0A       		.uleb128 0xa
 5333 210c D8130000 		.4byte	.LASF754
 5334 2110 18       		.byte	0x18
 5335 2111 F801     		.2byte	0x1f8
 5336 2113 40050000 		.4byte	0x540
 5337 2117 04       		.byte	0x4
 5338 2118 0A       		.uleb128 0xa
 5339 2119 6C350000 		.4byte	.LASF755
 5340 211d 18       		.byte	0x18
 5341 211e FB01     		.2byte	0x1fb
 5342 2120 56050000 		.4byte	0x556
 5343 2124 06       		.byte	0x6
 5344 2125 00       		.byte	0
 5345 2126 07       		.uleb128 0x7
 5346 2127 CB2A0000 		.4byte	.LASF756
 5347 212b 18       		.byte	0x18
 5348 212c FC01     		.2byte	0x1fc
 5349 212e CE200000 		.4byte	0x20ce
 5350 2132 20       		.uleb128 0x20
 5351 2133 38       		.byte	0x38
 5352 2134 18       		.byte	0x18
 5353 2135 0002     		.2byte	0x200
 5354 2137 F2210000 		.4byte	0x21f2
 5355 213b 0A       		.uleb128 0xa
 5356 213c 80490000 		.4byte	.LASF757
 5357 2140 18       		.byte	0x18
 5358 2141 0402     		.2byte	0x204
 5359 2143 F2210000 		.4byte	0x21f2
 5360 2147 00       		.byte	0
 5361 2148 0A       		.uleb128 0xa
 5362 2149 5D2A0000 		.4byte	.LASF758
 5363 214d 18       		.byte	0x18
 5364 214e 0702     		.2byte	0x207
 5365 2150 F8210000 		.4byte	0x21f8
 5366 2154 04       		.byte	0x4
 5367 2155 0A       		.uleb128 0xa
 5368 2156 7B2C0000 		.4byte	.LASF759
 5369 215a 18       		.byte	0x18
 5370 215b 0A02     		.2byte	0x20a
 5371 215d FE210000 		.4byte	0x21fe
ARM GAS  C:\Users\salaz\AppData\Local\Temp\ccnyouLe.s 			page 143


 5372 2161 08       		.byte	0x8
 5373 2162 0A       		.uleb128 0xa
 5374 2163 F1430000 		.4byte	.LASF760
 5375 2167 18       		.byte	0x18
 5376 2168 0D02     		.2byte	0x20d
 5377 216a 04220000 		.4byte	0x2204
 5378 216e 0C       		.byte	0xc
 5379 216f 0A       		.uleb128 0xa
 5380 2170 AE230000 		.4byte	.LASF761
 5381 2174 18       		.byte	0x18
 5382 2175 1002     		.2byte	0x210
 5383 2177 0A220000 		.4byte	0x220a
 5384 217b 10       		.byte	0x10
 5385 217c 0A       		.uleb128 0xa
 5386 217d 113F0000 		.4byte	.LASF762
 5387 2181 18       		.byte	0x18
 5388 2182 1302     		.2byte	0x213
 5389 2184 15220000 		.4byte	0x2215
 5390 2188 14       		.byte	0x14
 5391 2189 0A       		.uleb128 0xa
 5392 218a 961C0000 		.4byte	.LASF763
 5393 218e 18       		.byte	0x18
 5394 218f 1602     		.2byte	0x216
 5395 2191 20220000 		.4byte	0x2220
 5396 2195 18       		.byte	0x18
 5397 2196 0A       		.uleb128 0xa
 5398 2197 B0290000 		.4byte	.LASF764
 5399 219b 18       		.byte	0x18
 5400 219c 1902     		.2byte	0x219
 5401 219e FC0F0000 		.4byte	0xffc
 5402 21a2 1C       		.byte	0x1c
 5403 21a3 0A       		.uleb128 0xa
 5404 21a4 CC2F0000 		.4byte	.LASF765
 5405 21a8 18       		.byte	0x18
 5406 21a9 1C02     		.2byte	0x21c
 5407 21ab F51F0000 		.4byte	0x1ff5
 5408 21af 20       		.byte	0x20
 5409 21b0 0A       		.uleb128 0xa
 5410 21b1 8B390000 		.4byte	.LASF766
 5411 21b5 18       		.byte	0x18
 5412 21b6 1F02     		.2byte	0x21f
 5413 21b8 2B220000 		.4byte	0x222b
 5414 21bc 24       		.byte	0x24
 5415 21bd 0A       		.uleb128 0xa
 5416 21be E8330000 		.4byte	.LASF767
 5417 21c2 18       		.byte	0x18
 5418 21c3 2202     		.2byte	0x222
 5419 21c5 31220000 		.4byte	0x2231
 5420 21c9 28       		.byte	0x28
 5421 21ca 0A       		.uleb128 0xa
 5422 21cb 830F0000 		.4byte	.LASF768
 5423 21cf 18       		.byte	0x18
 5424 21d0 2602     		.2byte	0x226
 5425 21d2 38200000 		.4byte	0x2038
 5426 21d6 2C       		.byte	0x2c
 5427 21d7 0A       		.uleb128 0xa
 5428 21d8 F83E0000 		.4byte	.LASF769
ARM GAS  C:\Users\salaz\AppData\Local\Temp\ccnyouLe.s 			page 144


 5429 21dc 18       		.byte	0x18
 5430 21dd 2902     		.2byte	0x229
 5431 21df 3C220000 		.4byte	0x223c
 5432 21e3 30       		.byte	0x30
 5433 21e4 0A       		.uleb128 0xa
 5434 21e5 9B480000 		.4byte	.LASF770
 5435 21e9 18       		.byte	0x18
 5436 21ea 2D02     		.2byte	0x22d
 5437 21ec 42220000 		.4byte	0x2242
 5438 21f0 34       		.byte	0x34
 5439 21f1 00       		.byte	0
 5440 21f2 19       		.uleb128 0x19
 5441 21f3 04       		.byte	0x4
 5442 21f4 0C1D0000 		.4byte	0x1d0c
 5443 21f8 19       		.uleb128 0x19
 5444 21f9 04       		.byte	0x4
 5445 21fa 501E0000 		.4byte	0x1e50
 5446 21fe 19       		.uleb128 0x19
 5447 21ff 04       		.byte	0x4
 5448 2200 981B0000 		.4byte	0x1b98
 5449 2204 19       		.uleb128 0x19
 5450 2205 04       		.byte	0x4
 5451 2206 F51E0000 		.4byte	0x1ef5
 5452 220a 19       		.uleb128 0x19
 5453 220b 04       		.byte	0x4
 5454 220c 10220000 		.4byte	0x2210
 5455 2210 10       		.uleb128 0x10
 5456 2211 C2200000 		.4byte	0x20c2
 5457 2215 19       		.uleb128 0x19
 5458 2216 04       		.byte	0x4
 5459 2217 1B220000 		.4byte	0x221b
 5460 221b 10       		.uleb128 0x10
 5461 221c 2D200000 		.4byte	0x202d
 5462 2220 19       		.uleb128 0x19
 5463 2221 04       		.byte	0x4
 5464 2222 26220000 		.4byte	0x2226
 5465 2226 10       		.uleb128 0x10
 5466 2227 E01D0000 		.4byte	0x1de0
 5467 222b 19       		.uleb128 0x19
 5468 222c 04       		.byte	0x4
 5469 222d ED1A0000 		.4byte	0x1aed
 5470 2231 19       		.uleb128 0x19
 5471 2232 04       		.byte	0x4
 5472 2233 37220000 		.4byte	0x2237
 5473 2237 10       		.uleb128 0x10
 5474 2238 26210000 		.4byte	0x2126
 5475 223c 19       		.uleb128 0x19
 5476 223d 04       		.byte	0x4
 5477 223e EC190000 		.4byte	0x19ec
 5478 2242 19       		.uleb128 0x19
 5479 2243 04       		.byte	0x4
 5480 2244 48220000 		.4byte	0x2248
 5481 2248 10       		.uleb128 0x10
 5482 2249 250C0000 		.4byte	0xc25
 5483 224d 07       		.uleb128 0x7
 5484 224e 9E390000 		.4byte	.LASF771
 5485 2252 18       		.byte	0x18
ARM GAS  C:\Users\salaz\AppData\Local\Temp\ccnyouLe.s 			page 145


 5486 2253 4402     		.2byte	0x244
 5487 2255 32210000 		.4byte	0x2132
 5488 2259 15       		.uleb128 0x15
 5489 225a 08       		.byte	0x8
 5490 225b 19       		.byte	0x19
 5491 225c 48       		.byte	0x48
 5492 225d 92220000 		.4byte	0x2292
 5493 2261 12       		.uleb128 0x12
 5494 2262 A0090000 		.4byte	.LASF697
 5495 2266 19       		.byte	0x19
 5496 2267 4A       		.byte	0x4a
 5497 2268 31180000 		.4byte	0x1831
 5498 226c 00       		.byte	0
 5499 226d 12       		.uleb128 0x12
 5500 226e 78080000 		.4byte	.LASF772
 5501 2272 19       		.byte	0x19
 5502 2273 4B       		.byte	0x4b
 5503 2274 31180000 		.4byte	0x1831
 5504 2278 02       		.byte	0x2
 5505 2279 12       		.uleb128 0x12
 5506 227a 6F040000 		.4byte	.LASF773
 5507 227e 19       		.byte	0x19
 5508 227f 4C       		.byte	0x4c
 5509 2280 31180000 		.4byte	0x1831
 5510 2284 04       		.byte	0x4
 5511 2285 12       		.uleb128 0x12
 5512 2286 D6460000 		.4byte	.LASF742
 5513 228a 19       		.byte	0x19
 5514 228b 4D       		.byte	0x4d
 5515 228c 31180000 		.4byte	0x1831
 5516 2290 06       		.byte	0x6
 5517 2291 00       		.byte	0
 5518 2292 06       		.uleb128 0x6
 5519 2293 07490000 		.4byte	.LASF774
 5520 2297 19       		.byte	0x19
 5521 2298 4E       		.byte	0x4e
 5522 2299 59220000 		.4byte	0x2259
 5523 229d 15       		.uleb128 0x15
 5524 229e 08       		.byte	0x8
 5525 229f 19       		.byte	0x19
 5526 22a0 6E       		.byte	0x6e
 5527 22a1 BE220000 		.4byte	0x22be
 5528 22a5 12       		.uleb128 0x12
 5529 22a6 AE460000 		.4byte	.LASF775
 5530 22aa 19       		.byte	0x19
 5531 22ab 71       		.byte	0x71
 5532 22ac BE220000 		.4byte	0x22be
 5533 22b0 00       		.byte	0
 5534 22b1 12       		.uleb128 0x12
 5535 22b2 830F0000 		.4byte	.LASF768
 5536 22b6 19       		.byte	0x19
 5537 22b7 74       		.byte	0x74
 5538 22b8 38200000 		.4byte	0x2038
 5539 22bc 04       		.byte	0x4
 5540 22bd 00       		.byte	0
 5541 22be 19       		.uleb128 0x19
 5542 22bf 04       		.byte	0x4
ARM GAS  C:\Users\salaz\AppData\Local\Temp\ccnyouLe.s 			page 146


 5543 22c0 C4220000 		.4byte	0x22c4
 5544 22c4 10       		.uleb128 0x10
 5545 22c5 92220000 		.4byte	0x2292
 5546 22c9 06       		.uleb128 0x6
 5547 22ca 8B2E0000 		.4byte	.LASF776
 5548 22ce 19       		.byte	0x19
 5549 22cf 75       		.byte	0x75
 5550 22d0 9D220000 		.4byte	0x229d
 5551 22d4 15       		.uleb128 0x15
 5552 22d5 20       		.byte	0x20
 5553 22d6 1A       		.byte	0x1a
 5554 22d7 5B       		.byte	0x5b
 5555 22d8 31230000 		.4byte	0x2331
 5556 22dc 12       		.uleb128 0x12
 5557 22dd 891F0000 		.4byte	.LASF777
 5558 22e1 1A       		.byte	0x1a
 5559 22e2 5D       		.byte	0x5d
 5560 22e3 B00B0000 		.4byte	0xbb0
 5561 22e7 00       		.byte	0
 5562 22e8 12       		.uleb128 0x12
 5563 22e9 543A0000 		.4byte	.LASF778
 5564 22ed 1A       		.byte	0x1a
 5565 22ee 5E       		.byte	0x5e
 5566 22ef E00B0000 		.4byte	0xbe0
 5567 22f3 08       		.byte	0x8
 5568 22f4 12       		.uleb128 0x12
 5569 22f5 F00A0000 		.4byte	.LASF779
 5570 22f9 1A       		.byte	0x1a
 5571 22fa 5F       		.byte	0x5f
 5572 22fb D40B0000 		.4byte	0xbd4
 5573 22ff 10       		.byte	0x10
 5574 2300 12       		.uleb128 0x12
 5575 2301 E5350000 		.4byte	.LASF780
 5576 2305 1A       		.byte	0x1a
 5577 2306 60       		.byte	0x60
 5578 2307 D40B0000 		.4byte	0xbd4
 5579 230b 12       		.byte	0x12
 5580 230c 12       		.uleb128 0x12
 5581 230d F90E0000 		.4byte	.LASF781
 5582 2311 1A       		.byte	0x1a
 5583 2312 61       		.byte	0x61
 5584 2313 D40B0000 		.4byte	0xbd4
 5585 2317 14       		.byte	0x14
 5586 2318 12       		.uleb128 0x12
 5587 2319 E4010000 		.4byte	.LASF782
 5588 231d 1A       		.byte	0x1a
 5589 231e 62       		.byte	0x62
 5590 231f C80B0000 		.4byte	0xbc8
 5591 2323 18       		.byte	0x18
 5592 2324 12       		.uleb128 0x12
 5593 2325 F3170000 		.4byte	.LASF783
 5594 2329 1A       		.byte	0x1a
 5595 232a 63       		.byte	0x63
 5596 232b C80B0000 		.4byte	0xbc8
 5597 232f 1C       		.byte	0x1c
 5598 2330 00       		.byte	0
 5599 2331 06       		.uleb128 0x6
ARM GAS  C:\Users\salaz\AppData\Local\Temp\ccnyouLe.s 			page 147


 5600 2332 3A490000 		.4byte	.LASF784
 5601 2336 1A       		.byte	0x1a
 5602 2337 65       		.byte	0x65
 5603 2338 D4220000 		.4byte	0x22d4
 5604 233c 24       		.uleb128 0x24
 5605 233d CD180000 		.4byte	.LASF885
 5606 2341 02       		.byte	0x2
 5607 2342 E702     		.2byte	0x2e7
 5608 2344 3C1D0000 		.4byte	0x1d3c
 5609 2348 03       		.byte	0x3
 5610 2349 25       		.uleb128 0x25
 5611 234a 9B140000 		.4byte	.LASF785
 5612 234e 03       		.byte	0x3
 5613 234f EC02     		.2byte	0x2ec
 5614 2351 6C050000 		.4byte	0x56c
 5615 2355 03       		.byte	0x3
 5616 2356 67230000 		.4byte	0x2367
 5617 235a 26       		.uleb128 0x26
 5618 235b D2450000 		.4byte	.LASF787
 5619 235f 03       		.byte	0x3
 5620 2360 EC02     		.2byte	0x2ec
 5621 2362 67230000 		.4byte	0x2367
 5622 2366 00       		.byte	0
 5623 2367 19       		.uleb128 0x19
 5624 2368 04       		.byte	0x4
 5625 2369 6D230000 		.4byte	0x236d
 5626 236d 10       		.uleb128 0x10
 5627 236e 890B0000 		.4byte	0xb89
 5628 2372 25       		.uleb128 0x25
 5629 2373 D8300000 		.4byte	.LASF786
 5630 2377 03       		.byte	0x3
 5631 2378 D902     		.2byte	0x2d9
 5632 237a 6C050000 		.4byte	0x56c
 5633 237e 03       		.byte	0x3
 5634 237f 90230000 		.4byte	0x2390
 5635 2383 26       		.uleb128 0x26
 5636 2384 D2450000 		.4byte	.LASF787
 5637 2388 03       		.byte	0x3
 5638 2389 D902     		.2byte	0x2d9
 5639 238b 67230000 		.4byte	0x2367
 5640 238f 00       		.byte	0
 5641 2390 27       		.uleb128 0x27
 5642 2391 E6370000 		.4byte	.LASF886
 5643 2395 04       		.byte	0x4
 5644 2396 1803     		.2byte	0x318
 5645 2398 03       		.byte	0x3
 5646 2399 AA230000 		.4byte	0x23aa
 5647 239d 26       		.uleb128 0x26
 5648 239e 9C060000 		.4byte	.LASF788
 5649 23a2 04       		.byte	0x4
 5650 23a3 1803     		.2byte	0x318
 5651 23a5 31010000 		.4byte	0x131
 5652 23a9 00       		.byte	0
 5653 23aa 28       		.uleb128 0x28
 5654 23ab 36470000 		.4byte	.LASF818
 5655 23af 01       		.byte	0x1
 5656 23b0 19       		.byte	0x19
ARM GAS  C:\Users\salaz\AppData\Local\Temp\ccnyouLe.s 			page 148


 5657 23b1 00000000 		.4byte	.LFB792
 5658 23b5 84030000 		.4byte	.LFE792-.LFB792
 5659 23b9 01       		.uleb128 0x1
 5660 23ba 9C       		.byte	0x9c
 5661 23bb 5C270000 		.4byte	0x275c
 5662 23bf 29       		.uleb128 0x29
 5663 23c0 B22D0000 		.4byte	.LASF789
 5664 23c4 01       		.byte	0x1
 5665 23c5 19       		.byte	0x19
 5666 23c6 C80B0000 		.4byte	0xbc8
 5667 23ca 00000000 		.4byte	.LLST0
 5668 23ce 29       		.uleb128 0x29
 5669 23cf D5020000 		.4byte	.LASF790
 5670 23d3 01       		.byte	0x1
 5671 23d4 19       		.byte	0x19
 5672 23d5 300C0000 		.4byte	0xc30
 5673 23d9 A9000000 		.4byte	.LLST1
 5674 23dd 2A       		.uleb128 0x2a
 5675 23de 77020000 		.4byte	.LASF791
 5676 23e2 01       		.byte	0x1
 5677 23e3 1B       		.byte	0x1b
 5678 23e4 320C0000 		.4byte	0xc32
 5679 23e8 47010000 		.4byte	.LLST2
 5680 23ec 2A       		.uleb128 0x2a
 5681 23ed 541C0000 		.4byte	.LASF792
 5682 23f1 01       		.byte	0x1
 5683 23f2 1C       		.byte	0x1c
 5684 23f3 320C0000 		.4byte	0xc32
 5685 23f7 5A010000 		.4byte	.LLST3
 5686 23fb 2B       		.uleb128 0x2b
 5687 23fc 5C1E0000 		.4byte	.LASF793
 5688 2400 01       		.byte	0x1
 5689 2401 1E       		.byte	0x1e
 5690 2402 5C270000 		.4byte	0x275c
 5691 2406 05       		.uleb128 0x5
 5692 2407 03       		.byte	0x3
 5693 2408 08000000 		.4byte	bondedDeviceInfo.19102
 5694 240c 2B       		.uleb128 0x2b
 5695 240d 531A0000 		.4byte	.LASF794
 5696 2411 01       		.byte	0x1
 5697 2412 1F       		.byte	0x1f
 5698 2413 231B0000 		.4byte	0x1b23
 5699 2417 05       		.uleb128 0x5
 5700 2418 03       		.byte	0x3
 5701 2419 00000000 		.4byte	bondedDeviceList.19103
 5702 241d 2C       		.uleb128 0x2c
 5703 241e C6000000 		.4byte	.LBB29
 5704 2422 CC000000 		.4byte	.LBE29-.LBB29
 5705 2426 2B250000 		.4byte	0x252b
 5706 242a 2B       		.uleb128 0x2b
 5707 242b 59430000 		.4byte	.LASF795
 5708 242f 01       		.byte	0x1
 5709 2430 28       		.byte	0x28
 5710 2431 891A0000 		.4byte	0x1a89
 5711 2435 02       		.uleb128 0x2
 5712 2436 91       		.byte	0x91
 5713 2437 48       		.sleb128 -56
ARM GAS  C:\Users\salaz\AppData\Local\Temp\ccnyouLe.s 			page 149


 5714 2438 2B       		.uleb128 0x2b
 5715 2439 42150000 		.4byte	.LASF796
 5716 243d 01       		.byte	0x1
 5717 243e 2B       		.byte	0x2b
 5718 243f EC190000 		.4byte	0x19ec
 5719 2443 03       		.uleb128 0x3
 5720 2444 91       		.byte	0x91
 5721 2445 B47F     		.sleb128 -76
 5722 2447 2A       		.uleb128 0x2a
 5723 2448 0A080000 		.4byte	.LASF797
 5724 244c 01       		.byte	0x1
 5725 244d 2C       		.byte	0x2c
 5726 244e E00B0000 		.4byte	0xbe0
 5727 2452 6D010000 		.4byte	.LLST4
 5728 2456 2A       		.uleb128 0x2a
 5729 2457 37430000 		.4byte	.LASF798
 5730 245b 01       		.byte	0x1
 5731 245c 2D       		.byte	0x2d
 5732 245d E00B0000 		.4byte	0xbe0
 5733 2461 86010000 		.4byte	.LLST5
 5734 2465 2A       		.uleb128 0x2a
 5735 2466 3C430000 		.4byte	.LASF799
 5736 246a 01       		.byte	0x1
 5737 246b 2E       		.byte	0x2e
 5738 246c E00B0000 		.4byte	0xbe0
 5739 2470 B3010000 		.4byte	.LLST6
 5740 2474 2A       		.uleb128 0x2a
 5741 2475 52080000 		.4byte	.LASF800
 5742 2479 01       		.byte	0x1
 5743 247a 2F       		.byte	0x2f
 5744 247b E00B0000 		.4byte	0xbe0
 5745 247f E0010000 		.4byte	.LLST7
 5746 2483 2A       		.uleb128 0x2a
 5747 2484 60340000 		.4byte	.LASF801
 5748 2488 01       		.byte	0x1
 5749 2489 30       		.byte	0x30
 5750 248a E00B0000 		.4byte	0xbe0
 5751 248e F9010000 		.4byte	.LLST8
 5752 2492 2A       		.uleb128 0x2a
 5753 2493 73080000 		.4byte	.LASF802
 5754 2497 01       		.byte	0x1
 5755 2498 31       		.byte	0x31
 5756 2499 E00B0000 		.4byte	0xbe0
 5757 249d 12020000 		.4byte	.LLST9
 5758 24a1 2A       		.uleb128 0x2a
 5759 24a2 EC390000 		.4byte	.LASF803
 5760 24a6 01       		.byte	0x1
 5761 24a7 33       		.byte	0x33
 5762 24a8 E00B0000 		.4byte	0xbe0
 5763 24ac 2B020000 		.4byte	.LLST10
 5764 24b0 2D       		.uleb128 0x2d
 5765 24b1 696400   		.ascii	"id\000"
 5766 24b4 01       		.byte	0x1
 5767 24b5 37       		.byte	0x37
 5768 24b6 BC0B0000 		.4byte	0xbbc
 5769 24ba 43020000 		.4byte	.LLST11
 5770 24be 2D       		.uleb128 0x2d
ARM GAS  C:\Users\salaz\AppData\Local\Temp\ccnyouLe.s 			page 150


 5771 24bf 4E3100   		.ascii	"N1\000"
 5772 24c2 01       		.byte	0x1
 5773 24c3 39       		.byte	0x39
 5774 24c4 EC0B0000 		.4byte	0xbec
 5775 24c8 56020000 		.4byte	.LLST12
 5776 24cc 2D       		.uleb128 0x2d
 5777 24cd 4E3200   		.ascii	"N2\000"
 5778 24d0 01       		.byte	0x1
 5779 24d1 3A       		.byte	0x3a
 5780 24d2 EC0B0000 		.4byte	0xbec
 5781 24d6 69020000 		.4byte	.LLST13
 5782 24da 2D       		.uleb128 0x2d
 5783 24db 4E3300   		.ascii	"N3\000"
 5784 24de 01       		.byte	0x1
 5785 24df 3B       		.byte	0x3b
 5786 24e0 EC0B0000 		.4byte	0xbec
 5787 24e4 7C020000 		.4byte	.LLST14
 5788 24e8 2D       		.uleb128 0x2d
 5789 24e9 4E3400   		.ascii	"N4\000"
 5790 24ec 01       		.byte	0x1
 5791 24ed 3C       		.byte	0x3c
 5792 24ee EC0B0000 		.4byte	0xbec
 5793 24f2 8F020000 		.4byte	.LLST15
 5794 24f6 2B       		.uleb128 0x2b
 5795 24f7 563C0000 		.4byte	.LASF804
 5796 24fb 01       		.byte	0x1
 5797 24fc 3E       		.byte	0x3e
 5798 24fd 6C270000 		.4byte	0x276c
 5799 2501 03       		.uleb128 0x3
 5800 2502 91       		.byte	0x91
 5801 2503 BC7F     		.sleb128 -68
 5802 2505 2E       		.uleb128 0x2e
 5803 2506 D6000000 		.4byte	.LVL4
 5804 250a C82D0000 		.4byte	0x2dc8
 5805 250e 1A250000 		.4byte	0x251a
 5806 2512 2F       		.uleb128 0x2f
 5807 2513 01       		.uleb128 0x1
 5808 2514 50       		.byte	0x50
 5809 2515 03       		.uleb128 0x3
 5810 2516 7D       		.byte	0x7d
 5811 2517 C000     		.sleb128 64
 5812 2519 00       		.byte	0
 5813 251a 30       		.uleb128 0x30
 5814 251b 90010000 		.4byte	.LVL25
 5815 251f D42D0000 		.4byte	0x2dd4
 5816 2523 2F       		.uleb128 0x2f
 5817 2524 01       		.uleb128 0x1
 5818 2525 50       		.byte	0x50
 5819 2526 02       		.uleb128 0x2
 5820 2527 7D       		.byte	0x7d
 5821 2528 34       		.sleb128 52
 5822 2529 00       		.byte	0
 5823 252a 00       		.byte	0
 5824 252b 31       		.uleb128 0x31
 5825 252c 3C230000 		.4byte	0x233c
 5826 2530 92010000 		.4byte	.LBB30
 5827 2534 04000000 		.4byte	.LBE30-.LBB30
ARM GAS  C:\Users\salaz\AppData\Local\Temp\ccnyouLe.s 			page 151


 5828 2538 01       		.byte	0x1
 5829 2539 44       		.byte	0x44
 5830 253a 32       		.uleb128 0x32
 5831 253b 72230000 		.4byte	0x2372
 5832 253f A8010000 		.4byte	.LBB32
 5833 2543 0C000000 		.4byte	.LBE32-.LBB32
 5834 2547 01       		.byte	0x1
 5835 2548 46       		.byte	0x46
 5836 2549 57250000 		.4byte	0x2557
 5837 254d 33       		.uleb128 0x33
 5838 254e 83230000 		.4byte	0x2383
 5839 2552 A2020000 		.4byte	.LLST16
 5840 2556 00       		.byte	0
 5841 2557 32       		.uleb128 0x32
 5842 2558 49230000 		.4byte	0x2349
 5843 255c B4010000 		.4byte	.LBB34
 5844 2560 08000000 		.4byte	.LBE34-.LBB34
 5845 2564 01       		.byte	0x1
 5846 2565 46       		.byte	0x46
 5847 2566 74250000 		.4byte	0x2574
 5848 256a 33       		.uleb128 0x33
 5849 256b 5A230000 		.4byte	0x235a
 5850 256f BA020000 		.4byte	.LLST17
 5851 2573 00       		.byte	0
 5852 2574 2C       		.uleb128 0x2c
 5853 2575 D8010000 		.4byte	.LBB36
 5854 2579 5C000000 		.4byte	.LBE36-.LBB36
 5855 257d 01260000 		.4byte	0x2601
 5856 2581 2A       		.uleb128 0x2a
 5857 2582 473A0000 		.4byte	.LASF805
 5858 2586 01       		.byte	0x1
 5859 2587 57       		.byte	0x57
 5860 2588 320C0000 		.4byte	0xc32
 5861 258c D2020000 		.4byte	.LLST18
 5862 2590 2A       		.uleb128 0x2a
 5863 2591 2E170000 		.4byte	.LASF806
 5864 2595 01       		.byte	0x1
 5865 2596 5A       		.byte	0x5a
 5866 2597 62170000 		.4byte	0x1762
 5867 259b F1020000 		.4byte	.LLST19
 5868 259f 34       		.uleb128 0x34
 5869 25a0 00000000 		.4byte	.Ldebug_ranges0+0
 5870 25a4 CB250000 		.4byte	0x25cb
 5871 25a8 2A       		.uleb128 0x2a
 5872 25a9 4B270000 		.4byte	.LASF807
 5873 25ad 01       		.byte	0x1
 5874 25ae 5D       		.byte	0x5d
 5875 25af B00B0000 		.4byte	0xbb0
 5876 25b3 1A030000 		.4byte	.LLST20
 5877 25b7 35       		.uleb128 0x35
 5878 25b8 28000000 		.4byte	.Ldebug_ranges0+0x28
 5879 25bc 2D       		.uleb128 0x2d
 5880 25bd 6900     		.ascii	"i\000"
 5881 25bf 01       		.byte	0x1
 5882 25c0 60       		.byte	0x60
 5883 25c1 B00B0000 		.4byte	0xbb0
 5884 25c5 38030000 		.4byte	.LLST21
ARM GAS  C:\Users\salaz\AppData\Local\Temp\ccnyouLe.s 			page 152


 5885 25c9 00       		.byte	0
 5886 25ca 00       		.byte	0
 5887 25cb 2C       		.uleb128 0x2c
 5888 25cc 26020000 		.4byte	.LBB45
 5889 25d0 0E000000 		.4byte	.LBE45-.LBB45
 5890 25d4 ED250000 		.4byte	0x25ed
 5891 25d8 36       		.uleb128 0x36
 5892 25d9 2E170000 		.4byte	.LASF806
 5893 25dd 01       		.byte	0x1
 5894 25de 71       		.byte	0x71
 5895 25df 62170000 		.4byte	0x1762
 5896 25e3 37       		.uleb128 0x37
 5897 25e4 32020000 		.4byte	.LVL47
 5898 25e8 DF2D0000 		.4byte	0x2ddf
 5899 25ec 00       		.byte	0
 5900 25ed 30       		.uleb128 0x30
 5901 25ee DE010000 		.4byte	.LVL35
 5902 25f2 EB2D0000 		.4byte	0x2deb
 5903 25f6 2F       		.uleb128 0x2f
 5904 25f7 01       		.uleb128 0x1
 5905 25f8 50       		.byte	0x50
 5906 25f9 05       		.uleb128 0x5
 5907 25fa 03       		.byte	0x3
 5908 25fb 00000000 		.4byte	.LANCHOR1
 5909 25ff 00       		.byte	0
 5910 2600 00       		.byte	0
 5911 2601 2C       		.uleb128 0x2c
 5912 2602 34020000 		.4byte	.LBB46
 5913 2606 5E000000 		.4byte	.LBE46-.LBB46
 5914 260a 9B260000 		.4byte	0x269b
 5915 260e 2A       		.uleb128 0x2a
 5916 260f 212B0000 		.4byte	.LASF808
 5917 2613 01       		.byte	0x1
 5918 2614 79       		.byte	0x79
 5919 2615 7C270000 		.4byte	0x277c
 5920 2619 6C030000 		.4byte	.LLST22
 5921 261d 2C       		.uleb128 0x2c
 5922 261e 3A020000 		.4byte	.LBB47
 5923 2622 48000000 		.4byte	.LBE47-.LBB47
 5924 2626 91260000 		.4byte	0x2691
 5925 262a 2D       		.uleb128 0x2d
 5926 262b 6C656E00 		.ascii	"len\000"
 5927 262f 01       		.byte	0x1
 5928 2630 7F       		.byte	0x7f
 5929 2631 C80B0000 		.4byte	0xbc8
 5930 2635 8D030000 		.4byte	.LLST23
 5931 2639 2D       		.uleb128 0x2d
 5932 263a 6D736700 		.ascii	"msg\000"
 5933 263e 01       		.byte	0x1
 5934 263f 80       		.byte	0x80
 5935 2640 82270000 		.4byte	0x2782
 5936 2644 A0030000 		.4byte	.LLST24
 5937 2648 2C       		.uleb128 0x2c
 5938 2649 4E020000 		.4byte	.LBB48
 5939 264d 10000000 		.4byte	.LBE48-.LBB48
 5940 2651 63260000 		.4byte	0x2663
 5941 2655 2D       		.uleb128 0x2d
ARM GAS  C:\Users\salaz\AppData\Local\Temp\ccnyouLe.s 			page 153


 5942 2656 6900     		.ascii	"i\000"
 5943 2658 01       		.byte	0x1
 5944 2659 81       		.byte	0x81
 5945 265a C80B0000 		.4byte	0xbc8
 5946 265e C0030000 		.4byte	.LLST25
 5947 2662 00       		.byte	0
 5948 2663 32       		.uleb128 0x32
 5949 2664 90230000 		.4byte	0x2390
 5950 2668 6A020000 		.4byte	.LBB49
 5951 266c 14000000 		.4byte	.LBE49-.LBB49
 5952 2670 01       		.byte	0x1
 5953 2671 88       		.byte	0x88
 5954 2672 80260000 		.4byte	0x2680
 5955 2676 33       		.uleb128 0x33
 5956 2677 9D230000 		.4byte	0x239d
 5957 267b DF030000 		.4byte	.LLST26
 5958 267f 00       		.byte	0
 5959 2680 30       		.uleb128 0x30
 5960 2681 64020000 		.4byte	.LVL55
 5961 2685 F72D0000 		.4byte	0x2df7
 5962 2689 2F       		.uleb128 0x2f
 5963 268a 01       		.uleb128 0x1
 5964 268b 51       		.byte	0x51
 5965 268c 02       		.uleb128 0x2
 5966 268d 76       		.byte	0x76
 5967 268e 00       		.sleb128 0
 5968 268f 00       		.byte	0
 5969 2690 00       		.byte	0
 5970 2691 37       		.uleb128 0x37
 5971 2692 90020000 		.4byte	.LVL60
 5972 2696 022E0000 		.4byte	0x2e02
 5973 269a 00       		.byte	0
 5974 269b 2C       		.uleb128 0x2c
 5975 269c 92020000 		.4byte	.LBB51
 5976 26a0 24000000 		.4byte	.LBE51-.LBB51
 5977 26a4 D3260000 		.4byte	0x26d3
 5978 26a8 2A       		.uleb128 0x2a
 5979 26a9 2E170000 		.4byte	.LASF806
 5980 26ad 01       		.byte	0x1
 5981 26ae A0       		.byte	0xa0
 5982 26af 62170000 		.4byte	0x1762
 5983 26b3 F2030000 		.4byte	.LLST27
 5984 26b7 37       		.uleb128 0x37
 5985 26b8 A2020000 		.4byte	.LVL64
 5986 26bc 0E2E0000 		.4byte	0x2e0e
 5987 26c0 37       		.uleb128 0x37
 5988 26c1 AA020000 		.4byte	.LVL65
 5989 26c5 1A2E0000 		.4byte	0x2e1a
 5990 26c9 37       		.uleb128 0x37
 5991 26ca B4020000 		.4byte	.LVL66
 5992 26ce 0E2E0000 		.4byte	0x2e0e
 5993 26d2 00       		.byte	0
 5994 26d3 32       		.uleb128 0x32
 5995 26d4 72230000 		.4byte	0x2372
 5996 26d8 BE020000 		.4byte	.LBB52
 5997 26dc 0C000000 		.4byte	.LBE52-.LBB52
 5998 26e0 01       		.byte	0x1
ARM GAS  C:\Users\salaz\AppData\Local\Temp\ccnyouLe.s 			page 154


 5999 26e1 E6       		.byte	0xe6
 6000 26e2 F0260000 		.4byte	0x26f0
 6001 26e6 33       		.uleb128 0x33
 6002 26e7 83230000 		.4byte	0x2383
 6003 26eb 05040000 		.4byte	.LLST28
 6004 26ef 00       		.byte	0
 6005 26f0 32       		.uleb128 0x32
 6006 26f1 49230000 		.4byte	0x2349
 6007 26f5 CA020000 		.4byte	.LBB54
 6008 26f9 08000000 		.4byte	.LBE54-.LBB54
 6009 26fd 01       		.byte	0x1
 6010 26fe E6       		.byte	0xe6
 6011 26ff 0D270000 		.4byte	0x270d
 6012 2703 33       		.uleb128 0x33
 6013 2704 5A230000 		.4byte	0x235a
 6014 2708 1D040000 		.4byte	.LLST29
 6015 270c 00       		.byte	0
 6016 270d 32       		.uleb128 0x32
 6017 270e 90230000 		.4byte	0x2390
 6018 2712 EE020000 		.4byte	.LBB56
 6019 2716 14000000 		.4byte	.LBE56-.LBB56
 6020 271a 01       		.byte	0x1
 6021 271b EC       		.byte	0xec
 6022 271c 2A270000 		.4byte	0x272a
 6023 2720 33       		.uleb128 0x33
 6024 2721 9D230000 		.4byte	0x239d
 6025 2725 35040000 		.4byte	.LLST30
 6026 2729 00       		.byte	0
 6027 272a 2E       		.uleb128 0x2e
 6028 272b A8010000 		.4byte	.LVL29
 6029 272f 262E0000 		.4byte	0x2e26
 6030 2733 41270000 		.4byte	0x2741
 6031 2737 2F       		.uleb128 0x2f
 6032 2738 01       		.uleb128 0x1
 6033 2739 50       		.byte	0x50
 6034 273a 05       		.uleb128 0x5
 6035 273b 03       		.byte	0x3
 6036 273c 00000000 		.4byte	.LC2
 6037 2740 00       		.byte	0
 6038 2741 30       		.uleb128 0x30
 6039 2742 BE020000 		.4byte	.LVL70
 6040 2746 262E0000 		.4byte	0x2e26
 6041 274a 2F       		.uleb128 0x2f
 6042 274b 01       		.uleb128 0x1
 6043 274c 50       		.byte	0x50
 6044 274d 05       		.uleb128 0x5
 6045 274e 03       		.byte	0x3
 6046 274f 30000000 		.4byte	.LC8
 6047 2753 2F       		.uleb128 0x2f
 6048 2754 01       		.uleb128 0x1
 6049 2755 51       		.byte	0x51
 6050 2756 03       		.uleb128 0x3
 6051 2757 F3       		.byte	0xf3
 6052 2758 01       		.uleb128 0x1
 6053 2759 50       		.byte	0x50
 6054 275a 00       		.byte	0
 6055 275b 00       		.byte	0
ARM GAS  C:\Users\salaz\AppData\Local\Temp\ccnyouLe.s 			page 155


 6056 275c 0D       		.uleb128 0xd
 6057 275d 4C1A0000 		.4byte	0x1a4c
 6058 2761 6C270000 		.4byte	0x276c
 6059 2765 0E       		.uleb128 0xe
 6060 2766 24060000 		.4byte	0x624
 6061 276a 0F       		.byte	0xf
 6062 276b 00       		.byte	0
 6063 276c 0D       		.uleb128 0xd
 6064 276d EC0B0000 		.4byte	0xbec
 6065 2771 7C270000 		.4byte	0x277c
 6066 2775 0E       		.uleb128 0xe
 6067 2776 24060000 		.4byte	0x624
 6068 277a 0A       		.byte	0xa
 6069 277b 00       		.byte	0
 6070 277c 19       		.uleb128 0x19
 6071 277d 04       		.byte	0x4
 6072 277e 0C1F0000 		.4byte	0x1f0c
 6073 2782 0D       		.uleb128 0xd
 6074 2783 B00B0000 		.4byte	0xbb0
 6075 2787 91270000 		.4byte	0x2791
 6076 278b 38       		.uleb128 0x38
 6077 278c 24060000 		.4byte	0x624
 6078 2790 00       		.byte	0
 6079 2791 39       		.uleb128 0x39
 6080 2792 C6160000 		.4byte	.LASF832
 6081 2796 01       		.byte	0x1
 6082 2797 EF       		.byte	0xef
 6083 2798 00000000 		.4byte	.LFB793
 6084 279c 74000000 		.4byte	.LFE793-.LFB793
 6085 27a0 01       		.uleb128 0x1
 6086 27a1 9C       		.byte	0x9c
 6087 27a2 5F280000 		.4byte	0x285f
 6088 27a6 2B       		.uleb128 0x2b
 6089 27a7 800E0000 		.4byte	.LASF809
 6090 27ab 01       		.byte	0x1
 6091 27ac F5       		.byte	0xf5
 6092 27ad 5F280000 		.4byte	0x285f
 6093 27b1 05       		.uleb128 0x5
 6094 27b2 03       		.byte	0x3
 6095 27b3 04000000 		.4byte	data.19166
 6096 27b7 2C       		.uleb128 0x2c
 6097 27b8 2A000000 		.4byte	.LBB58
 6098 27bc 2A000000 		.4byte	.LBE58-.LBB58
 6099 27c0 1A280000 		.4byte	0x281a
 6100 27c4 2B       		.uleb128 0x2b
 6101 27c5 6A070000 		.4byte	.LASF810
 6102 27c9 01       		.byte	0x1
 6103 27ca FC       		.byte	0xfc
 6104 27cb 011F0000 		.4byte	0x1f01
 6105 27cf 02       		.uleb128 0x2
 6106 27d0 91       		.byte	0x91
 6107 27d1 68       		.sleb128 -24
 6108 27d2 2E       		.uleb128 0x2e
 6109 27d3 34000000 		.4byte	.LVL80
 6110 27d7 312E0000 		.4byte	0x2e31
 6111 27db F0270000 		.4byte	0x27f0
 6112 27df 2F       		.uleb128 0x2f
ARM GAS  C:\Users\salaz\AppData\Local\Temp\ccnyouLe.s 			page 156


 6113 27e0 01       		.uleb128 0x1
 6114 27e1 50       		.byte	0x50
 6115 27e2 02       		.uleb128 0x2
 6116 27e3 7D       		.byte	0x7d
 6117 27e4 00       		.sleb128 0
 6118 27e5 2F       		.uleb128 0x2f
 6119 27e6 01       		.uleb128 0x1
 6120 27e7 51       		.byte	0x51
 6121 27e8 01       		.uleb128 0x1
 6122 27e9 30       		.byte	0x30
 6123 27ea 2F       		.uleb128 0x2f
 6124 27eb 01       		.uleb128 0x1
 6125 27ec 52       		.byte	0x52
 6126 27ed 01       		.uleb128 0x1
 6127 27ee 40       		.byte	0x40
 6128 27ef 00       		.byte	0
 6129 27f0 2E       		.uleb128 0x2e
 6130 27f1 4E000000 		.4byte	.LVL81
 6131 27f5 3A2E0000 		.4byte	0x2e3a
 6132 27f9 09280000 		.4byte	0x2809
 6133 27fd 2F       		.uleb128 0x2f
 6134 27fe 01       		.uleb128 0x1
 6135 27ff 50       		.byte	0x50
 6136 2800 02       		.uleb128 0x2
 6137 2801 91       		.byte	0x91
 6138 2802 74       		.sleb128 -12
 6139 2803 2F       		.uleb128 0x2f
 6140 2804 01       		.uleb128 0x1
 6141 2805 52       		.byte	0x52
 6142 2806 01       		.uleb128 0x1
 6143 2807 32       		.byte	0x32
 6144 2808 00       		.byte	0
 6145 2809 30       		.uleb128 0x30
 6146 280a 54000000 		.4byte	.LVL82
 6147 280e 432E0000 		.4byte	0x2e43
 6148 2812 2F       		.uleb128 0x2f
 6149 2813 01       		.uleb128 0x1
 6150 2814 50       		.byte	0x50
 6151 2815 02       		.uleb128 0x2
 6152 2816 7D       		.byte	0x7d
 6153 2817 00       		.sleb128 0
 6154 2818 00       		.byte	0
 6155 2819 00       		.byte	0
 6156 281a 2C       		.uleb128 0x2c
 6157 281b 5C000000 		.4byte	.LBB59
 6158 281f 04000000 		.4byte	.LBE59-.LBB59
 6159 2823 3D280000 		.4byte	0x283d
 6160 2827 3A       		.uleb128 0x3a
 6161 2828 2E170000 		.4byte	.LASF806
 6162 282c 01       		.byte	0x1
 6163 282d 0B01     		.2byte	0x10b
 6164 282f 62170000 		.4byte	0x1762
 6165 2833 37       		.uleb128 0x37
 6166 2834 60000000 		.4byte	.LVL83
 6167 2838 4E2E0000 		.4byte	0x2e4e
 6168 283c 00       		.byte	0
 6169 283d 37       		.uleb128 0x37
ARM GAS  C:\Users\salaz\AppData\Local\Temp\ccnyouLe.s 			page 157


 6170 283e 08000000 		.4byte	.LVL78
 6171 2842 5A2E0000 		.4byte	0x2e5a
 6172 2846 30       		.uleb128 0x30
 6173 2847 26000000 		.4byte	.LVL79
 6174 284b 662E0000 		.4byte	0x2e66
 6175 284f 2F       		.uleb128 0x2f
 6176 2850 01       		.uleb128 0x1
 6177 2851 50       		.byte	0x50
 6178 2852 01       		.uleb128 0x1
 6179 2853 31       		.byte	0x31
 6180 2854 2F       		.uleb128 0x2f
 6181 2855 01       		.uleb128 0x1
 6182 2856 51       		.byte	0x51
 6183 2857 05       		.uleb128 0x5
 6184 2858 03       		.byte	0x3
 6185 2859 04000000 		.4byte	.LANCHOR0+4
 6186 285d 00       		.byte	0
 6187 285e 00       		.byte	0
 6188 285f 0D       		.uleb128 0xd
 6189 2860 B00B0000 		.4byte	0xbb0
 6190 2864 6F280000 		.4byte	0x286f
 6191 2868 0E       		.uleb128 0xe
 6192 2869 24060000 		.4byte	0x624
 6193 286d 00       		.byte	0
 6194 286e 00       		.byte	0
 6195 286f 3B       		.uleb128 0x3b
 6196 2870 C6040000 		.4byte	.LASF812
 6197 2874 01       		.byte	0x1
 6198 2875 1201     		.2byte	0x112
 6199 2877 320C0000 		.4byte	0xc32
 6200 287b 00000000 		.4byte	.LFB794
 6201 287f 08000000 		.4byte	.LFE794-.LFB794
 6202 2883 01       		.uleb128 0x1
 6203 2884 9C       		.byte	0x9c
 6204 2885 C2280000 		.4byte	0x28c2
 6205 2889 3C       		.uleb128 0x3c
 6206 288a 1D120000 		.4byte	.LASF811
 6207 288e 01       		.byte	0x1
 6208 288f 1201     		.2byte	0x112
 6209 2891 C80B0000 		.4byte	0xbc8
 6210 2895 48040000 		.4byte	.LLST31
 6211 2899 3C       		.uleb128 0x3c
 6212 289a 800E0000 		.4byte	.LASF809
 6213 289e 01       		.byte	0x1
 6214 289f 1201     		.2byte	0x112
 6215 28a1 C2280000 		.4byte	0x28c2
 6216 28a5 69040000 		.4byte	.LLST32
 6217 28a9 30       		.uleb128 0x30
 6218 28aa 06000000 		.4byte	.LVL85
 6219 28ae 712E0000 		.4byte	0x2e71
 6220 28b2 2F       		.uleb128 0x2f
 6221 28b3 01       		.uleb128 0x1
 6222 28b4 50       		.byte	0x50
 6223 28b5 03       		.uleb128 0x3
 6224 28b6 F3       		.byte	0xf3
 6225 28b7 01       		.uleb128 0x1
 6226 28b8 50       		.byte	0x50
ARM GAS  C:\Users\salaz\AppData\Local\Temp\ccnyouLe.s 			page 158


 6227 28b9 2F       		.uleb128 0x2f
 6228 28ba 01       		.uleb128 0x1
 6229 28bb 51       		.byte	0x51
 6230 28bc 03       		.uleb128 0x3
 6231 28bd F3       		.byte	0xf3
 6232 28be 01       		.uleb128 0x1
 6233 28bf 51       		.byte	0x51
 6234 28c0 00       		.byte	0
 6235 28c1 00       		.byte	0
 6236 28c2 19       		.uleb128 0x19
 6237 28c3 04       		.byte	0x4
 6238 28c4 B00B0000 		.4byte	0xbb0
 6239 28c8 3B       		.uleb128 0x3b
 6240 28c9 4F110000 		.4byte	.LASF813
 6241 28cd 01       		.byte	0x1
 6242 28ce 1A01     		.2byte	0x11a
 6243 28d0 320C0000 		.4byte	0xc32
 6244 28d4 00000000 		.4byte	.LFB795
 6245 28d8 08000000 		.4byte	.LFE795-.LFB795
 6246 28dc 01       		.uleb128 0x1
 6247 28dd 9C       		.byte	0x9c
 6248 28de 1B290000 		.4byte	0x291b
 6249 28e2 3C       		.uleb128 0x3c
 6250 28e3 1D120000 		.4byte	.LASF811
 6251 28e7 01       		.byte	0x1
 6252 28e8 1A01     		.2byte	0x11a
 6253 28ea C80B0000 		.4byte	0xbc8
 6254 28ee 8A040000 		.4byte	.LLST33
 6255 28f2 3C       		.uleb128 0x3c
 6256 28f3 800E0000 		.4byte	.LASF809
 6257 28f7 01       		.byte	0x1
 6258 28f8 1A01     		.2byte	0x11a
 6259 28fa C2280000 		.4byte	0x28c2
 6260 28fe AB040000 		.4byte	.LLST34
 6261 2902 30       		.uleb128 0x30
 6262 2903 06000000 		.4byte	.LVL87
 6263 2907 7C2E0000 		.4byte	0x2e7c
 6264 290b 2F       		.uleb128 0x2f
 6265 290c 01       		.uleb128 0x1
 6266 290d 50       		.byte	0x50
 6267 290e 03       		.uleb128 0x3
 6268 290f F3       		.byte	0xf3
 6269 2910 01       		.uleb128 0x1
 6270 2911 50       		.byte	0x50
 6271 2912 2F       		.uleb128 0x2f
 6272 2913 01       		.uleb128 0x1
 6273 2914 51       		.byte	0x51
 6274 2915 03       		.uleb128 0x3
 6275 2916 F3       		.byte	0xf3
 6276 2917 01       		.uleb128 0x1
 6277 2918 51       		.byte	0x51
 6278 2919 00       		.byte	0
 6279 291a 00       		.byte	0
 6280 291b 3D       		.uleb128 0x3d
 6281 291c D21E0000 		.4byte	.LASF814
 6282 2920 01       		.byte	0x1
 6283 2921 2201     		.2byte	0x122
ARM GAS  C:\Users\salaz\AppData\Local\Temp\ccnyouLe.s 			page 159


 6284 2923 320C0000 		.4byte	0xc32
 6285 2927 00000000 		.4byte	.LFB796
 6286 292b 74000000 		.4byte	.LFE796-.LFB796
 6287 292f 01       		.uleb128 0x1
 6288 2930 9C       		.byte	0x9c
 6289 2931 A1290000 		.4byte	0x29a1
 6290 2935 3C       		.uleb128 0x3c
 6291 2936 F60A0000 		.4byte	.LASF815
 6292 293a 01       		.byte	0x1
 6293 293b 2201     		.2byte	0x122
 6294 293d BC0B0000 		.4byte	0xbbc
 6295 2941 CC040000 		.4byte	.LLST35
 6296 2945 3C       		.uleb128 0x3c
 6297 2946 90060000 		.4byte	.LASF816
 6298 294a 01       		.byte	0x1
 6299 294b 2201     		.2byte	0x122
 6300 294d BC0B0000 		.4byte	0xbbc
 6301 2951 06050000 		.4byte	.LLST36
 6302 2955 3E       		.uleb128 0x3e
 6303 2956 2A000000 		.4byte	.LBB60
 6304 295a 30000000 		.4byte	.LBE60-.LBB60
 6305 295e 3F       		.uleb128 0x3f
 6306 295f 4D0A0000 		.4byte	.LASF817
 6307 2963 01       		.byte	0x1
 6308 2964 2901     		.2byte	0x129
 6309 2966 C80B0000 		.4byte	0xbc8
 6310 296a 40050000 		.4byte	.LLST37
 6311 296e 3F       		.uleb128 0x3f
 6312 296f 2E170000 		.4byte	.LASF806
 6313 2973 01       		.byte	0x1
 6314 2974 2F01     		.2byte	0x12f
 6315 2976 62170000 		.4byte	0x1762
 6316 297a 53050000 		.4byte	.LLST38
 6317 297e 2E       		.uleb128 0x2e
 6318 297f 52000000 		.4byte	.LVL94
 6319 2983 872E0000 		.4byte	0x2e87
 6320 2987 96290000 		.4byte	0x2996
 6321 298b 2F       		.uleb128 0x2f
 6322 298c 01       		.uleb128 0x1
 6323 298d 50       		.byte	0x50
 6324 298e 01       		.uleb128 0x1
 6325 298f 32       		.byte	0x32
 6326 2990 2F       		.uleb128 0x2f
 6327 2991 01       		.uleb128 0x1
 6328 2992 51       		.byte	0x51
 6329 2993 01       		.uleb128 0x1
 6330 2994 30       		.byte	0x30
 6331 2995 00       		.byte	0
 6332 2996 37       		.uleb128 0x37
 6333 2997 5A000000 		.4byte	.LVL95
 6334 299b 5A2E0000 		.4byte	0x2e5a
 6335 299f 00       		.byte	0
 6336 29a0 00       		.byte	0
 6337 29a1 40       		.uleb128 0x40
 6338 29a2 3E2F0000 		.4byte	.LASF819
 6339 29a6 01       		.byte	0x1
 6340 29a7 3B01     		.2byte	0x13b
ARM GAS  C:\Users\salaz\AppData\Local\Temp\ccnyouLe.s 			page 160


 6341 29a9 320C0000 		.4byte	0xc32
 6342 29ad 00000000 		.4byte	.LFB797
 6343 29b1 24000000 		.4byte	.LFE797-.LFB797
 6344 29b5 01       		.uleb128 0x1
 6345 29b6 9C       		.byte	0x9c
 6346 29b7 DB290000 		.4byte	0x29db
 6347 29bb 41       		.uleb128 0x41
 6348 29bc 240B0000 		.4byte	.LASF820
 6349 29c0 01       		.byte	0x1
 6350 29c1 3D01     		.2byte	0x13d
 6351 29c3 1C1A0000 		.4byte	0x1a1c
 6352 29c7 02       		.uleb128 0x2
 6353 29c8 91       		.byte	0x91
 6354 29c9 74       		.sleb128 -12
 6355 29ca 30       		.uleb128 0x30
 6356 29cb 14000000 		.4byte	.LVL99
 6357 29cf 932E0000 		.4byte	0x2e93
 6358 29d3 2F       		.uleb128 0x2f
 6359 29d4 01       		.uleb128 0x1
 6360 29d5 50       		.byte	0x50
 6361 29d6 02       		.uleb128 0x2
 6362 29d7 91       		.byte	0x91
 6363 29d8 74       		.sleb128 -12
 6364 29d9 00       		.byte	0
 6365 29da 00       		.byte	0
 6366 29db 42       		.uleb128 0x42
 6367 29dc E13C0000 		.4byte	.LASF821
 6368 29e0 01       		.byte	0x1
 6369 29e1 4501     		.2byte	0x145
 6370 29e3 00000000 		.4byte	.LFB798
 6371 29e7 F4000000 		.4byte	.LFE798-.LFB798
 6372 29eb 01       		.uleb128 0x1
 6373 29ec 9C       		.byte	0x9c
 6374 29ed 7A2B0000 		.4byte	0x2b7a
 6375 29f1 43       		.uleb128 0x43
 6376 29f2 A2210000 		.4byte	.LASF822
 6377 29f6 01       		.byte	0x1
 6378 29f7 4501     		.2byte	0x145
 6379 29f9 31230000 		.4byte	0x2331
 6380 29fd 02       		.uleb128 0x2
 6381 29fe 91       		.byte	0x91
 6382 29ff 70       		.sleb128 -16
 6383 2a00 3A       		.uleb128 0x3a
 6384 2a01 800E0000 		.4byte	.LASF809
 6385 2a05 01       		.byte	0x1
 6386 2a06 4B01     		.2byte	0x14b
 6387 2a08 5F280000 		.4byte	0x285f
 6388 2a0c 2C       		.uleb128 0x2c
 6389 2a0d 2A000000 		.4byte	.LBB61
 6390 2a11 A0000000 		.4byte	.LBE61-.LBB61
 6391 2a15 4D2B0000 		.4byte	0x2b4d
 6392 2a19 41       		.uleb128 0x41
 6393 2a1a 51450000 		.4byte	.LASF823
 6394 2a1e 01       		.byte	0x1
 6395 2a1f 5001     		.2byte	0x150
 6396 2a21 7A2B0000 		.4byte	0x2b7a
 6397 2a25 03       		.uleb128 0x3
ARM GAS  C:\Users\salaz\AppData\Local\Temp\ccnyouLe.s 			page 161


 6398 2a26 91       		.byte	0x91
 6399 2a27 907F     		.sleb128 -112
 6400 2a29 41       		.uleb128 0x41
 6401 2a2a 500B0000 		.4byte	.LASF824
 6402 2a2e 01       		.byte	0x1
 6403 2a2f 5101     		.2byte	0x151
 6404 2a31 7A2B0000 		.4byte	0x2b7a
 6405 2a35 03       		.uleb128 0x3
 6406 2a36 91       		.byte	0x91
 6407 2a37 947F     		.sleb128 -108
 6408 2a39 41       		.uleb128 0x41
 6409 2a3a 4F4A0000 		.4byte	.LASF825
 6410 2a3e 01       		.byte	0x1
 6411 2a3f 5201     		.2byte	0x152
 6412 2a41 7A2B0000 		.4byte	0x2b7a
 6413 2a45 03       		.uleb128 0x3
 6414 2a46 91       		.byte	0x91
 6415 2a47 987F     		.sleb128 -104
 6416 2a49 41       		.uleb128 0x41
 6417 2a4a C3030000 		.4byte	.LASF826
 6418 2a4e 01       		.byte	0x1
 6419 2a4f 5401     		.2byte	0x154
 6420 2a51 6E180000 		.4byte	0x186e
 6421 2a55 03       		.uleb128 0x3
 6422 2a56 91       		.byte	0x91
 6423 2a57 9C7F     		.sleb128 -100
 6424 2a59 41       		.uleb128 0x41
 6425 2a5a EE300000 		.4byte	.LASF827
 6426 2a5e 01       		.byte	0x1
 6427 2a5f 5501     		.2byte	0x155
 6428 2a61 6E180000 		.4byte	0x186e
 6429 2a65 03       		.uleb128 0x3
 6430 2a66 91       		.byte	0x91
 6431 2a67 A47F     		.sleb128 -92
 6432 2a69 41       		.uleb128 0x41
 6433 2a6a 1A160000 		.4byte	.LASF828
 6434 2a6e 01       		.byte	0x1
 6435 2a6f 5601     		.2byte	0x156
 6436 2a71 6E180000 		.4byte	0x186e
 6437 2a75 03       		.uleb128 0x3
 6438 2a76 91       		.byte	0x91
 6439 2a77 AC7F     		.sleb128 -84
 6440 2a79 41       		.uleb128 0x41
 6441 2a7a 65280000 		.4byte	.LASF829
 6442 2a7e 01       		.byte	0x1
 6443 2a7f 5801     		.2byte	0x158
 6444 2a81 9E180000 		.4byte	0x189e
 6445 2a85 03       		.uleb128 0x3
 6446 2a86 91       		.byte	0x91
 6447 2a87 B47F     		.sleb128 -76
 6448 2a89 41       		.uleb128 0x41
 6449 2a8a 20020000 		.4byte	.LASF830
 6450 2a8e 01       		.byte	0x1
 6451 2a8f 5E01     		.2byte	0x15e
 6452 2a91 9E180000 		.4byte	0x189e
 6453 2a95 02       		.uleb128 0x2
 6454 2a96 91       		.byte	0x91
ARM GAS  C:\Users\salaz\AppData\Local\Temp\ccnyouLe.s 			page 162


 6455 2a97 40       		.sleb128 -64
 6456 2a98 41       		.uleb128 0x41
 6457 2a99 4A3E0000 		.4byte	.LASF831
 6458 2a9d 01       		.byte	0x1
 6459 2a9e 6401     		.2byte	0x164
 6460 2aa0 9E180000 		.4byte	0x189e
 6461 2aa4 02       		.uleb128 0x2
 6462 2aa5 91       		.byte	0x91
 6463 2aa6 4C       		.sleb128 -52
 6464 2aa7 2E       		.uleb128 0x2e
 6465 2aa8 60000000 		.4byte	.LVL101
 6466 2aac 312E0000 		.4byte	0x2e31
 6467 2ab0 C52A0000 		.4byte	0x2ac5
 6468 2ab4 2F       		.uleb128 0x2f
 6469 2ab5 01       		.uleb128 0x1
 6470 2ab6 50       		.byte	0x50
 6471 2ab7 02       		.uleb128 0x2
 6472 2ab8 76       		.byte	0x76
 6473 2ab9 00       		.sleb128 0
 6474 2aba 2F       		.uleb128 0x2f
 6475 2abb 01       		.uleb128 0x1
 6476 2abc 51       		.byte	0x51
 6477 2abd 01       		.uleb128 0x1
 6478 2abe 30       		.byte	0x30
 6479 2abf 2F       		.uleb128 0x2f
 6480 2ac0 01       		.uleb128 0x1
 6481 2ac1 52       		.byte	0x52
 6482 2ac2 01       		.uleb128 0x1
 6483 2ac3 38       		.byte	0x38
 6484 2ac4 00       		.byte	0
 6485 2ac5 2E       		.uleb128 0x2e
 6486 2ac6 76000000 		.4byte	.LVL102
 6487 2aca 312E0000 		.4byte	0x2e31
 6488 2ace E32A0000 		.4byte	0x2ae3
 6489 2ad2 2F       		.uleb128 0x2f
 6490 2ad3 01       		.uleb128 0x1
 6491 2ad4 50       		.byte	0x50
 6492 2ad5 02       		.uleb128 0x2
 6493 2ad6 75       		.byte	0x75
 6494 2ad7 00       		.sleb128 0
 6495 2ad8 2F       		.uleb128 0x2f
 6496 2ad9 01       		.uleb128 0x1
 6497 2ada 51       		.byte	0x51
 6498 2adb 01       		.uleb128 0x1
 6499 2adc 30       		.byte	0x30
 6500 2add 2F       		.uleb128 0x2f
 6501 2ade 01       		.uleb128 0x1
 6502 2adf 52       		.byte	0x52
 6503 2ae0 01       		.uleb128 0x1
 6504 2ae1 38       		.byte	0x38
 6505 2ae2 00       		.byte	0
 6506 2ae3 2E       		.uleb128 0x2e
 6507 2ae4 88000000 		.4byte	.LVL103
 6508 2ae8 312E0000 		.4byte	0x2e31
 6509 2aec 012B0000 		.4byte	0x2b01
 6510 2af0 2F       		.uleb128 0x2f
 6511 2af1 01       		.uleb128 0x1
ARM GAS  C:\Users\salaz\AppData\Local\Temp\ccnyouLe.s 			page 163


 6512 2af2 50       		.byte	0x50
 6513 2af3 02       		.uleb128 0x2
 6514 2af4 74       		.byte	0x74
 6515 2af5 00       		.sleb128 0
 6516 2af6 2F       		.uleb128 0x2f
 6517 2af7 01       		.uleb128 0x1
 6518 2af8 51       		.byte	0x51
 6519 2af9 01       		.uleb128 0x1
 6520 2afa 30       		.byte	0x30
 6521 2afb 2F       		.uleb128 0x2f
 6522 2afc 01       		.uleb128 0x1
 6523 2afd 52       		.byte	0x52
 6524 2afe 01       		.uleb128 0x1
 6525 2aff 38       		.byte	0x38
 6526 2b00 00       		.byte	0
 6527 2b01 2E       		.uleb128 0x2e
 6528 2b02 BA000000 		.4byte	.LVL104
 6529 2b06 9F2E0000 		.4byte	0x2e9f
 6530 2b0a 1C2B0000 		.4byte	0x2b1c
 6531 2b0e 2F       		.uleb128 0x2f
 6532 2b0f 01       		.uleb128 0x1
 6533 2b10 50       		.byte	0x50
 6534 2b11 02       		.uleb128 0x2
 6535 2b12 74       		.byte	0x74
 6536 2b13 00       		.sleb128 0
 6537 2b14 2F       		.uleb128 0x2f
 6538 2b15 01       		.uleb128 0x1
 6539 2b16 51       		.byte	0x51
 6540 2b17 03       		.uleb128 0x3
 6541 2b18 91       		.byte	0x91
 6542 2b19 947F     		.sleb128 -108
 6543 2b1b 00       		.byte	0
 6544 2b1c 2E       		.uleb128 0x2e
 6545 2b1d C2000000 		.4byte	.LVL105
 6546 2b21 9F2E0000 		.4byte	0x2e9f
 6547 2b25 362B0000 		.4byte	0x2b36
 6548 2b29 2F       		.uleb128 0x2f
 6549 2b2a 01       		.uleb128 0x1
 6550 2b2b 50       		.byte	0x50
 6551 2b2c 02       		.uleb128 0x2
 6552 2b2d 74       		.byte	0x74
 6553 2b2e 00       		.sleb128 0
 6554 2b2f 2F       		.uleb128 0x2f
 6555 2b30 01       		.uleb128 0x1
 6556 2b31 51       		.byte	0x51
 6557 2b32 02       		.uleb128 0x2
 6558 2b33 76       		.byte	0x76
 6559 2b34 00       		.sleb128 0
 6560 2b35 00       		.byte	0
 6561 2b36 30       		.uleb128 0x30
 6562 2b37 CA000000 		.4byte	.LVL106
 6563 2b3b 9F2E0000 		.4byte	0x2e9f
 6564 2b3f 2F       		.uleb128 0x2f
 6565 2b40 01       		.uleb128 0x1
 6566 2b41 50       		.byte	0x50
 6567 2b42 02       		.uleb128 0x2
 6568 2b43 74       		.byte	0x74
ARM GAS  C:\Users\salaz\AppData\Local\Temp\ccnyouLe.s 			page 164


 6569 2b44 00       		.sleb128 0
 6570 2b45 2F       		.uleb128 0x2f
 6571 2b46 01       		.uleb128 0x1
 6572 2b47 51       		.byte	0x51
 6573 2b48 02       		.uleb128 0x2
 6574 2b49 75       		.byte	0x75
 6575 2b4a 00       		.sleb128 0
 6576 2b4b 00       		.byte	0
 6577 2b4c 00       		.byte	0
 6578 2b4d 2C       		.uleb128 0x2c
 6579 2b4e D2000000 		.4byte	.LBB62
 6580 2b52 04000000 		.4byte	.LBE62-.LBB62
 6581 2b56 702B0000 		.4byte	0x2b70
 6582 2b5a 3A       		.uleb128 0x3a
 6583 2b5b 2E170000 		.4byte	.LASF806
 6584 2b5f 01       		.byte	0x1
 6585 2b60 7301     		.2byte	0x173
 6586 2b62 62170000 		.4byte	0x1762
 6587 2b66 37       		.uleb128 0x37
 6588 2b67 D6000000 		.4byte	.LVL107
 6589 2b6b 4E2E0000 		.4byte	0x2e4e
 6590 2b6f 00       		.byte	0
 6591 2b70 37       		.uleb128 0x37
 6592 2b71 16000000 		.4byte	.LVL100
 6593 2b75 5A2E0000 		.4byte	0x2e5a
 6594 2b79 00       		.byte	0
 6595 2b7a 0D       		.uleb128 0xd
 6596 2b7b B00B0000 		.4byte	0xbb0
 6597 2b7f 8A2B0000 		.4byte	0x2b8a
 6598 2b83 0E       		.uleb128 0xe
 6599 2b84 24060000 		.4byte	0x624
 6600 2b88 01       		.byte	0x1
 6601 2b89 00       		.byte	0
 6602 2b8a 44       		.uleb128 0x44
 6603 2b8b 83260000 		.4byte	.LASF833
 6604 2b8f 01       		.byte	0x1
 6605 2b90 7F01     		.2byte	0x17f
 6606 2b92 00000000 		.4byte	.LFB799
 6607 2b96 5C000000 		.4byte	.LFE799-.LFB799
 6608 2b9a 01       		.uleb128 0x1
 6609 2b9b 9C       		.byte	0x9c
 6610 2b9c 522C0000 		.4byte	0x2c52
 6611 2ba0 3F       		.uleb128 0x3f
 6612 2ba1 2E170000 		.4byte	.LASF806
 6613 2ba5 01       		.byte	0x1
 6614 2ba6 8401     		.2byte	0x184
 6615 2ba8 62170000 		.4byte	0x1762
 6616 2bac 66050000 		.4byte	.LLST39
 6617 2bb0 45       		.uleb128 0x45
 6618 2bb1 72230000 		.4byte	0x2372
 6619 2bb5 2C000000 		.4byte	.LBB63
 6620 2bb9 0C000000 		.4byte	.LBE63-.LBB63
 6621 2bbd 01       		.byte	0x1
 6622 2bbe 9101     		.2byte	0x191
 6623 2bc0 CE2B0000 		.4byte	0x2bce
 6624 2bc4 33       		.uleb128 0x33
 6625 2bc5 83230000 		.4byte	0x2383
ARM GAS  C:\Users\salaz\AppData\Local\Temp\ccnyouLe.s 			page 165


 6626 2bc9 79050000 		.4byte	.LLST40
 6627 2bcd 00       		.byte	0
 6628 2bce 45       		.uleb128 0x45
 6629 2bcf 49230000 		.4byte	0x2349
 6630 2bd3 38000000 		.4byte	.LBB65
 6631 2bd7 08000000 		.4byte	.LBE65-.LBB65
 6632 2bdb 01       		.byte	0x1
 6633 2bdc 9101     		.2byte	0x191
 6634 2bde EC2B0000 		.4byte	0x2bec
 6635 2be2 33       		.uleb128 0x33
 6636 2be3 5A230000 		.4byte	0x235a
 6637 2be7 91050000 		.4byte	.LLST41
 6638 2beb 00       		.byte	0
 6639 2bec 37       		.uleb128 0x37
 6640 2bed 06000000 		.4byte	.LVL108
 6641 2bf1 AA2E0000 		.4byte	0x2eaa
 6642 2bf5 37       		.uleb128 0x37
 6643 2bf6 0A000000 		.4byte	.LVL109
 6644 2bfa B52E0000 		.4byte	0x2eb5
 6645 2bfe 2E       		.uleb128 0x2e
 6646 2bff 10000000 		.4byte	.LVL110
 6647 2c03 C02E0000 		.4byte	0x2ec0
 6648 2c07 152C0000 		.4byte	0x2c15
 6649 2c0b 2F       		.uleb128 0x2f
 6650 2c0c 01       		.uleb128 0x1
 6651 2c0d 50       		.byte	0x50
 6652 2c0e 05       		.uleb128 0x5
 6653 2c0f 03       		.byte	0x3
 6654 2c10 00000000 		.4byte	Transmission_EventHandler
 6655 2c14 00       		.byte	0
 6656 2c15 37       		.uleb128 0x37
 6657 2c16 1C000000 		.4byte	.LVL112
 6658 2c1a CB2E0000 		.4byte	0x2ecb
 6659 2c1e 37       		.uleb128 0x37
 6660 2c1f 20000000 		.4byte	.LVL113
 6661 2c23 5A2E0000 		.4byte	0x2e5a
 6662 2c27 2E       		.uleb128 0x2e
 6663 2c28 26000000 		.4byte	.LVL114
 6664 2c2c D62E0000 		.4byte	0x2ed6
 6665 2c30 3E2C0000 		.4byte	0x2c3e
 6666 2c34 2F       		.uleb128 0x2f
 6667 2c35 01       		.uleb128 0x1
 6668 2c36 50       		.byte	0x50
 6669 2c37 05       		.uleb128 0x5
 6670 2c38 03       		.byte	0x3
 6671 2c39 00000000 		.4byte	Transmission_BleSsHandler
 6672 2c3d 00       		.byte	0
 6673 2c3e 30       		.uleb128 0x30
 6674 2c3f 2C000000 		.4byte	.LVL115
 6675 2c43 E22E0000 		.4byte	0x2ee2
 6676 2c47 2F       		.uleb128 0x2f
 6677 2c48 01       		.uleb128 0x1
 6678 2c49 50       		.byte	0x50
 6679 2c4a 05       		.uleb128 0x5
 6680 2c4b 03       		.byte	0x3
 6681 2c4c 44000000 		.4byte	.LC25
 6682 2c50 00       		.byte	0
ARM GAS  C:\Users\salaz\AppData\Local\Temp\ccnyouLe.s 			page 166


 6683 2c51 00       		.byte	0
 6684 2c52 0D       		.uleb128 0xd
 6685 2c53 AE170000 		.4byte	0x17ae
 6686 2c57 622C0000 		.4byte	0x2c62
 6687 2c5b 0E       		.uleb128 0xe
 6688 2c5c 24060000 		.4byte	0x624
 6689 2c60 0B       		.byte	0xb
 6690 2c61 00       		.byte	0
 6691 2c62 46       		.uleb128 0x46
 6692 2c63 C2430000 		.4byte	.LASF834
 6693 2c67 1B       		.byte	0x1b
 6694 2c68 FC02     		.2byte	0x2fc
 6695 2c6a 6E2C0000 		.4byte	0x2c6e
 6696 2c6e 10       		.uleb128 0x10
 6697 2c6f 522C0000 		.4byte	0x2c52
 6698 2c73 46       		.uleb128 0x46
 6699 2c74 7B410000 		.4byte	.LASF835
 6700 2c78 02       		.byte	0x2
 6701 2c79 2202     		.2byte	0x222
 6702 2c7b 3C1D0000 		.4byte	0x1d3c
 6703 2c7f 0D       		.uleb128 0xd
 6704 2c80 15180000 		.4byte	0x1815
 6705 2c84 8F2C0000 		.4byte	0x2c8f
 6706 2c88 0E       		.uleb128 0xe
 6707 2c89 24060000 		.4byte	0x624
 6708 2c8d 00       		.byte	0
 6709 2c8e 00       		.byte	0
 6710 2c8f 46       		.uleb128 0x46
 6711 2c90 93130000 		.4byte	.LASF836
 6712 2c94 02       		.byte	0x2
 6713 2c95 2C02     		.2byte	0x22c
 6714 2c97 7F2C0000 		.4byte	0x2c7f
 6715 2c9b 0D       		.uleb128 0xd
 6716 2c9c 841D0000 		.4byte	0x1d84
 6717 2ca0 AB2C0000 		.4byte	0x2cab
 6718 2ca4 0E       		.uleb128 0xe
 6719 2ca5 24060000 		.4byte	0x624
 6720 2ca9 00       		.byte	0
 6721 2caa 00       		.byte	0
 6722 2cab 46       		.uleb128 0x46
 6723 2cac 843F0000 		.4byte	.LASF837
 6724 2cb0 02       		.byte	0x2
 6725 2cb1 2D02     		.2byte	0x22d
 6726 2cb3 9B2C0000 		.4byte	0x2c9b
 6727 2cb7 46       		.uleb128 0x46
 6728 2cb8 5B0E0000 		.4byte	.LASF838
 6729 2cbc 02       		.byte	0x2
 6730 2cbd 5202     		.2byte	0x252
 6731 2cbf 40050000 		.4byte	0x540
 6732 2cc3 46       		.uleb128 0x46
 6733 2cc4 2F150000 		.4byte	.LASF839
 6734 2cc8 18       		.byte	0x18
 6735 2cc9 7802     		.2byte	0x278
 6736 2ccb 4D220000 		.4byte	0x224d
 6737 2ccf 46       		.uleb128 0x46
 6738 2cd0 D0410000 		.4byte	.LASF840
 6739 2cd4 18       		.byte	0x18
ARM GAS  C:\Users\salaz\AppData\Local\Temp\ccnyouLe.s 			page 167


 6740 2cd5 7902     		.2byte	0x279
 6741 2cd7 DB2C0000 		.4byte	0x2cdb
 6742 2cdb 19       		.uleb128 0x19
 6743 2cdc 04       		.byte	0x4
 6744 2cdd 4D220000 		.4byte	0x224d
 6745 2ce1 47       		.uleb128 0x47
 6746 2ce2 D33A0000 		.4byte	.LASF841
 6747 2ce6 19       		.byte	0x19
 6748 2ce7 DC       		.byte	0xdc
 6749 2ce8 EC2C0000 		.4byte	0x2cec
 6750 2cec 19       		.uleb128 0x19
 6751 2ced 04       		.byte	0x4
 6752 2cee C9220000 		.4byte	0x22c9
 6753 2cf2 0D       		.uleb128 0xd
 6754 2cf3 8A060000 		.4byte	0x68a
 6755 2cf7 022D0000 		.4byte	0x2d02
 6756 2cfb 0E       		.uleb128 0xe
 6757 2cfc 24060000 		.4byte	0x624
 6758 2d00 00       		.byte	0
 6759 2d01 00       		.byte	0
 6760 2d02 46       		.uleb128 0x46
 6761 2d03 BE420000 		.4byte	.LASF842
 6762 2d07 1C       		.byte	0x1c
 6763 2d08 7409     		.2byte	0x974
 6764 2d0a 0E2D0000 		.4byte	0x2d0e
 6765 2d0e 0F       		.uleb128 0xf
 6766 2d0f F22C0000 		.4byte	0x2cf2
 6767 2d13 47       		.uleb128 0x47
 6768 2d14 1F460000 		.4byte	.LASF843
 6769 2d18 1D       		.byte	0x1d
 6770 2d19 31       		.byte	0x31
 6771 2d1a 48220000 		.4byte	0x2248
 6772 2d1e 47       		.uleb128 0x47
 6773 2d1f 2A0E0000 		.4byte	.LASF844
 6774 2d23 1E       		.byte	0x1e
 6775 2d24 86       		.byte	0x86
 6776 2d25 292D0000 		.4byte	0x2d29
 6777 2d29 10       		.uleb128 0x10
 6778 2d2a 34120000 		.4byte	0x1234
 6779 2d2e 47       		.uleb128 0x47
 6780 2d2f D32F0000 		.4byte	.LASF845
 6781 2d33 1E       		.byte	0x1e
 6782 2d34 87       		.byte	0x87
 6783 2d35 04130000 		.4byte	0x1304
 6784 2d39 47       		.uleb128 0x47
 6785 2d3a B0430000 		.4byte	.LASF846
 6786 2d3e 1F       		.byte	0x1f
 6787 2d3f 7F       		.byte	0x7f
 6788 2d40 07100000 		.4byte	0x1007
 6789 2d44 47       		.uleb128 0x47
 6790 2d45 8F170000 		.4byte	.LASF847
 6791 2d49 20       		.byte	0x20
 6792 2d4a 1F       		.byte	0x1f
 6793 2d4b 4F2D0000 		.4byte	0x2d4f
 6794 2d4f 10       		.uleb128 0x10
 6795 2d50 6E0E0000 		.4byte	0xe6e
 6796 2d54 47       		.uleb128 0x47
ARM GAS  C:\Users\salaz\AppData\Local\Temp\ccnyouLe.s 			page 168


 6797 2d55 BB280000 		.4byte	.LASF848
 6798 2d59 21       		.byte	0x21
 6799 2d5a 1F       		.byte	0x1f
 6800 2d5b 4F2D0000 		.4byte	0x2d4f
 6801 2d5f 47       		.uleb128 0x47
 6802 2d60 0C0F0000 		.4byte	.LASF849
 6803 2d64 22       		.byte	0x22
 6804 2d65 1F       		.byte	0x1f
 6805 2d66 6A2D0000 		.4byte	0x2d6a
 6806 2d6a 10       		.uleb128 0x10
 6807 2d6b 2A0D0000 		.4byte	0xd2a
 6808 2d6f 47       		.uleb128 0x47
 6809 2d70 89220000 		.4byte	.LASF850
 6810 2d74 23       		.byte	0x23
 6811 2d75 1F       		.byte	0x1f
 6812 2d76 4F2D0000 		.4byte	0x2d4f
 6813 2d7a 47       		.uleb128 0x47
 6814 2d7b 80130000 		.4byte	.LASF851
 6815 2d7f 24       		.byte	0x24
 6816 2d80 1F       		.byte	0x1f
 6817 2d81 4F2D0000 		.4byte	0x2d4f
 6818 2d85 47       		.uleb128 0x47
 6819 2d86 D3350000 		.4byte	.LASF852
 6820 2d8a 25       		.byte	0x25
 6821 2d8b 1F       		.byte	0x1f
 6822 2d8c 6A2D0000 		.4byte	0x2d6a
 6823 2d90 47       		.uleb128 0x47
 6824 2d91 8B080000 		.4byte	.LASF853
 6825 2d95 26       		.byte	0x26
 6826 2d96 1F       		.byte	0x1f
 6827 2d97 4F2D0000 		.4byte	0x2d4f
 6828 2d9b 47       		.uleb128 0x47
 6829 2d9c AD150000 		.4byte	.LASF854
 6830 2da0 27       		.byte	0x27
 6831 2da1 1F       		.byte	0x1f
 6832 2da2 6A2D0000 		.4byte	0x2d6a
 6833 2da6 48       		.uleb128 0x48
 6834 2da7 933A0000 		.4byte	.LASF855
 6835 2dab 01       		.byte	0x1
 6836 2dac 0F       		.byte	0xf
 6837 2dad 320C0000 		.4byte	0xc32
 6838 2db1 05       		.uleb128 0x5
 6839 2db2 03       		.byte	0x3
 6840 2db3 00000000 		.4byte	is_advertising
 6841 2db7 48       		.uleb128 0x48
 6842 2db8 7E010000 		.4byte	.LASF856
 6843 2dbc 01       		.byte	0x1
 6844 2dbd 10       		.byte	0x10
 6845 2dbe 320C0000 		.4byte	0xc32
 6846 2dc2 05       		.uleb128 0x5
 6847 2dc3 03       		.byte	0x3
 6848 2dc4 00000000 		.4byte	is_connected
 6849 2dc8 49       		.uleb128 0x49
 6850 2dc9 7C2B0000 		.4byte	.LASF857
 6851 2dcd 7C2B0000 		.4byte	.LASF857
 6852 2dd1 12       		.byte	0x12
 6853 2dd2 2F04     		.2byte	0x42f
ARM GAS  C:\Users\salaz\AppData\Local\Temp\ccnyouLe.s 			page 169


 6854 2dd4 4A       		.uleb128 0x4a
 6855 2dd5 A80B0000 		.4byte	.LASF858
 6856 2dd9 A80B0000 		.4byte	.LASF858
 6857 2ddd 17       		.byte	0x17
 6858 2dde B2       		.byte	0xb2
 6859 2ddf 49       		.uleb128 0x49
 6860 2de0 0D020000 		.4byte	.LASF859
 6861 2de4 0D020000 		.4byte	.LASF859
 6862 2de8 12       		.byte	0x12
 6863 2de9 7905     		.2byte	0x579
 6864 2deb 49       		.uleb128 0x49
 6865 2dec 00000000 		.4byte	.LASF860
 6866 2df0 00000000 		.4byte	.LASF860
 6867 2df4 12       		.byte	0x12
 6868 2df5 EE06     		.2byte	0x6ee
 6869 2df7 4A       		.uleb128 0x4a
 6870 2df8 A3470000 		.4byte	.LASF861
 6871 2dfc A3470000 		.4byte	.LASF861
 6872 2e00 28       		.byte	0x28
 6873 2e01 10       		.byte	0x10
 6874 2e02 49       		.uleb128 0x49
 6875 2e03 CE010000 		.4byte	.LASF862
 6876 2e07 CE010000 		.4byte	.LASF862
 6877 2e0b 15       		.byte	0x15
 6878 2e0c 5F01     		.2byte	0x15f
 6879 2e0e 49       		.uleb128 0x49
 6880 2e0f FE3D0000 		.4byte	.LASF863
 6881 2e13 FE3D0000 		.4byte	.LASF863
 6882 2e17 14       		.byte	0x14
 6883 2e18 8201     		.2byte	0x182
 6884 2e1a 49       		.uleb128 0x49
 6885 2e1b 040A0000 		.4byte	.LASF864
 6886 2e1f 040A0000 		.4byte	.LASF864
 6887 2e23 12       		.byte	0x12
 6888 2e24 2507     		.2byte	0x725
 6889 2e26 4A       		.uleb128 0x4a
 6890 2e27 851B0000 		.4byte	.LASF865
 6891 2e2b 851B0000 		.4byte	.LASF865
 6892 2e2f 29       		.byte	0x29
 6893 2e30 BB       		.byte	0xbb
 6894 2e31 4B       		.uleb128 0x4b
 6895 2e32 56150000 		.4byte	.LASF866
 6896 2e36 56150000 		.4byte	.LASF866
 6897 2e3a 4B       		.uleb128 0x4b
 6898 2e3b 74410000 		.4byte	.LASF867
 6899 2e3f 74410000 		.4byte	.LASF867
 6900 2e43 4A       		.uleb128 0x4a
 6901 2e44 E3280000 		.4byte	.LASF868
 6902 2e48 E3280000 		.4byte	.LASF868
 6903 2e4c 15       		.byte	0x15
 6904 2e4d BA       		.byte	0xba
 6905 2e4e 49       		.uleb128 0x49
 6906 2e4f CB0C0000 		.4byte	.LASF869
 6907 2e53 CB0C0000 		.4byte	.LASF869
 6908 2e57 02       		.byte	0x2
 6909 2e58 E601     		.2byte	0x1e6
 6910 2e5a 49       		.uleb128 0x49
ARM GAS  C:\Users\salaz\AppData\Local\Temp\ccnyouLe.s 			page 170


 6911 2e5b 6B230000 		.4byte	.LASF870
 6912 2e5f 6B230000 		.4byte	.LASF870
 6913 2e63 0F       		.byte	0xf
 6914 2e64 B107     		.2byte	0x7b1
 6915 2e66 4A       		.uleb128 0x4a
 6916 2e67 5B440000 		.4byte	.LASF871
 6917 2e6b 5B440000 		.4byte	.LASF871
 6918 2e6f 2A       		.byte	0x2a
 6919 2e70 11       		.byte	0x11
 6920 2e71 4A       		.uleb128 0x4a
 6921 2e72 C3340000 		.4byte	.LASF872
 6922 2e76 C3340000 		.4byte	.LASF872
 6923 2e7a 28       		.byte	0x28
 6924 2e7b 11       		.byte	0x11
 6925 2e7c 4A       		.uleb128 0x4a
 6926 2e7d D6210000 		.4byte	.LASF873
 6927 2e81 D6210000 		.4byte	.LASF873
 6928 2e85 2A       		.byte	0x2a
 6929 2e86 10       		.byte	0x10
 6930 2e87 49       		.uleb128 0x49
 6931 2e88 07250000 		.4byte	.LASF874
 6932 2e8c 07250000 		.4byte	.LASF874
 6933 2e90 02       		.byte	0x2
 6934 2e91 F901     		.2byte	0x1f9
 6935 2e93 49       		.uleb128 0x49
 6936 2e94 B2390000 		.4byte	.LASF875
 6937 2e98 B2390000 		.4byte	.LASF875
 6938 2e9c 12       		.byte	0x12
 6939 2e9d 5704     		.2byte	0x457
 6940 2e9f 4A       		.uleb128 0x4a
 6941 2ea0 0B480000 		.4byte	.LASF876
 6942 2ea4 0B480000 		.4byte	.LASF876
 6943 2ea8 17       		.byte	0x17
 6944 2ea9 DB       		.byte	0xdb
 6945 2eaa 4A       		.uleb128 0x4a
 6946 2eab A9040000 		.4byte	.LASF877
 6947 2eaf A9040000 		.4byte	.LASF877
 6948 2eb3 2A       		.byte	0x2a
 6949 2eb4 0E       		.byte	0xe
 6950 2eb5 4A       		.uleb128 0x4a
 6951 2eb6 29430000 		.4byte	.LASF878
 6952 2eba 29430000 		.4byte	.LASF878
 6953 2ebe 28       		.byte	0x28
 6954 2ebf 0E       		.byte	0xe
 6955 2ec0 4A       		.uleb128 0x4a
 6956 2ec1 4B480000 		.4byte	.LASF879
 6957 2ec5 4B480000 		.4byte	.LASF879
 6958 2ec9 2B       		.byte	0x2b
 6959 2eca 24       		.byte	0x24
 6960 2ecb 4A       		.uleb128 0x4a
 6961 2ecc FC030000 		.4byte	.LASF880
 6962 2ed0 FC030000 		.4byte	.LASF880
 6963 2ed4 19       		.byte	0x19
 6964 2ed5 8C       		.byte	0x8c
 6965 2ed6 49       		.uleb128 0x49
 6966 2ed7 15450000 		.4byte	.LASF881
 6967 2edb 15450000 		.4byte	.LASF881
ARM GAS  C:\Users\salaz\AppData\Local\Temp\ccnyouLe.s 			page 171


 6968 2edf 18       		.byte	0x18
 6969 2ee0 6602     		.2byte	0x266
 6970 2ee2 4C       		.uleb128 0x4c
 6971 2ee3 04060000 		.4byte	.LASF887
 6972 2ee7 F9260000 		.4byte	.LASF888
 6973 2eeb 2C       		.byte	0x2c
 6974 2eec 00       		.byte	0
 6975 2eed 04060000 		.4byte	.LASF887
 6976 2ef1 00       		.byte	0
 6977              		.section	.debug_abbrev,"",%progbits
 6978              	.Ldebug_abbrev0:
 6979 0000 01       		.uleb128 0x1
 6980 0001 11       		.uleb128 0x11
 6981 0002 01       		.byte	0x1
 6982 0003 25       		.uleb128 0x25
 6983 0004 0E       		.uleb128 0xe
 6984 0005 13       		.uleb128 0x13
 6985 0006 0B       		.uleb128 0xb
 6986 0007 03       		.uleb128 0x3
 6987 0008 0E       		.uleb128 0xe
 6988 0009 1B       		.uleb128 0x1b
 6989 000a 0E       		.uleb128 0xe
 6990 000b 55       		.uleb128 0x55
 6991 000c 17       		.uleb128 0x17
 6992 000d 11       		.uleb128 0x11
 6993 000e 01       		.uleb128 0x1
 6994 000f 10       		.uleb128 0x10
 6995 0010 17       		.uleb128 0x17
 6996 0011 00       		.byte	0
 6997 0012 00       		.byte	0
 6998 0013 02       		.uleb128 0x2
 6999 0014 24       		.uleb128 0x24
 7000 0015 00       		.byte	0
 7001 0016 0B       		.uleb128 0xb
 7002 0017 0B       		.uleb128 0xb
 7003 0018 3E       		.uleb128 0x3e
 7004 0019 0B       		.uleb128 0xb
 7005 001a 03       		.uleb128 0x3
 7006 001b 0E       		.uleb128 0xe
 7007 001c 00       		.byte	0
 7008 001d 00       		.byte	0
 7009 001e 03       		.uleb128 0x3
 7010 001f 04       		.uleb128 0x4
 7011 0020 01       		.byte	0x1
 7012 0021 0B       		.uleb128 0xb
 7013 0022 0B       		.uleb128 0xb
 7014 0023 49       		.uleb128 0x49
 7015 0024 13       		.uleb128 0x13
 7016 0025 3A       		.uleb128 0x3a
 7017 0026 0B       		.uleb128 0xb
 7018 0027 3B       		.uleb128 0x3b
 7019 0028 0B       		.uleb128 0xb
 7020 0029 01       		.uleb128 0x1
 7021 002a 13       		.uleb128 0x13
 7022 002b 00       		.byte	0
 7023 002c 00       		.byte	0
 7024 002d 04       		.uleb128 0x4
ARM GAS  C:\Users\salaz\AppData\Local\Temp\ccnyouLe.s 			page 172


 7025 002e 28       		.uleb128 0x28
 7026 002f 00       		.byte	0
 7027 0030 03       		.uleb128 0x3
 7028 0031 0E       		.uleb128 0xe
 7029 0032 1C       		.uleb128 0x1c
 7030 0033 0D       		.uleb128 0xd
 7031 0034 00       		.byte	0
 7032 0035 00       		.byte	0
 7033 0036 05       		.uleb128 0x5
 7034 0037 28       		.uleb128 0x28
 7035 0038 00       		.byte	0
 7036 0039 03       		.uleb128 0x3
 7037 003a 0E       		.uleb128 0xe
 7038 003b 1C       		.uleb128 0x1c
 7039 003c 0B       		.uleb128 0xb
 7040 003d 00       		.byte	0
 7041 003e 00       		.byte	0
 7042 003f 06       		.uleb128 0x6
 7043 0040 16       		.uleb128 0x16
 7044 0041 00       		.byte	0
 7045 0042 03       		.uleb128 0x3
 7046 0043 0E       		.uleb128 0xe
 7047 0044 3A       		.uleb128 0x3a
 7048 0045 0B       		.uleb128 0xb
 7049 0046 3B       		.uleb128 0x3b
 7050 0047 0B       		.uleb128 0xb
 7051 0048 49       		.uleb128 0x49
 7052 0049 13       		.uleb128 0x13
 7053 004a 00       		.byte	0
 7054 004b 00       		.byte	0
 7055 004c 07       		.uleb128 0x7
 7056 004d 16       		.uleb128 0x16
 7057 004e 00       		.byte	0
 7058 004f 03       		.uleb128 0x3
 7059 0050 0E       		.uleb128 0xe
 7060 0051 3A       		.uleb128 0x3a
 7061 0052 0B       		.uleb128 0xb
 7062 0053 3B       		.uleb128 0x3b
 7063 0054 05       		.uleb128 0x5
 7064 0055 49       		.uleb128 0x49
 7065 0056 13       		.uleb128 0x13
 7066 0057 00       		.byte	0
 7067 0058 00       		.byte	0
 7068 0059 08       		.uleb128 0x8
 7069 005a 24       		.uleb128 0x24
 7070 005b 00       		.byte	0
 7071 005c 0B       		.uleb128 0xb
 7072 005d 0B       		.uleb128 0xb
 7073 005e 3E       		.uleb128 0x3e
 7074 005f 0B       		.uleb128 0xb
 7075 0060 03       		.uleb128 0x3
 7076 0061 08       		.uleb128 0x8
 7077 0062 00       		.byte	0
 7078 0063 00       		.byte	0
 7079 0064 09       		.uleb128 0x9
 7080 0065 13       		.uleb128 0x13
 7081 0066 01       		.byte	0x1
ARM GAS  C:\Users\salaz\AppData\Local\Temp\ccnyouLe.s 			page 173


 7082 0067 0B       		.uleb128 0xb
 7083 0068 05       		.uleb128 0x5
 7084 0069 3A       		.uleb128 0x3a
 7085 006a 0B       		.uleb128 0xb
 7086 006b 3B       		.uleb128 0x3b
 7087 006c 05       		.uleb128 0x5
 7088 006d 01       		.uleb128 0x1
 7089 006e 13       		.uleb128 0x13
 7090 006f 00       		.byte	0
 7091 0070 00       		.byte	0
 7092 0071 0A       		.uleb128 0xa
 7093 0072 0D       		.uleb128 0xd
 7094 0073 00       		.byte	0
 7095 0074 03       		.uleb128 0x3
 7096 0075 0E       		.uleb128 0xe
 7097 0076 3A       		.uleb128 0x3a
 7098 0077 0B       		.uleb128 0xb
 7099 0078 3B       		.uleb128 0x3b
 7100 0079 05       		.uleb128 0x5
 7101 007a 49       		.uleb128 0x49
 7102 007b 13       		.uleb128 0x13
 7103 007c 38       		.uleb128 0x38
 7104 007d 0B       		.uleb128 0xb
 7105 007e 00       		.byte	0
 7106 007f 00       		.byte	0
 7107 0080 0B       		.uleb128 0xb
 7108 0081 0D       		.uleb128 0xd
 7109 0082 00       		.byte	0
 7110 0083 03       		.uleb128 0x3
 7111 0084 0E       		.uleb128 0xe
 7112 0085 3A       		.uleb128 0x3a
 7113 0086 0B       		.uleb128 0xb
 7114 0087 3B       		.uleb128 0x3b
 7115 0088 05       		.uleb128 0x5
 7116 0089 49       		.uleb128 0x49
 7117 008a 13       		.uleb128 0x13
 7118 008b 38       		.uleb128 0x38
 7119 008c 05       		.uleb128 0x5
 7120 008d 00       		.byte	0
 7121 008e 00       		.byte	0
 7122 008f 0C       		.uleb128 0xc
 7123 0090 0D       		.uleb128 0xd
 7124 0091 00       		.byte	0
 7125 0092 03       		.uleb128 0x3
 7126 0093 08       		.uleb128 0x8
 7127 0094 3A       		.uleb128 0x3a
 7128 0095 0B       		.uleb128 0xb
 7129 0096 3B       		.uleb128 0x3b
 7130 0097 05       		.uleb128 0x5
 7131 0098 49       		.uleb128 0x49
 7132 0099 13       		.uleb128 0x13
 7133 009a 38       		.uleb128 0x38
 7134 009b 05       		.uleb128 0x5
 7135 009c 00       		.byte	0
 7136 009d 00       		.byte	0
 7137 009e 0D       		.uleb128 0xd
 7138 009f 01       		.uleb128 0x1
ARM GAS  C:\Users\salaz\AppData\Local\Temp\ccnyouLe.s 			page 174


 7139 00a0 01       		.byte	0x1
 7140 00a1 49       		.uleb128 0x49
 7141 00a2 13       		.uleb128 0x13
 7142 00a3 01       		.uleb128 0x1
 7143 00a4 13       		.uleb128 0x13
 7144 00a5 00       		.byte	0
 7145 00a6 00       		.byte	0
 7146 00a7 0E       		.uleb128 0xe
 7147 00a8 21       		.uleb128 0x21
 7148 00a9 00       		.byte	0
 7149 00aa 49       		.uleb128 0x49
 7150 00ab 13       		.uleb128 0x13
 7151 00ac 2F       		.uleb128 0x2f
 7152 00ad 0B       		.uleb128 0xb
 7153 00ae 00       		.byte	0
 7154 00af 00       		.byte	0
 7155 00b0 0F       		.uleb128 0xf
 7156 00b1 35       		.uleb128 0x35
 7157 00b2 00       		.byte	0
 7158 00b3 49       		.uleb128 0x49
 7159 00b4 13       		.uleb128 0x13
 7160 00b5 00       		.byte	0
 7161 00b6 00       		.byte	0
 7162 00b7 10       		.uleb128 0x10
 7163 00b8 26       		.uleb128 0x26
 7164 00b9 00       		.byte	0
 7165 00ba 49       		.uleb128 0x49
 7166 00bb 13       		.uleb128 0x13
 7167 00bc 00       		.byte	0
 7168 00bd 00       		.byte	0
 7169 00be 11       		.uleb128 0x11
 7170 00bf 13       		.uleb128 0x13
 7171 00c0 01       		.byte	0x1
 7172 00c1 0B       		.uleb128 0xb
 7173 00c2 05       		.uleb128 0x5
 7174 00c3 3A       		.uleb128 0x3a
 7175 00c4 0B       		.uleb128 0xb
 7176 00c5 3B       		.uleb128 0x3b
 7177 00c6 0B       		.uleb128 0xb
 7178 00c7 01       		.uleb128 0x1
 7179 00c8 13       		.uleb128 0x13
 7180 00c9 00       		.byte	0
 7181 00ca 00       		.byte	0
 7182 00cb 12       		.uleb128 0x12
 7183 00cc 0D       		.uleb128 0xd
 7184 00cd 00       		.byte	0
 7185 00ce 03       		.uleb128 0x3
 7186 00cf 0E       		.uleb128 0xe
 7187 00d0 3A       		.uleb128 0x3a
 7188 00d1 0B       		.uleb128 0xb
 7189 00d2 3B       		.uleb128 0x3b
 7190 00d3 0B       		.uleb128 0xb
 7191 00d4 49       		.uleb128 0x49
 7192 00d5 13       		.uleb128 0x13
 7193 00d6 38       		.uleb128 0x38
 7194 00d7 0B       		.uleb128 0xb
 7195 00d8 00       		.byte	0
ARM GAS  C:\Users\salaz\AppData\Local\Temp\ccnyouLe.s 			page 175


 7196 00d9 00       		.byte	0
 7197 00da 13       		.uleb128 0x13
 7198 00db 0D       		.uleb128 0xd
 7199 00dc 00       		.byte	0
 7200 00dd 03       		.uleb128 0x3
 7201 00de 0E       		.uleb128 0xe
 7202 00df 3A       		.uleb128 0x3a
 7203 00e0 0B       		.uleb128 0xb
 7204 00e1 3B       		.uleb128 0x3b
 7205 00e2 0B       		.uleb128 0xb
 7206 00e3 49       		.uleb128 0x49
 7207 00e4 13       		.uleb128 0x13
 7208 00e5 38       		.uleb128 0x38
 7209 00e6 05       		.uleb128 0x5
 7210 00e7 00       		.byte	0
 7211 00e8 00       		.byte	0
 7212 00e9 14       		.uleb128 0x14
 7213 00ea 21       		.uleb128 0x21
 7214 00eb 00       		.byte	0
 7215 00ec 49       		.uleb128 0x49
 7216 00ed 13       		.uleb128 0x13
 7217 00ee 2F       		.uleb128 0x2f
 7218 00ef 05       		.uleb128 0x5
 7219 00f0 00       		.byte	0
 7220 00f1 00       		.byte	0
 7221 00f2 15       		.uleb128 0x15
 7222 00f3 13       		.uleb128 0x13
 7223 00f4 01       		.byte	0x1
 7224 00f5 0B       		.uleb128 0xb
 7225 00f6 0B       		.uleb128 0xb
 7226 00f7 3A       		.uleb128 0x3a
 7227 00f8 0B       		.uleb128 0xb
 7228 00f9 3B       		.uleb128 0x3b
 7229 00fa 0B       		.uleb128 0xb
 7230 00fb 01       		.uleb128 0x1
 7231 00fc 13       		.uleb128 0x13
 7232 00fd 00       		.byte	0
 7233 00fe 00       		.byte	0
 7234 00ff 16       		.uleb128 0x16
 7235 0100 0F       		.uleb128 0xf
 7236 0101 00       		.byte	0
 7237 0102 0B       		.uleb128 0xb
 7238 0103 0B       		.uleb128 0xb
 7239 0104 00       		.byte	0
 7240 0105 00       		.byte	0
 7241 0106 17       		.uleb128 0x17
 7242 0107 13       		.uleb128 0x13
 7243 0108 01       		.byte	0x1
 7244 0109 03       		.uleb128 0x3
 7245 010a 0E       		.uleb128 0xe
 7246 010b 0B       		.uleb128 0xb
 7247 010c 0B       		.uleb128 0xb
 7248 010d 3A       		.uleb128 0x3a
 7249 010e 0B       		.uleb128 0xb
 7250 010f 3B       		.uleb128 0x3b
 7251 0110 0B       		.uleb128 0xb
 7252 0111 01       		.uleb128 0x1
ARM GAS  C:\Users\salaz\AppData\Local\Temp\ccnyouLe.s 			page 176


 7253 0112 13       		.uleb128 0x13
 7254 0113 00       		.byte	0
 7255 0114 00       		.byte	0
 7256 0115 18       		.uleb128 0x18
 7257 0116 04       		.uleb128 0x4
 7258 0117 01       		.byte	0x1
 7259 0118 0B       		.uleb128 0xb
 7260 0119 0B       		.uleb128 0xb
 7261 011a 49       		.uleb128 0x49
 7262 011b 13       		.uleb128 0x13
 7263 011c 3A       		.uleb128 0x3a
 7264 011d 0B       		.uleb128 0xb
 7265 011e 3B       		.uleb128 0x3b
 7266 011f 05       		.uleb128 0x5
 7267 0120 01       		.uleb128 0x1
 7268 0121 13       		.uleb128 0x13
 7269 0122 00       		.byte	0
 7270 0123 00       		.byte	0
 7271 0124 19       		.uleb128 0x19
 7272 0125 0F       		.uleb128 0xf
 7273 0126 00       		.byte	0
 7274 0127 0B       		.uleb128 0xb
 7275 0128 0B       		.uleb128 0xb
 7276 0129 49       		.uleb128 0x49
 7277 012a 13       		.uleb128 0x13
 7278 012b 00       		.byte	0
 7279 012c 00       		.byte	0
 7280 012d 1A       		.uleb128 0x1a
 7281 012e 15       		.uleb128 0x15
 7282 012f 01       		.byte	0x1
 7283 0130 27       		.uleb128 0x27
 7284 0131 19       		.uleb128 0x19
 7285 0132 01       		.uleb128 0x1
 7286 0133 13       		.uleb128 0x13
 7287 0134 00       		.byte	0
 7288 0135 00       		.byte	0
 7289 0136 1B       		.uleb128 0x1b
 7290 0137 05       		.uleb128 0x5
 7291 0138 00       		.byte	0
 7292 0139 49       		.uleb128 0x49
 7293 013a 13       		.uleb128 0x13
 7294 013b 00       		.byte	0
 7295 013c 00       		.byte	0
 7296 013d 1C       		.uleb128 0x1c
 7297 013e 15       		.uleb128 0x15
 7298 013f 01       		.byte	0x1
 7299 0140 27       		.uleb128 0x27
 7300 0141 19       		.uleb128 0x19
 7301 0142 49       		.uleb128 0x49
 7302 0143 13       		.uleb128 0x13
 7303 0144 01       		.uleb128 0x1
 7304 0145 13       		.uleb128 0x13
 7305 0146 00       		.byte	0
 7306 0147 00       		.byte	0
 7307 0148 1D       		.uleb128 0x1d
 7308 0149 13       		.uleb128 0x13
 7309 014a 01       		.byte	0x1
ARM GAS  C:\Users\salaz\AppData\Local\Temp\ccnyouLe.s 			page 177


 7310 014b 03       		.uleb128 0x3
 7311 014c 0E       		.uleb128 0xe
 7312 014d 0B       		.uleb128 0xb
 7313 014e 0B       		.uleb128 0xb
 7314 014f 3A       		.uleb128 0x3a
 7315 0150 0B       		.uleb128 0xb
 7316 0151 3B       		.uleb128 0x3b
 7317 0152 05       		.uleb128 0x5
 7318 0153 01       		.uleb128 0x1
 7319 0154 13       		.uleb128 0x13
 7320 0155 00       		.byte	0
 7321 0156 00       		.byte	0
 7322 0157 1E       		.uleb128 0x1e
 7323 0158 28       		.uleb128 0x28
 7324 0159 00       		.byte	0
 7325 015a 03       		.uleb128 0x3
 7326 015b 0E       		.uleb128 0xe
 7327 015c 1C       		.uleb128 0x1c
 7328 015d 05       		.uleb128 0x5
 7329 015e 00       		.byte	0
 7330 015f 00       		.byte	0
 7331 0160 1F       		.uleb128 0x1f
 7332 0161 28       		.uleb128 0x28
 7333 0162 00       		.byte	0
 7334 0163 03       		.uleb128 0x3
 7335 0164 0E       		.uleb128 0xe
 7336 0165 1C       		.uleb128 0x1c
 7337 0166 06       		.uleb128 0x6
 7338 0167 00       		.byte	0
 7339 0168 00       		.byte	0
 7340 0169 20       		.uleb128 0x20
 7341 016a 13       		.uleb128 0x13
 7342 016b 01       		.byte	0x1
 7343 016c 0B       		.uleb128 0xb
 7344 016d 0B       		.uleb128 0xb
 7345 016e 3A       		.uleb128 0x3a
 7346 016f 0B       		.uleb128 0xb
 7347 0170 3B       		.uleb128 0x3b
 7348 0171 05       		.uleb128 0x5
 7349 0172 01       		.uleb128 0x1
 7350 0173 13       		.uleb128 0x13
 7351 0174 00       		.byte	0
 7352 0175 00       		.byte	0
 7353 0176 21       		.uleb128 0x21
 7354 0177 0D       		.uleb128 0xd
 7355 0178 00       		.byte	0
 7356 0179 03       		.uleb128 0x3
 7357 017a 08       		.uleb128 0x8
 7358 017b 3A       		.uleb128 0x3a
 7359 017c 0B       		.uleb128 0xb
 7360 017d 3B       		.uleb128 0x3b
 7361 017e 05       		.uleb128 0x5
 7362 017f 49       		.uleb128 0x49
 7363 0180 13       		.uleb128 0x13
 7364 0181 38       		.uleb128 0x38
 7365 0182 0B       		.uleb128 0xb
 7366 0183 00       		.byte	0
ARM GAS  C:\Users\salaz\AppData\Local\Temp\ccnyouLe.s 			page 178


 7367 0184 00       		.byte	0
 7368 0185 22       		.uleb128 0x22
 7369 0186 17       		.uleb128 0x17
 7370 0187 01       		.byte	0x1
 7371 0188 0B       		.uleb128 0xb
 7372 0189 0B       		.uleb128 0xb
 7373 018a 3A       		.uleb128 0x3a
 7374 018b 0B       		.uleb128 0xb
 7375 018c 3B       		.uleb128 0x3b
 7376 018d 0B       		.uleb128 0xb
 7377 018e 01       		.uleb128 0x1
 7378 018f 13       		.uleb128 0x13
 7379 0190 00       		.byte	0
 7380 0191 00       		.byte	0
 7381 0192 23       		.uleb128 0x23
 7382 0193 0D       		.uleb128 0xd
 7383 0194 00       		.byte	0
 7384 0195 03       		.uleb128 0x3
 7385 0196 0E       		.uleb128 0xe
 7386 0197 3A       		.uleb128 0x3a
 7387 0198 0B       		.uleb128 0xb
 7388 0199 3B       		.uleb128 0x3b
 7389 019a 0B       		.uleb128 0xb
 7390 019b 49       		.uleb128 0x49
 7391 019c 13       		.uleb128 0x13
 7392 019d 00       		.byte	0
 7393 019e 00       		.byte	0
 7394 019f 24       		.uleb128 0x24
 7395 01a0 2E       		.uleb128 0x2e
 7396 01a1 00       		.byte	0
 7397 01a2 03       		.uleb128 0x3
 7398 01a3 0E       		.uleb128 0xe
 7399 01a4 3A       		.uleb128 0x3a
 7400 01a5 0B       		.uleb128 0xb
 7401 01a6 3B       		.uleb128 0x3b
 7402 01a7 05       		.uleb128 0x5
 7403 01a8 27       		.uleb128 0x27
 7404 01a9 19       		.uleb128 0x19
 7405 01aa 49       		.uleb128 0x49
 7406 01ab 13       		.uleb128 0x13
 7407 01ac 20       		.uleb128 0x20
 7408 01ad 0B       		.uleb128 0xb
 7409 01ae 00       		.byte	0
 7410 01af 00       		.byte	0
 7411 01b0 25       		.uleb128 0x25
 7412 01b1 2E       		.uleb128 0x2e
 7413 01b2 01       		.byte	0x1
 7414 01b3 03       		.uleb128 0x3
 7415 01b4 0E       		.uleb128 0xe
 7416 01b5 3A       		.uleb128 0x3a
 7417 01b6 0B       		.uleb128 0xb
 7418 01b7 3B       		.uleb128 0x3b
 7419 01b8 05       		.uleb128 0x5
 7420 01b9 27       		.uleb128 0x27
 7421 01ba 19       		.uleb128 0x19
 7422 01bb 49       		.uleb128 0x49
 7423 01bc 13       		.uleb128 0x13
ARM GAS  C:\Users\salaz\AppData\Local\Temp\ccnyouLe.s 			page 179


 7424 01bd 20       		.uleb128 0x20
 7425 01be 0B       		.uleb128 0xb
 7426 01bf 01       		.uleb128 0x1
 7427 01c0 13       		.uleb128 0x13
 7428 01c1 00       		.byte	0
 7429 01c2 00       		.byte	0
 7430 01c3 26       		.uleb128 0x26
 7431 01c4 05       		.uleb128 0x5
 7432 01c5 00       		.byte	0
 7433 01c6 03       		.uleb128 0x3
 7434 01c7 0E       		.uleb128 0xe
 7435 01c8 3A       		.uleb128 0x3a
 7436 01c9 0B       		.uleb128 0xb
 7437 01ca 3B       		.uleb128 0x3b
 7438 01cb 05       		.uleb128 0x5
 7439 01cc 49       		.uleb128 0x49
 7440 01cd 13       		.uleb128 0x13
 7441 01ce 00       		.byte	0
 7442 01cf 00       		.byte	0
 7443 01d0 27       		.uleb128 0x27
 7444 01d1 2E       		.uleb128 0x2e
 7445 01d2 01       		.byte	0x1
 7446 01d3 03       		.uleb128 0x3
 7447 01d4 0E       		.uleb128 0xe
 7448 01d5 3A       		.uleb128 0x3a
 7449 01d6 0B       		.uleb128 0xb
 7450 01d7 3B       		.uleb128 0x3b
 7451 01d8 05       		.uleb128 0x5
 7452 01d9 27       		.uleb128 0x27
 7453 01da 19       		.uleb128 0x19
 7454 01db 20       		.uleb128 0x20
 7455 01dc 0B       		.uleb128 0xb
 7456 01dd 01       		.uleb128 0x1
 7457 01de 13       		.uleb128 0x13
 7458 01df 00       		.byte	0
 7459 01e0 00       		.byte	0
 7460 01e1 28       		.uleb128 0x28
 7461 01e2 2E       		.uleb128 0x2e
 7462 01e3 01       		.byte	0x1
 7463 01e4 3F       		.uleb128 0x3f
 7464 01e5 19       		.uleb128 0x19
 7465 01e6 03       		.uleb128 0x3
 7466 01e7 0E       		.uleb128 0xe
 7467 01e8 3A       		.uleb128 0x3a
 7468 01e9 0B       		.uleb128 0xb
 7469 01ea 3B       		.uleb128 0x3b
 7470 01eb 0B       		.uleb128 0xb
 7471 01ec 27       		.uleb128 0x27
 7472 01ed 19       		.uleb128 0x19
 7473 01ee 11       		.uleb128 0x11
 7474 01ef 01       		.uleb128 0x1
 7475 01f0 12       		.uleb128 0x12
 7476 01f1 06       		.uleb128 0x6
 7477 01f2 40       		.uleb128 0x40
 7478 01f3 18       		.uleb128 0x18
 7479 01f4 9642     		.uleb128 0x2116
 7480 01f6 19       		.uleb128 0x19
ARM GAS  C:\Users\salaz\AppData\Local\Temp\ccnyouLe.s 			page 180


 7481 01f7 01       		.uleb128 0x1
 7482 01f8 13       		.uleb128 0x13
 7483 01f9 00       		.byte	0
 7484 01fa 00       		.byte	0
 7485 01fb 29       		.uleb128 0x29
 7486 01fc 05       		.uleb128 0x5
 7487 01fd 00       		.byte	0
 7488 01fe 03       		.uleb128 0x3
 7489 01ff 0E       		.uleb128 0xe
 7490 0200 3A       		.uleb128 0x3a
 7491 0201 0B       		.uleb128 0xb
 7492 0202 3B       		.uleb128 0x3b
 7493 0203 0B       		.uleb128 0xb
 7494 0204 49       		.uleb128 0x49
 7495 0205 13       		.uleb128 0x13
 7496 0206 02       		.uleb128 0x2
 7497 0207 17       		.uleb128 0x17
 7498 0208 00       		.byte	0
 7499 0209 00       		.byte	0
 7500 020a 2A       		.uleb128 0x2a
 7501 020b 34       		.uleb128 0x34
 7502 020c 00       		.byte	0
 7503 020d 03       		.uleb128 0x3
 7504 020e 0E       		.uleb128 0xe
 7505 020f 3A       		.uleb128 0x3a
 7506 0210 0B       		.uleb128 0xb
 7507 0211 3B       		.uleb128 0x3b
 7508 0212 0B       		.uleb128 0xb
 7509 0213 49       		.uleb128 0x49
 7510 0214 13       		.uleb128 0x13
 7511 0215 02       		.uleb128 0x2
 7512 0216 17       		.uleb128 0x17
 7513 0217 00       		.byte	0
 7514 0218 00       		.byte	0
 7515 0219 2B       		.uleb128 0x2b
 7516 021a 34       		.uleb128 0x34
 7517 021b 00       		.byte	0
 7518 021c 03       		.uleb128 0x3
 7519 021d 0E       		.uleb128 0xe
 7520 021e 3A       		.uleb128 0x3a
 7521 021f 0B       		.uleb128 0xb
 7522 0220 3B       		.uleb128 0x3b
 7523 0221 0B       		.uleb128 0xb
 7524 0222 49       		.uleb128 0x49
 7525 0223 13       		.uleb128 0x13
 7526 0224 02       		.uleb128 0x2
 7527 0225 18       		.uleb128 0x18
 7528 0226 00       		.byte	0
 7529 0227 00       		.byte	0
 7530 0228 2C       		.uleb128 0x2c
 7531 0229 0B       		.uleb128 0xb
 7532 022a 01       		.byte	0x1
 7533 022b 11       		.uleb128 0x11
 7534 022c 01       		.uleb128 0x1
 7535 022d 12       		.uleb128 0x12
 7536 022e 06       		.uleb128 0x6
 7537 022f 01       		.uleb128 0x1
ARM GAS  C:\Users\salaz\AppData\Local\Temp\ccnyouLe.s 			page 181


 7538 0230 13       		.uleb128 0x13
 7539 0231 00       		.byte	0
 7540 0232 00       		.byte	0
 7541 0233 2D       		.uleb128 0x2d
 7542 0234 34       		.uleb128 0x34
 7543 0235 00       		.byte	0
 7544 0236 03       		.uleb128 0x3
 7545 0237 08       		.uleb128 0x8
 7546 0238 3A       		.uleb128 0x3a
 7547 0239 0B       		.uleb128 0xb
 7548 023a 3B       		.uleb128 0x3b
 7549 023b 0B       		.uleb128 0xb
 7550 023c 49       		.uleb128 0x49
 7551 023d 13       		.uleb128 0x13
 7552 023e 02       		.uleb128 0x2
 7553 023f 17       		.uleb128 0x17
 7554 0240 00       		.byte	0
 7555 0241 00       		.byte	0
 7556 0242 2E       		.uleb128 0x2e
 7557 0243 898201   		.uleb128 0x4109
 7558 0246 01       		.byte	0x1
 7559 0247 11       		.uleb128 0x11
 7560 0248 01       		.uleb128 0x1
 7561 0249 31       		.uleb128 0x31
 7562 024a 13       		.uleb128 0x13
 7563 024b 01       		.uleb128 0x1
 7564 024c 13       		.uleb128 0x13
 7565 024d 00       		.byte	0
 7566 024e 00       		.byte	0
 7567 024f 2F       		.uleb128 0x2f
 7568 0250 8A8201   		.uleb128 0x410a
 7569 0253 00       		.byte	0
 7570 0254 02       		.uleb128 0x2
 7571 0255 18       		.uleb128 0x18
 7572 0256 9142     		.uleb128 0x2111
 7573 0258 18       		.uleb128 0x18
 7574 0259 00       		.byte	0
 7575 025a 00       		.byte	0
 7576 025b 30       		.uleb128 0x30
 7577 025c 898201   		.uleb128 0x4109
 7578 025f 01       		.byte	0x1
 7579 0260 11       		.uleb128 0x11
 7580 0261 01       		.uleb128 0x1
 7581 0262 31       		.uleb128 0x31
 7582 0263 13       		.uleb128 0x13
 7583 0264 00       		.byte	0
 7584 0265 00       		.byte	0
 7585 0266 31       		.uleb128 0x31
 7586 0267 1D       		.uleb128 0x1d
 7587 0268 00       		.byte	0
 7588 0269 31       		.uleb128 0x31
 7589 026a 13       		.uleb128 0x13
 7590 026b 11       		.uleb128 0x11
 7591 026c 01       		.uleb128 0x1
 7592 026d 12       		.uleb128 0x12
 7593 026e 06       		.uleb128 0x6
 7594 026f 58       		.uleb128 0x58
ARM GAS  C:\Users\salaz\AppData\Local\Temp\ccnyouLe.s 			page 182


 7595 0270 0B       		.uleb128 0xb
 7596 0271 59       		.uleb128 0x59
 7597 0272 0B       		.uleb128 0xb
 7598 0273 00       		.byte	0
 7599 0274 00       		.byte	0
 7600 0275 32       		.uleb128 0x32
 7601 0276 1D       		.uleb128 0x1d
 7602 0277 01       		.byte	0x1
 7603 0278 31       		.uleb128 0x31
 7604 0279 13       		.uleb128 0x13
 7605 027a 11       		.uleb128 0x11
 7606 027b 01       		.uleb128 0x1
 7607 027c 12       		.uleb128 0x12
 7608 027d 06       		.uleb128 0x6
 7609 027e 58       		.uleb128 0x58
 7610 027f 0B       		.uleb128 0xb
 7611 0280 59       		.uleb128 0x59
 7612 0281 0B       		.uleb128 0xb
 7613 0282 01       		.uleb128 0x1
 7614 0283 13       		.uleb128 0x13
 7615 0284 00       		.byte	0
 7616 0285 00       		.byte	0
 7617 0286 33       		.uleb128 0x33
 7618 0287 05       		.uleb128 0x5
 7619 0288 00       		.byte	0
 7620 0289 31       		.uleb128 0x31
 7621 028a 13       		.uleb128 0x13
 7622 028b 02       		.uleb128 0x2
 7623 028c 17       		.uleb128 0x17
 7624 028d 00       		.byte	0
 7625 028e 00       		.byte	0
 7626 028f 34       		.uleb128 0x34
 7627 0290 0B       		.uleb128 0xb
 7628 0291 01       		.byte	0x1
 7629 0292 55       		.uleb128 0x55
 7630 0293 17       		.uleb128 0x17
 7631 0294 01       		.uleb128 0x1
 7632 0295 13       		.uleb128 0x13
 7633 0296 00       		.byte	0
 7634 0297 00       		.byte	0
 7635 0298 35       		.uleb128 0x35
 7636 0299 0B       		.uleb128 0xb
 7637 029a 01       		.byte	0x1
 7638 029b 55       		.uleb128 0x55
 7639 029c 17       		.uleb128 0x17
 7640 029d 00       		.byte	0
 7641 029e 00       		.byte	0
 7642 029f 36       		.uleb128 0x36
 7643 02a0 34       		.uleb128 0x34
 7644 02a1 00       		.byte	0
 7645 02a2 03       		.uleb128 0x3
 7646 02a3 0E       		.uleb128 0xe
 7647 02a4 3A       		.uleb128 0x3a
 7648 02a5 0B       		.uleb128 0xb
 7649 02a6 3B       		.uleb128 0x3b
 7650 02a7 0B       		.uleb128 0xb
 7651 02a8 49       		.uleb128 0x49
ARM GAS  C:\Users\salaz\AppData\Local\Temp\ccnyouLe.s 			page 183


 7652 02a9 13       		.uleb128 0x13
 7653 02aa 00       		.byte	0
 7654 02ab 00       		.byte	0
 7655 02ac 37       		.uleb128 0x37
 7656 02ad 898201   		.uleb128 0x4109
 7657 02b0 00       		.byte	0
 7658 02b1 11       		.uleb128 0x11
 7659 02b2 01       		.uleb128 0x1
 7660 02b3 31       		.uleb128 0x31
 7661 02b4 13       		.uleb128 0x13
 7662 02b5 00       		.byte	0
 7663 02b6 00       		.byte	0
 7664 02b7 38       		.uleb128 0x38
 7665 02b8 21       		.uleb128 0x21
 7666 02b9 00       		.byte	0
 7667 02ba 49       		.uleb128 0x49
 7668 02bb 13       		.uleb128 0x13
 7669 02bc 00       		.byte	0
 7670 02bd 00       		.byte	0
 7671 02be 39       		.uleb128 0x39
 7672 02bf 2E       		.uleb128 0x2e
 7673 02c0 01       		.byte	0x1
 7674 02c1 3F       		.uleb128 0x3f
 7675 02c2 19       		.uleb128 0x19
 7676 02c3 03       		.uleb128 0x3
 7677 02c4 0E       		.uleb128 0xe
 7678 02c5 3A       		.uleb128 0x3a
 7679 02c6 0B       		.uleb128 0xb
 7680 02c7 3B       		.uleb128 0x3b
 7681 02c8 0B       		.uleb128 0xb
 7682 02c9 11       		.uleb128 0x11
 7683 02ca 01       		.uleb128 0x1
 7684 02cb 12       		.uleb128 0x12
 7685 02cc 06       		.uleb128 0x6
 7686 02cd 40       		.uleb128 0x40
 7687 02ce 18       		.uleb128 0x18
 7688 02cf 9742     		.uleb128 0x2117
 7689 02d1 19       		.uleb128 0x19
 7690 02d2 01       		.uleb128 0x1
 7691 02d3 13       		.uleb128 0x13
 7692 02d4 00       		.byte	0
 7693 02d5 00       		.byte	0
 7694 02d6 3A       		.uleb128 0x3a
 7695 02d7 34       		.uleb128 0x34
 7696 02d8 00       		.byte	0
 7697 02d9 03       		.uleb128 0x3
 7698 02da 0E       		.uleb128 0xe
 7699 02db 3A       		.uleb128 0x3a
 7700 02dc 0B       		.uleb128 0xb
 7701 02dd 3B       		.uleb128 0x3b
 7702 02de 05       		.uleb128 0x5
 7703 02df 49       		.uleb128 0x49
 7704 02e0 13       		.uleb128 0x13
 7705 02e1 00       		.byte	0
 7706 02e2 00       		.byte	0
 7707 02e3 3B       		.uleb128 0x3b
 7708 02e4 2E       		.uleb128 0x2e
ARM GAS  C:\Users\salaz\AppData\Local\Temp\ccnyouLe.s 			page 184


 7709 02e5 01       		.byte	0x1
 7710 02e6 3F       		.uleb128 0x3f
 7711 02e7 19       		.uleb128 0x19
 7712 02e8 03       		.uleb128 0x3
 7713 02e9 0E       		.uleb128 0xe
 7714 02ea 3A       		.uleb128 0x3a
 7715 02eb 0B       		.uleb128 0xb
 7716 02ec 3B       		.uleb128 0x3b
 7717 02ed 05       		.uleb128 0x5
 7718 02ee 27       		.uleb128 0x27
 7719 02ef 19       		.uleb128 0x19
 7720 02f0 49       		.uleb128 0x49
 7721 02f1 13       		.uleb128 0x13
 7722 02f2 11       		.uleb128 0x11
 7723 02f3 01       		.uleb128 0x1
 7724 02f4 12       		.uleb128 0x12
 7725 02f5 06       		.uleb128 0x6
 7726 02f6 40       		.uleb128 0x40
 7727 02f7 18       		.uleb128 0x18
 7728 02f8 9742     		.uleb128 0x2117
 7729 02fa 19       		.uleb128 0x19
 7730 02fb 01       		.uleb128 0x1
 7731 02fc 13       		.uleb128 0x13
 7732 02fd 00       		.byte	0
 7733 02fe 00       		.byte	0
 7734 02ff 3C       		.uleb128 0x3c
 7735 0300 05       		.uleb128 0x5
 7736 0301 00       		.byte	0
 7737 0302 03       		.uleb128 0x3
 7738 0303 0E       		.uleb128 0xe
 7739 0304 3A       		.uleb128 0x3a
 7740 0305 0B       		.uleb128 0xb
 7741 0306 3B       		.uleb128 0x3b
 7742 0307 05       		.uleb128 0x5
 7743 0308 49       		.uleb128 0x49
 7744 0309 13       		.uleb128 0x13
 7745 030a 02       		.uleb128 0x2
 7746 030b 17       		.uleb128 0x17
 7747 030c 00       		.byte	0
 7748 030d 00       		.byte	0
 7749 030e 3D       		.uleb128 0x3d
 7750 030f 2E       		.uleb128 0x2e
 7751 0310 01       		.byte	0x1
 7752 0311 3F       		.uleb128 0x3f
 7753 0312 19       		.uleb128 0x19
 7754 0313 03       		.uleb128 0x3
 7755 0314 0E       		.uleb128 0xe
 7756 0315 3A       		.uleb128 0x3a
 7757 0316 0B       		.uleb128 0xb
 7758 0317 3B       		.uleb128 0x3b
 7759 0318 05       		.uleb128 0x5
 7760 0319 27       		.uleb128 0x27
 7761 031a 19       		.uleb128 0x19
 7762 031b 49       		.uleb128 0x49
 7763 031c 13       		.uleb128 0x13
 7764 031d 11       		.uleb128 0x11
 7765 031e 01       		.uleb128 0x1
ARM GAS  C:\Users\salaz\AppData\Local\Temp\ccnyouLe.s 			page 185


 7766 031f 12       		.uleb128 0x12
 7767 0320 06       		.uleb128 0x6
 7768 0321 40       		.uleb128 0x40
 7769 0322 18       		.uleb128 0x18
 7770 0323 9642     		.uleb128 0x2116
 7771 0325 19       		.uleb128 0x19
 7772 0326 01       		.uleb128 0x1
 7773 0327 13       		.uleb128 0x13
 7774 0328 00       		.byte	0
 7775 0329 00       		.byte	0
 7776 032a 3E       		.uleb128 0x3e
 7777 032b 0B       		.uleb128 0xb
 7778 032c 01       		.byte	0x1
 7779 032d 11       		.uleb128 0x11
 7780 032e 01       		.uleb128 0x1
 7781 032f 12       		.uleb128 0x12
 7782 0330 06       		.uleb128 0x6
 7783 0331 00       		.byte	0
 7784 0332 00       		.byte	0
 7785 0333 3F       		.uleb128 0x3f
 7786 0334 34       		.uleb128 0x34
 7787 0335 00       		.byte	0
 7788 0336 03       		.uleb128 0x3
 7789 0337 0E       		.uleb128 0xe
 7790 0338 3A       		.uleb128 0x3a
 7791 0339 0B       		.uleb128 0xb
 7792 033a 3B       		.uleb128 0x3b
 7793 033b 05       		.uleb128 0x5
 7794 033c 49       		.uleb128 0x49
 7795 033d 13       		.uleb128 0x13
 7796 033e 02       		.uleb128 0x2
 7797 033f 17       		.uleb128 0x17
 7798 0340 00       		.byte	0
 7799 0341 00       		.byte	0
 7800 0342 40       		.uleb128 0x40
 7801 0343 2E       		.uleb128 0x2e
 7802 0344 01       		.byte	0x1
 7803 0345 3F       		.uleb128 0x3f
 7804 0346 19       		.uleb128 0x19
 7805 0347 03       		.uleb128 0x3
 7806 0348 0E       		.uleb128 0xe
 7807 0349 3A       		.uleb128 0x3a
 7808 034a 0B       		.uleb128 0xb
 7809 034b 3B       		.uleb128 0x3b
 7810 034c 05       		.uleb128 0x5
 7811 034d 49       		.uleb128 0x49
 7812 034e 13       		.uleb128 0x13
 7813 034f 11       		.uleb128 0x11
 7814 0350 01       		.uleb128 0x1
 7815 0351 12       		.uleb128 0x12
 7816 0352 06       		.uleb128 0x6
 7817 0353 40       		.uleb128 0x40
 7818 0354 18       		.uleb128 0x18
 7819 0355 9742     		.uleb128 0x2117
 7820 0357 19       		.uleb128 0x19
 7821 0358 01       		.uleb128 0x1
 7822 0359 13       		.uleb128 0x13
ARM GAS  C:\Users\salaz\AppData\Local\Temp\ccnyouLe.s 			page 186


 7823 035a 00       		.byte	0
 7824 035b 00       		.byte	0
 7825 035c 41       		.uleb128 0x41
 7826 035d 34       		.uleb128 0x34
 7827 035e 00       		.byte	0
 7828 035f 03       		.uleb128 0x3
 7829 0360 0E       		.uleb128 0xe
 7830 0361 3A       		.uleb128 0x3a
 7831 0362 0B       		.uleb128 0xb
 7832 0363 3B       		.uleb128 0x3b
 7833 0364 05       		.uleb128 0x5
 7834 0365 49       		.uleb128 0x49
 7835 0366 13       		.uleb128 0x13
 7836 0367 02       		.uleb128 0x2
 7837 0368 18       		.uleb128 0x18
 7838 0369 00       		.byte	0
 7839 036a 00       		.byte	0
 7840 036b 42       		.uleb128 0x42
 7841 036c 2E       		.uleb128 0x2e
 7842 036d 01       		.byte	0x1
 7843 036e 3F       		.uleb128 0x3f
 7844 036f 19       		.uleb128 0x19
 7845 0370 03       		.uleb128 0x3
 7846 0371 0E       		.uleb128 0xe
 7847 0372 3A       		.uleb128 0x3a
 7848 0373 0B       		.uleb128 0xb
 7849 0374 3B       		.uleb128 0x3b
 7850 0375 05       		.uleb128 0x5
 7851 0376 27       		.uleb128 0x27
 7852 0377 19       		.uleb128 0x19
 7853 0378 11       		.uleb128 0x11
 7854 0379 01       		.uleb128 0x1
 7855 037a 12       		.uleb128 0x12
 7856 037b 06       		.uleb128 0x6
 7857 037c 40       		.uleb128 0x40
 7858 037d 18       		.uleb128 0x18
 7859 037e 9742     		.uleb128 0x2117
 7860 0380 19       		.uleb128 0x19
 7861 0381 01       		.uleb128 0x1
 7862 0382 13       		.uleb128 0x13
 7863 0383 00       		.byte	0
 7864 0384 00       		.byte	0
 7865 0385 43       		.uleb128 0x43
 7866 0386 05       		.uleb128 0x5
 7867 0387 00       		.byte	0
 7868 0388 03       		.uleb128 0x3
 7869 0389 0E       		.uleb128 0xe
 7870 038a 3A       		.uleb128 0x3a
 7871 038b 0B       		.uleb128 0xb
 7872 038c 3B       		.uleb128 0x3b
 7873 038d 05       		.uleb128 0x5
 7874 038e 49       		.uleb128 0x49
 7875 038f 13       		.uleb128 0x13
 7876 0390 02       		.uleb128 0x2
 7877 0391 18       		.uleb128 0x18
 7878 0392 00       		.byte	0
 7879 0393 00       		.byte	0
ARM GAS  C:\Users\salaz\AppData\Local\Temp\ccnyouLe.s 			page 187


 7880 0394 44       		.uleb128 0x44
 7881 0395 2E       		.uleb128 0x2e
 7882 0396 01       		.byte	0x1
 7883 0397 3F       		.uleb128 0x3f
 7884 0398 19       		.uleb128 0x19
 7885 0399 03       		.uleb128 0x3
 7886 039a 0E       		.uleb128 0xe
 7887 039b 3A       		.uleb128 0x3a
 7888 039c 0B       		.uleb128 0xb
 7889 039d 3B       		.uleb128 0x3b
 7890 039e 05       		.uleb128 0x5
 7891 039f 11       		.uleb128 0x11
 7892 03a0 01       		.uleb128 0x1
 7893 03a1 12       		.uleb128 0x12
 7894 03a2 06       		.uleb128 0x6
 7895 03a3 40       		.uleb128 0x40
 7896 03a4 18       		.uleb128 0x18
 7897 03a5 9742     		.uleb128 0x2117
 7898 03a7 19       		.uleb128 0x19
 7899 03a8 01       		.uleb128 0x1
 7900 03a9 13       		.uleb128 0x13
 7901 03aa 00       		.byte	0
 7902 03ab 00       		.byte	0
 7903 03ac 45       		.uleb128 0x45
 7904 03ad 1D       		.uleb128 0x1d
 7905 03ae 01       		.byte	0x1
 7906 03af 31       		.uleb128 0x31
 7907 03b0 13       		.uleb128 0x13
 7908 03b1 11       		.uleb128 0x11
 7909 03b2 01       		.uleb128 0x1
 7910 03b3 12       		.uleb128 0x12
 7911 03b4 06       		.uleb128 0x6
 7912 03b5 58       		.uleb128 0x58
 7913 03b6 0B       		.uleb128 0xb
 7914 03b7 59       		.uleb128 0x59
 7915 03b8 05       		.uleb128 0x5
 7916 03b9 01       		.uleb128 0x1
 7917 03ba 13       		.uleb128 0x13
 7918 03bb 00       		.byte	0
 7919 03bc 00       		.byte	0
 7920 03bd 46       		.uleb128 0x46
 7921 03be 34       		.uleb128 0x34
 7922 03bf 00       		.byte	0
 7923 03c0 03       		.uleb128 0x3
 7924 03c1 0E       		.uleb128 0xe
 7925 03c2 3A       		.uleb128 0x3a
 7926 03c3 0B       		.uleb128 0xb
 7927 03c4 3B       		.uleb128 0x3b
 7928 03c5 05       		.uleb128 0x5
 7929 03c6 49       		.uleb128 0x49
 7930 03c7 13       		.uleb128 0x13
 7931 03c8 3F       		.uleb128 0x3f
 7932 03c9 19       		.uleb128 0x19
 7933 03ca 3C       		.uleb128 0x3c
 7934 03cb 19       		.uleb128 0x19
 7935 03cc 00       		.byte	0
 7936 03cd 00       		.byte	0
ARM GAS  C:\Users\salaz\AppData\Local\Temp\ccnyouLe.s 			page 188


 7937 03ce 47       		.uleb128 0x47
 7938 03cf 34       		.uleb128 0x34
 7939 03d0 00       		.byte	0
 7940 03d1 03       		.uleb128 0x3
 7941 03d2 0E       		.uleb128 0xe
 7942 03d3 3A       		.uleb128 0x3a
 7943 03d4 0B       		.uleb128 0xb
 7944 03d5 3B       		.uleb128 0x3b
 7945 03d6 0B       		.uleb128 0xb
 7946 03d7 49       		.uleb128 0x49
 7947 03d8 13       		.uleb128 0x13
 7948 03d9 3F       		.uleb128 0x3f
 7949 03da 19       		.uleb128 0x19
 7950 03db 3C       		.uleb128 0x3c
 7951 03dc 19       		.uleb128 0x19
 7952 03dd 00       		.byte	0
 7953 03de 00       		.byte	0
 7954 03df 48       		.uleb128 0x48
 7955 03e0 34       		.uleb128 0x34
 7956 03e1 00       		.byte	0
 7957 03e2 03       		.uleb128 0x3
 7958 03e3 0E       		.uleb128 0xe
 7959 03e4 3A       		.uleb128 0x3a
 7960 03e5 0B       		.uleb128 0xb
 7961 03e6 3B       		.uleb128 0x3b
 7962 03e7 0B       		.uleb128 0xb
 7963 03e8 49       		.uleb128 0x49
 7964 03e9 13       		.uleb128 0x13
 7965 03ea 3F       		.uleb128 0x3f
 7966 03eb 19       		.uleb128 0x19
 7967 03ec 02       		.uleb128 0x2
 7968 03ed 18       		.uleb128 0x18
 7969 03ee 00       		.byte	0
 7970 03ef 00       		.byte	0
 7971 03f0 49       		.uleb128 0x49
 7972 03f1 2E       		.uleb128 0x2e
 7973 03f2 00       		.byte	0
 7974 03f3 3F       		.uleb128 0x3f
 7975 03f4 19       		.uleb128 0x19
 7976 03f5 3C       		.uleb128 0x3c
 7977 03f6 19       		.uleb128 0x19
 7978 03f7 6E       		.uleb128 0x6e
 7979 03f8 0E       		.uleb128 0xe
 7980 03f9 03       		.uleb128 0x3
 7981 03fa 0E       		.uleb128 0xe
 7982 03fb 3A       		.uleb128 0x3a
 7983 03fc 0B       		.uleb128 0xb
 7984 03fd 3B       		.uleb128 0x3b
 7985 03fe 05       		.uleb128 0x5
 7986 03ff 00       		.byte	0
 7987 0400 00       		.byte	0
 7988 0401 4A       		.uleb128 0x4a
 7989 0402 2E       		.uleb128 0x2e
 7990 0403 00       		.byte	0
 7991 0404 3F       		.uleb128 0x3f
 7992 0405 19       		.uleb128 0x19
 7993 0406 3C       		.uleb128 0x3c
ARM GAS  C:\Users\salaz\AppData\Local\Temp\ccnyouLe.s 			page 189


 7994 0407 19       		.uleb128 0x19
 7995 0408 6E       		.uleb128 0x6e
 7996 0409 0E       		.uleb128 0xe
 7997 040a 03       		.uleb128 0x3
 7998 040b 0E       		.uleb128 0xe
 7999 040c 3A       		.uleb128 0x3a
 8000 040d 0B       		.uleb128 0xb
 8001 040e 3B       		.uleb128 0x3b
 8002 040f 0B       		.uleb128 0xb
 8003 0410 00       		.byte	0
 8004 0411 00       		.byte	0
 8005 0412 4B       		.uleb128 0x4b
 8006 0413 2E       		.uleb128 0x2e
 8007 0414 00       		.byte	0
 8008 0415 3F       		.uleb128 0x3f
 8009 0416 19       		.uleb128 0x19
 8010 0417 3C       		.uleb128 0x3c
 8011 0418 19       		.uleb128 0x19
 8012 0419 6E       		.uleb128 0x6e
 8013 041a 0E       		.uleb128 0xe
 8014 041b 03       		.uleb128 0x3
 8015 041c 0E       		.uleb128 0xe
 8016 041d 00       		.byte	0
 8017 041e 00       		.byte	0
 8018 041f 4C       		.uleb128 0x4c
 8019 0420 2E       		.uleb128 0x2e
 8020 0421 00       		.byte	0
 8021 0422 3F       		.uleb128 0x3f
 8022 0423 19       		.uleb128 0x19
 8023 0424 3C       		.uleb128 0x3c
 8024 0425 19       		.uleb128 0x19
 8025 0426 6E       		.uleb128 0x6e
 8026 0427 0E       		.uleb128 0xe
 8027 0428 03       		.uleb128 0x3
 8028 0429 0E       		.uleb128 0xe
 8029 042a 3A       		.uleb128 0x3a
 8030 042b 0B       		.uleb128 0xb
 8031 042c 3B       		.uleb128 0x3b
 8032 042d 0B       		.uleb128 0xb
 8033 042e 6E       		.uleb128 0x6e
 8034 042f 0E       		.uleb128 0xe
 8035 0430 00       		.byte	0
 8036 0431 00       		.byte	0
 8037 0432 00       		.byte	0
 8038              		.section	.debug_loc,"",%progbits
 8039              	.Ldebug_loc0:
 8040              	.LLST0:
 8041 0000 00000000 		.4byte	.LVL0
 8042 0004 CE000000 		.4byte	.LVL3
 8043 0008 0100     		.2byte	0x1
 8044 000a 50       		.byte	0x50
 8045 000b CE000000 		.4byte	.LVL3
 8046 000f 92010000 		.4byte	.LVL26
 8047 0013 0400     		.2byte	0x4
 8048 0015 F3       		.byte	0xf3
 8049 0016 01       		.uleb128 0x1
 8050 0017 50       		.byte	0x50
ARM GAS  C:\Users\salaz\AppData\Local\Temp\ccnyouLe.s 			page 190


 8051 0018 9F       		.byte	0x9f
 8052 0019 92010000 		.4byte	.LVL26
 8053 001d A4010000 		.4byte	.LVL28
 8054 0021 0100     		.2byte	0x1
 8055 0023 50       		.byte	0x50
 8056 0024 A4010000 		.4byte	.LVL28
 8057 0028 C4010000 		.4byte	.LVL32
 8058 002c 0400     		.2byte	0x4
 8059 002e F3       		.byte	0xf3
 8060 002f 01       		.uleb128 0x1
 8061 0030 50       		.byte	0x50
 8062 0031 9F       		.byte	0x9f
 8063 0032 C4010000 		.4byte	.LVL32
 8064 0036 DA010000 		.4byte	.LVL34
 8065 003a 0100     		.2byte	0x1
 8066 003c 50       		.byte	0x50
 8067 003d DA010000 		.4byte	.LVL34
 8068 0041 34020000 		.4byte	.LVL48
 8069 0045 0400     		.2byte	0x4
 8070 0047 F3       		.byte	0xf3
 8071 0048 01       		.uleb128 0x1
 8072 0049 50       		.byte	0x50
 8073 004a 9F       		.byte	0x9f
 8074 004b 34020000 		.4byte	.LVL48
 8075 004f 40020000 		.4byte	.LVL49
 8076 0053 0100     		.2byte	0x1
 8077 0055 50       		.byte	0x50
 8078 0056 40020000 		.4byte	.LVL49
 8079 005a 92020000 		.4byte	.LVL61
 8080 005e 0400     		.2byte	0x4
 8081 0060 F3       		.byte	0xf3
 8082 0061 01       		.uleb128 0x1
 8083 0062 50       		.byte	0x50
 8084 0063 9F       		.byte	0x9f
 8085 0064 92020000 		.4byte	.LVL61
 8086 0068 9E020000 		.4byte	.LVL63
 8087 006c 0100     		.2byte	0x1
 8088 006e 50       		.byte	0x50
 8089 006f 9E020000 		.4byte	.LVL63
 8090 0073 B6020000 		.4byte	.LVL67
 8091 0077 0400     		.2byte	0x4
 8092 0079 F3       		.byte	0xf3
 8093 007a 01       		.uleb128 0x1
 8094 007b 50       		.byte	0x50
 8095 007c 9F       		.byte	0x9f
 8096 007d B6020000 		.4byte	.LVL67
 8097 0081 BA020000 		.4byte	.LVL69
 8098 0085 0100     		.2byte	0x1
 8099 0087 50       		.byte	0x50
 8100 0088 BA020000 		.4byte	.LVL69
 8101 008c BD020000 		.4byte	.LVL70-1
 8102 0090 0100     		.2byte	0x1
 8103 0092 51       		.byte	0x51
 8104 0093 BD020000 		.4byte	.LVL70-1
 8105 0097 84030000 		.4byte	.LFE792
 8106 009b 0400     		.2byte	0x4
 8107 009d F3       		.byte	0xf3
ARM GAS  C:\Users\salaz\AppData\Local\Temp\ccnyouLe.s 			page 191


 8108 009e 01       		.uleb128 0x1
 8109 009f 50       		.byte	0x50
 8110 00a0 9F       		.byte	0x9f
 8111 00a1 00000000 		.4byte	0
 8112 00a5 00000000 		.4byte	0
 8113              	.LLST1:
 8114 00a9 00000000 		.4byte	.LVL0
 8115 00ad D5000000 		.4byte	.LVL4-1
 8116 00b1 0100     		.2byte	0x1
 8117 00b3 51       		.byte	0x51
 8118 00b4 D5000000 		.4byte	.LVL4-1
 8119 00b8 92010000 		.4byte	.LVL26
 8120 00bc 0400     		.2byte	0x4
 8121 00be F3       		.byte	0xf3
 8122 00bf 01       		.uleb128 0x1
 8123 00c0 51       		.byte	0x51
 8124 00c1 9F       		.byte	0x9f
 8125 00c2 92010000 		.4byte	.LVL26
 8126 00c6 96010000 		.4byte	.LVL27
 8127 00ca 0100     		.2byte	0x1
 8128 00cc 51       		.byte	0x51
 8129 00cd 96010000 		.4byte	.LVL27
 8130 00d1 C4010000 		.4byte	.LVL32
 8131 00d5 0400     		.2byte	0x4
 8132 00d7 F3       		.byte	0xf3
 8133 00d8 01       		.uleb128 0x1
 8134 00d9 51       		.byte	0x51
 8135 00da 9F       		.byte	0x9f
 8136 00db C4010000 		.4byte	.LVL32
 8137 00df DD010000 		.4byte	.LVL35-1
 8138 00e3 0100     		.2byte	0x1
 8139 00e5 51       		.byte	0x51
 8140 00e6 DD010000 		.4byte	.LVL35-1
 8141 00ea 34020000 		.4byte	.LVL48
 8142 00ee 0400     		.2byte	0x4
 8143 00f0 F3       		.byte	0xf3
 8144 00f1 01       		.uleb128 0x1
 8145 00f2 51       		.byte	0x51
 8146 00f3 9F       		.byte	0x9f
 8147 00f4 34020000 		.4byte	.LVL48
 8148 00f8 60020000 		.4byte	.LVL54
 8149 00fc 0100     		.2byte	0x1
 8150 00fe 51       		.byte	0x51
 8151 00ff 60020000 		.4byte	.LVL54
 8152 0103 92020000 		.4byte	.LVL61
 8153 0107 0400     		.2byte	0x4
 8154 0109 F3       		.byte	0xf3
 8155 010a 01       		.uleb128 0x1
 8156 010b 51       		.byte	0x51
 8157 010c 9F       		.byte	0x9f
 8158 010d 92020000 		.4byte	.LVL61
 8159 0111 9A020000 		.4byte	.LVL62
 8160 0115 0100     		.2byte	0x1
 8161 0117 51       		.byte	0x51
 8162 0118 9A020000 		.4byte	.LVL62
 8163 011c B6020000 		.4byte	.LVL67
 8164 0120 0400     		.2byte	0x4
ARM GAS  C:\Users\salaz\AppData\Local\Temp\ccnyouLe.s 			page 192


 8165 0122 F3       		.byte	0xf3
 8166 0123 01       		.uleb128 0x1
 8167 0124 51       		.byte	0x51
 8168 0125 9F       		.byte	0x9f
 8169 0126 B6020000 		.4byte	.LVL67
 8170 012a B8020000 		.4byte	.LVL68
 8171 012e 0100     		.2byte	0x1
 8172 0130 51       		.byte	0x51
 8173 0131 B8020000 		.4byte	.LVL68
 8174 0135 84030000 		.4byte	.LFE792
 8175 0139 0400     		.2byte	0x4
 8176 013b F3       		.byte	0xf3
 8177 013c 01       		.uleb128 0x1
 8178 013d 51       		.byte	0x51
 8179 013e 9F       		.byte	0x9f
 8180 013f 00000000 		.4byte	0
 8181 0143 00000000 		.4byte	0
 8182              	.LLST2:
 8183 0147 12000000 		.4byte	.LVL1
 8184 014b 06030000 		.4byte	.LVL76
 8185 014f 0100     		.2byte	0x1
 8186 0151 54       		.byte	0x54
 8187 0152 00000000 		.4byte	0
 8188 0156 00000000 		.4byte	0
 8189              	.LLST3:
 8190 015a 14000000 		.4byte	.LVL2
 8191 015e 06030000 		.4byte	.LVL77
 8192 0162 0100     		.2byte	0x1
 8193 0164 55       		.byte	0x55
 8194 0165 00000000 		.4byte	0
 8195 0169 00000000 		.4byte	0
 8196              	.LLST4:
 8197 016d F2000000 		.4byte	.LVL5
 8198 0171 19010000 		.4byte	.LVL14-1
 8199 0175 0700     		.2byte	0x7
 8200 0177 7C       		.byte	0x7c
 8201 0178 00       		.sleb128 0
 8202 0179 F7       		.byte	0xf7
 8203 017a 2C       		.uleb128 0x2c
 8204 017b F7       		.byte	0xf7
 8205 017c 25       		.uleb128 0x25
 8206 017d 9F       		.byte	0x9f
 8207 017e 00000000 		.4byte	0
 8208 0182 00000000 		.4byte	0
 8209              	.LLST5:
 8210 0186 F4000000 		.4byte	.LVL6
 8211 018a FE000000 		.4byte	.LVL10
 8212 018e 0700     		.2byte	0x7
 8213 0190 70       		.byte	0x70
 8214 0191 00       		.sleb128 0
 8215 0192 F7       		.byte	0xf7
 8216 0193 2C       		.uleb128 0x2c
 8217 0194 F7       		.byte	0xf7
 8218 0195 25       		.uleb128 0x25
 8219 0196 9F       		.byte	0x9f
 8220 0197 FE000000 		.4byte	.LVL10
 8221 019b 19010000 		.4byte	.LVL14-1
ARM GAS  C:\Users\salaz\AppData\Local\Temp\ccnyouLe.s 			page 193


 8222 019f 0A00     		.2byte	0xa
 8223 01a1 7D       		.byte	0x7d
 8224 01a2 D100     		.sleb128 81
 8225 01a4 94       		.byte	0x94
 8226 01a5 01       		.byte	0x1
 8227 01a6 F7       		.byte	0xf7
 8228 01a7 2C       		.uleb128 0x2c
 8229 01a8 F7       		.byte	0xf7
 8230 01a9 25       		.uleb128 0x25
 8231 01aa 9F       		.byte	0x9f
 8232 01ab 00000000 		.4byte	0
 8233 01af 00000000 		.4byte	0
 8234              	.LLST6:
 8235 01b3 F6000000 		.4byte	.LVL7
 8236 01b7 04010000 		.4byte	.LVL11
 8237 01bb 0700     		.2byte	0x7
 8238 01bd 72       		.byte	0x72
 8239 01be 00       		.sleb128 0
 8240 01bf F7       		.byte	0xf7
 8241 01c0 2C       		.uleb128 0x2c
 8242 01c1 F7       		.byte	0xf7
 8243 01c2 25       		.uleb128 0x25
 8244 01c3 9F       		.byte	0x9f
 8245 01c4 04010000 		.4byte	.LVL11
 8246 01c8 19010000 		.4byte	.LVL14-1
 8247 01cc 0A00     		.2byte	0xa
 8248 01ce 7D       		.byte	0x7d
 8249 01cf D200     		.sleb128 82
 8250 01d1 94       		.byte	0x94
 8251 01d2 01       		.byte	0x1
 8252 01d3 F7       		.byte	0xf7
 8253 01d4 2C       		.uleb128 0x2c
 8254 01d5 F7       		.byte	0xf7
 8255 01d6 25       		.uleb128 0x25
 8256 01d7 9F       		.byte	0x9f
 8257 01d8 00000000 		.4byte	0
 8258 01dc 00000000 		.4byte	0
 8259              	.LLST7:
 8260 01e0 FA000000 		.4byte	.LVL8
 8261 01e4 30010000 		.4byte	.LVL18
 8262 01e8 0700     		.2byte	0x7
 8263 01ea 78       		.byte	0x78
 8264 01eb 00       		.sleb128 0
 8265 01ec F7       		.byte	0xf7
 8266 01ed 2C       		.uleb128 0x2c
 8267 01ee F7       		.byte	0xf7
 8268 01ef 25       		.uleb128 0x25
 8269 01f0 9F       		.byte	0x9f
 8270 01f1 00000000 		.4byte	0
 8271 01f5 00000000 		.4byte	0
 8272              	.LLST8:
 8273 01f9 FA000000 		.4byte	.LVL8
 8274 01fd 1C010000 		.4byte	.LVL15
 8275 0201 0700     		.2byte	0x7
 8276 0203 76       		.byte	0x76
 8277 0204 00       		.sleb128 0
 8278 0205 F7       		.byte	0xf7
ARM GAS  C:\Users\salaz\AppData\Local\Temp\ccnyouLe.s 			page 194


 8279 0206 2C       		.uleb128 0x2c
 8280 0207 F7       		.byte	0xf7
 8281 0208 25       		.uleb128 0x25
 8282 0209 9F       		.byte	0x9f
 8283 020a 00000000 		.4byte	0
 8284 020e 00000000 		.4byte	0
 8285              	.LLST9:
 8286 0212 FC000000 		.4byte	.LVL9
 8287 0216 10010000 		.4byte	.LVL12
 8288 021a 0700     		.2byte	0x7
 8289 021c 71       		.byte	0x71
 8290 021d 00       		.sleb128 0
 8291 021e F7       		.byte	0xf7
 8292 021f 2C       		.uleb128 0x2c
 8293 0220 F7       		.byte	0xf7
 8294 0221 25       		.uleb128 0x25
 8295 0222 9F       		.byte	0x9f
 8296 0223 00000000 		.4byte	0
 8297 0227 00000000 		.4byte	0
 8298              	.LLST10:
 8299 022b 12010000 		.4byte	.LVL13
 8300 022f 19010000 		.4byte	.LVL14-1
 8301 0233 0600     		.2byte	0x6
 8302 0235 50       		.byte	0x50
 8303 0236 93       		.byte	0x93
 8304 0237 04       		.uleb128 0x4
 8305 0238 51       		.byte	0x51
 8306 0239 93       		.byte	0x93
 8307 023a 04       		.uleb128 0x4
 8308 023b 00000000 		.4byte	0
 8309 023f 00000000 		.4byte	0
 8310              	.LLST11:
 8311 0243 1C010000 		.4byte	.LVL15
 8312 0247 92010000 		.4byte	.LVL26
 8313 024b 0100     		.2byte	0x1
 8314 024d 56       		.byte	0x56
 8315 024e 00000000 		.4byte	0
 8316 0252 00000000 		.4byte	0
 8317              	.LLST12:
 8318 0256 2A010000 		.4byte	.LVL17
 8319 025a 92010000 		.4byte	.LVL26
 8320 025e 0100     		.2byte	0x1
 8321 0260 5A       		.byte	0x5a
 8322 0261 00000000 		.4byte	0
 8323 0265 00000000 		.4byte	0
 8324              	.LLST13:
 8325 0269 3E010000 		.4byte	.LVL20
 8326 026d 92010000 		.4byte	.LVL26
 8327 0271 0100     		.2byte	0x1
 8328 0273 59       		.byte	0x59
 8329 0274 00000000 		.4byte	0
 8330 0278 00000000 		.4byte	0
 8331              	.LLST14:
 8332 027c 50010000 		.4byte	.LVL22
 8333 0280 92010000 		.4byte	.LVL26
 8334 0284 0100     		.2byte	0x1
 8335 0286 58       		.byte	0x58
ARM GAS  C:\Users\salaz\AppData\Local\Temp\ccnyouLe.s 			page 195


 8336 0287 00000000 		.4byte	0
 8337 028b 00000000 		.4byte	0
 8338              	.LLST15:
 8339 028f 5C010000 		.4byte	.LVL24
 8340 0293 8F010000 		.4byte	.LVL25-1
 8341 0297 0100     		.2byte	0x1
 8342 0299 51       		.byte	0x51
 8343 029a 00000000 		.4byte	0
 8344 029e 00000000 		.4byte	0
 8345              	.LLST16:
 8346 02a2 A8010000 		.4byte	.LVL29
 8347 02a6 B4010000 		.4byte	.LVL30
 8348 02aa 0600     		.2byte	0x6
 8349 02ac 0C       		.byte	0xc
 8350 02ad 00006640 		.4byte	0x40660000
 8351 02b1 9F       		.byte	0x9f
 8352 02b2 00000000 		.4byte	0
 8353 02b6 00000000 		.4byte	0
 8354              	.LLST17:
 8355 02ba B4010000 		.4byte	.LVL30
 8356 02be BC010000 		.4byte	.LVL31
 8357 02c2 0600     		.2byte	0x6
 8358 02c4 0C       		.byte	0xc
 8359 02c5 00006640 		.4byte	0x40660000
 8360 02c9 9F       		.byte	0x9f
 8361 02ca 00000000 		.4byte	0
 8362 02ce 00000000 		.4byte	0
 8363              	.LLST18:
 8364 02d2 D8010000 		.4byte	.LVL33
 8365 02d6 16020000 		.4byte	.LVL45
 8366 02da 0200     		.2byte	0x2
 8367 02dc 30       		.byte	0x30
 8368 02dd 9F       		.byte	0x9f
 8369 02de 16020000 		.4byte	.LVL45
 8370 02e2 1C020000 		.4byte	.LVL46
 8371 02e6 0100     		.2byte	0x1
 8372 02e8 53       		.byte	0x53
 8373 02e9 00000000 		.4byte	0
 8374 02ed 00000000 		.4byte	0
 8375              	.LLST19:
 8376 02f1 DE010000 		.4byte	.LVL35
 8377 02f5 EE010000 		.4byte	.LVL37
 8378 02f9 0100     		.2byte	0x1
 8379 02fb 50       		.byte	0x50
 8380 02fc 06020000 		.4byte	.LVL40
 8381 0300 08020000 		.4byte	.LVL41
 8382 0304 0100     		.2byte	0x1
 8383 0306 50       		.byte	0x50
 8384 0307 10020000 		.4byte	.LVL43
 8385 030b 14020000 		.4byte	.LVL44
 8386 030f 0100     		.2byte	0x1
 8387 0311 50       		.byte	0x50
 8388 0312 00000000 		.4byte	0
 8389 0316 00000000 		.4byte	0
 8390              	.LLST20:
 8391 031a E6010000 		.4byte	.LVL36
 8392 031e 10020000 		.4byte	.LVL43
ARM GAS  C:\Users\salaz\AppData\Local\Temp\ccnyouLe.s 			page 196


 8393 0322 0100     		.2byte	0x1
 8394 0324 56       		.byte	0x56
 8395 0325 14020000 		.4byte	.LVL44
 8396 0329 16020000 		.4byte	.LVL45
 8397 032d 0100     		.2byte	0x1
 8398 032f 56       		.byte	0x56
 8399 0330 00000000 		.4byte	0
 8400 0334 00000000 		.4byte	0
 8401              	.LLST21:
 8402 0338 EE010000 		.4byte	.LVL37
 8403 033c 02020000 		.4byte	.LVL38
 8404 0340 0100     		.2byte	0x1
 8405 0342 53       		.byte	0x53
 8406 0343 04020000 		.4byte	.LVL39
 8407 0347 06020000 		.4byte	.LVL40
 8408 034b 0100     		.2byte	0x1
 8409 034d 53       		.byte	0x53
 8410 034e 08020000 		.4byte	.LVL41
 8411 0352 0E020000 		.4byte	.LVL42
 8412 0356 0100     		.2byte	0x1
 8413 0358 53       		.byte	0x53
 8414 0359 14020000 		.4byte	.LVL44
 8415 035d 16020000 		.4byte	.LVL45
 8416 0361 0100     		.2byte	0x1
 8417 0363 53       		.byte	0x53
 8418 0364 00000000 		.4byte	0
 8419 0368 00000000 		.4byte	0
 8420              	.LLST22:
 8421 036c 34020000 		.4byte	.LVL48
 8422 0370 60020000 		.4byte	.LVL54
 8423 0374 0100     		.2byte	0x1
 8424 0376 51       		.byte	0x51
 8425 0377 60020000 		.4byte	.LVL54
 8426 037b 92020000 		.4byte	.LVL61
 8427 037f 0400     		.2byte	0x4
 8428 0381 F3       		.byte	0xf3
 8429 0382 01       		.uleb128 0x1
 8430 0383 51       		.byte	0x51
 8431 0384 9F       		.byte	0x9f
 8432 0385 00000000 		.4byte	0
 8433 0389 00000000 		.4byte	0
 8434              	.LLST23:
 8435 038d 40020000 		.4byte	.LVL49
 8436 0391 63020000 		.4byte	.LVL55-1
 8437 0395 0100     		.2byte	0x1
 8438 0397 50       		.byte	0x50
 8439 0398 00000000 		.4byte	0
 8440 039c 00000000 		.4byte	0
 8441              	.LLST24:
 8442 03a0 4E020000 		.4byte	.LVL50
 8443 03a4 50020000 		.4byte	.LVL51
 8444 03a8 0200     		.2byte	0x2
 8445 03aa 73       		.byte	0x73
 8446 03ab 00       		.sleb128 0
 8447 03ac 50020000 		.4byte	.LVL51
 8448 03b0 82020000 		.4byte	.LVL59
 8449 03b4 0200     		.2byte	0x2
ARM GAS  C:\Users\salaz\AppData\Local\Temp\ccnyouLe.s 			page 197


 8450 03b6 76       		.byte	0x76
 8451 03b7 00       		.sleb128 0
 8452 03b8 00000000 		.4byte	0
 8453 03bc 00000000 		.4byte	0
 8454              	.LLST25:
 8455 03c0 4E020000 		.4byte	.LVL50
 8456 03c4 52020000 		.4byte	.LVL52
 8457 03c8 0200     		.2byte	0x2
 8458 03ca 30       		.byte	0x30
 8459 03cb 9F       		.byte	0x9f
 8460 03cc 52020000 		.4byte	.LVL52
 8461 03d0 63020000 		.4byte	.LVL55-1
 8462 03d4 0100     		.2byte	0x1
 8463 03d6 53       		.byte	0x53
 8464 03d7 00000000 		.4byte	0
 8465 03db 00000000 		.4byte	0
 8466              	.LLST26:
 8467 03df 6A020000 		.4byte	.LVL56
 8468 03e3 72020000 		.4byte	.LVL57
 8469 03e7 0100     		.2byte	0x1
 8470 03e9 52       		.byte	0x52
 8471 03ea 00000000 		.4byte	0
 8472 03ee 00000000 		.4byte	0
 8473              	.LLST27:
 8474 03f2 A2020000 		.4byte	.LVL64
 8475 03f6 A9020000 		.4byte	.LVL65-1
 8476 03fa 0100     		.2byte	0x1
 8477 03fc 50       		.byte	0x50
 8478 03fd 00000000 		.4byte	0
 8479 0401 00000000 		.4byte	0
 8480              	.LLST28:
 8481 0405 BE020000 		.4byte	.LVL70
 8482 0409 CA020000 		.4byte	.LVL71
 8483 040d 0600     		.2byte	0x6
 8484 040f 0C       		.byte	0xc
 8485 0410 00006640 		.4byte	0x40660000
 8486 0414 9F       		.byte	0x9f
 8487 0415 00000000 		.4byte	0
 8488 0419 00000000 		.4byte	0
 8489              	.LLST29:
 8490 041d CA020000 		.4byte	.LVL71
 8491 0421 D2020000 		.4byte	.LVL72
 8492 0425 0600     		.2byte	0x6
 8493 0427 0C       		.byte	0xc
 8494 0428 00006640 		.4byte	0x40660000
 8495 042c 9F       		.byte	0x9f
 8496 042d 00000000 		.4byte	0
 8497 0431 00000000 		.4byte	0
 8498              	.LLST30:
 8499 0435 EE020000 		.4byte	.LVL73
 8500 0439 F6020000 		.4byte	.LVL74
 8501 043d 0100     		.2byte	0x1
 8502 043f 52       		.byte	0x52
 8503 0440 00000000 		.4byte	0
 8504 0444 00000000 		.4byte	0
 8505              	.LLST31:
 8506 0448 00000000 		.4byte	.LVL84
ARM GAS  C:\Users\salaz\AppData\Local\Temp\ccnyouLe.s 			page 198


 8507 044c 05000000 		.4byte	.LVL85-1
 8508 0450 0100     		.2byte	0x1
 8509 0452 50       		.byte	0x50
 8510 0453 05000000 		.4byte	.LVL85-1
 8511 0457 08000000 		.4byte	.LFE794
 8512 045b 0400     		.2byte	0x4
 8513 045d F3       		.byte	0xf3
 8514 045e 01       		.uleb128 0x1
 8515 045f 50       		.byte	0x50
 8516 0460 9F       		.byte	0x9f
 8517 0461 00000000 		.4byte	0
 8518 0465 00000000 		.4byte	0
 8519              	.LLST32:
 8520 0469 00000000 		.4byte	.LVL84
 8521 046d 05000000 		.4byte	.LVL85-1
 8522 0471 0100     		.2byte	0x1
 8523 0473 51       		.byte	0x51
 8524 0474 05000000 		.4byte	.LVL85-1
 8525 0478 08000000 		.4byte	.LFE794
 8526 047c 0400     		.2byte	0x4
 8527 047e F3       		.byte	0xf3
 8528 047f 01       		.uleb128 0x1
 8529 0480 51       		.byte	0x51
 8530 0481 9F       		.byte	0x9f
 8531 0482 00000000 		.4byte	0
 8532 0486 00000000 		.4byte	0
 8533              	.LLST33:
 8534 048a 00000000 		.4byte	.LVL86
 8535 048e 05000000 		.4byte	.LVL87-1
 8536 0492 0100     		.2byte	0x1
 8537 0494 50       		.byte	0x50
 8538 0495 05000000 		.4byte	.LVL87-1
 8539 0499 08000000 		.4byte	.LFE795
 8540 049d 0400     		.2byte	0x4
 8541 049f F3       		.byte	0xf3
 8542 04a0 01       		.uleb128 0x1
 8543 04a1 50       		.byte	0x50
 8544 04a2 9F       		.byte	0x9f
 8545 04a3 00000000 		.4byte	0
 8546 04a7 00000000 		.4byte	0
 8547              	.LLST34:
 8548 04ab 00000000 		.4byte	.LVL86
 8549 04af 05000000 		.4byte	.LVL87-1
 8550 04b3 0100     		.2byte	0x1
 8551 04b5 51       		.byte	0x51
 8552 04b6 05000000 		.4byte	.LVL87-1
 8553 04ba 08000000 		.4byte	.LFE795
 8554 04be 0400     		.2byte	0x4
 8555 04c0 F3       		.byte	0xf3
 8556 04c1 01       		.uleb128 0x1
 8557 04c2 51       		.byte	0x51
 8558 04c3 9F       		.byte	0x9f
 8559 04c4 00000000 		.4byte	0
 8560 04c8 00000000 		.4byte	0
 8561              	.LLST35:
 8562 04cc 00000000 		.4byte	.LVL88
 8563 04d0 10000000 		.4byte	.LVL90
ARM GAS  C:\Users\salaz\AppData\Local\Temp\ccnyouLe.s 			page 199


 8564 04d4 0100     		.2byte	0x1
 8565 04d6 50       		.byte	0x50
 8566 04d7 10000000 		.4byte	.LVL90
 8567 04db 60000000 		.4byte	.LVL96
 8568 04df 0400     		.2byte	0x4
 8569 04e1 F3       		.byte	0xf3
 8570 04e2 01       		.uleb128 0x1
 8571 04e3 50       		.byte	0x50
 8572 04e4 9F       		.byte	0x9f
 8573 04e5 60000000 		.4byte	.LVL96
 8574 04e9 62000000 		.4byte	.LVL97
 8575 04ed 0100     		.2byte	0x1
 8576 04ef 50       		.byte	0x50
 8577 04f0 62000000 		.4byte	.LVL97
 8578 04f4 74000000 		.4byte	.LFE796
 8579 04f8 0400     		.2byte	0x4
 8580 04fa F3       		.byte	0xf3
 8581 04fb 01       		.uleb128 0x1
 8582 04fc 50       		.byte	0x50
 8583 04fd 9F       		.byte	0x9f
 8584 04fe 00000000 		.4byte	0
 8585 0502 00000000 		.4byte	0
 8586              	.LLST36:
 8587 0506 00000000 		.4byte	.LVL88
 8588 050a 0C000000 		.4byte	.LVL89
 8589 050e 0100     		.2byte	0x1
 8590 0510 51       		.byte	0x51
 8591 0511 0C000000 		.4byte	.LVL89
 8592 0515 60000000 		.4byte	.LVL96
 8593 0519 0400     		.2byte	0x4
 8594 051b F3       		.byte	0xf3
 8595 051c 01       		.uleb128 0x1
 8596 051d 51       		.byte	0x51
 8597 051e 9F       		.byte	0x9f
 8598 051f 60000000 		.4byte	.LVL96
 8599 0523 64000000 		.4byte	.LVL98
 8600 0527 0100     		.2byte	0x1
 8601 0529 51       		.byte	0x51
 8602 052a 64000000 		.4byte	.LVL98
 8603 052e 74000000 		.4byte	.LFE796
 8604 0532 0400     		.2byte	0x4
 8605 0534 F3       		.byte	0xf3
 8606 0535 01       		.uleb128 0x1
 8607 0536 51       		.byte	0x51
 8608 0537 9F       		.byte	0x9f
 8609 0538 00000000 		.4byte	0
 8610 053c 00000000 		.4byte	0
 8611              	.LLST37:
 8612 0540 36000000 		.4byte	.LVL92
 8613 0544 40000000 		.4byte	.LVL93
 8614 0548 0100     		.2byte	0x1
 8615 054a 50       		.byte	0x50
 8616 054b 00000000 		.4byte	0
 8617 054f 00000000 		.4byte	0
 8618              	.LLST38:
 8619 0553 52000000 		.4byte	.LVL94
 8620 0557 59000000 		.4byte	.LVL95-1
ARM GAS  C:\Users\salaz\AppData\Local\Temp\ccnyouLe.s 			page 200


 8621 055b 0100     		.2byte	0x1
 8622 055d 50       		.byte	0x50
 8623 055e 00000000 		.4byte	0
 8624 0562 00000000 		.4byte	0
 8625              	.LLST39:
 8626 0566 10000000 		.4byte	.LVL110
 8627 056a 18000000 		.4byte	.LVL111
 8628 056e 0100     		.2byte	0x1
 8629 0570 50       		.byte	0x50
 8630 0571 00000000 		.4byte	0
 8631 0575 00000000 		.4byte	0
 8632              	.LLST40:
 8633 0579 2C000000 		.4byte	.LVL115
 8634 057d 38000000 		.4byte	.LVL116
 8635 0581 0600     		.2byte	0x6
 8636 0583 0C       		.byte	0xc
 8637 0584 00006640 		.4byte	0x40660000
 8638 0588 9F       		.byte	0x9f
 8639 0589 00000000 		.4byte	0
 8640 058d 00000000 		.4byte	0
 8641              	.LLST41:
 8642 0591 38000000 		.4byte	.LVL116
 8643 0595 40000000 		.4byte	.LVL117
 8644 0599 0600     		.2byte	0x6
 8645 059b 0C       		.byte	0xc
 8646 059c 00006640 		.4byte	0x40660000
 8647 05a0 9F       		.byte	0x9f
 8648 05a1 00000000 		.4byte	0
 8649 05a5 00000000 		.4byte	0
 8650              		.section	.debug_aranges,"",%progbits
 8651 0000 54000000 		.4byte	0x54
 8652 0004 0200     		.2byte	0x2
 8653 0006 00000000 		.4byte	.Ldebug_info0
 8654 000a 04       		.byte	0x4
 8655 000b 00       		.byte	0
 8656 000c 0000     		.2byte	0
 8657 000e 0000     		.2byte	0
 8658 0010 00000000 		.4byte	.LFB792
 8659 0014 84030000 		.4byte	.LFE792-.LFB792
 8660 0018 00000000 		.4byte	.LFB793
 8661 001c 74000000 		.4byte	.LFE793-.LFB793
 8662 0020 00000000 		.4byte	.LFB794
 8663 0024 08000000 		.4byte	.LFE794-.LFB794
 8664 0028 00000000 		.4byte	.LFB795
 8665 002c 08000000 		.4byte	.LFE795-.LFB795
 8666 0030 00000000 		.4byte	.LFB796
 8667 0034 74000000 		.4byte	.LFE796-.LFB796
 8668 0038 00000000 		.4byte	.LFB797
 8669 003c 24000000 		.4byte	.LFE797-.LFB797
 8670 0040 00000000 		.4byte	.LFB798
 8671 0044 F4000000 		.4byte	.LFE798-.LFB798
 8672 0048 00000000 		.4byte	.LFB799
 8673 004c 5C000000 		.4byte	.LFE799-.LFB799
 8674 0050 00000000 		.4byte	0
 8675 0054 00000000 		.4byte	0
 8676              		.section	.debug_ranges,"",%progbits
 8677              	.Ldebug_ranges0:
ARM GAS  C:\Users\salaz\AppData\Local\Temp\ccnyouLe.s 			page 201


 8678 0000 E2010000 		.4byte	.LBB37
 8679 0004 EA010000 		.4byte	.LBE37
 8680 0008 EE010000 		.4byte	.LBB42
 8681 000c 0C020000 		.4byte	.LBE42
 8682 0010 0E020000 		.4byte	.LBB43
 8683 0014 10020000 		.4byte	.LBE43
 8684 0018 14020000 		.4byte	.LBB44
 8685 001c 16020000 		.4byte	.LBE44
 8686 0020 00000000 		.4byte	0
 8687 0024 00000000 		.4byte	0
 8688 0028 EE010000 		.4byte	.LBB38
 8689 002c 06020000 		.4byte	.LBE38
 8690 0030 08020000 		.4byte	.LBB39
 8691 0034 0C020000 		.4byte	.LBE39
 8692 0038 0E020000 		.4byte	.LBB40
 8693 003c 10020000 		.4byte	.LBE40
 8694 0040 14020000 		.4byte	.LBB41
 8695 0044 16020000 		.4byte	.LBE41
 8696 0048 00000000 		.4byte	0
 8697 004c 00000000 		.4byte	0
 8698 0050 00000000 		.4byte	.LFB792
 8699 0054 84030000 		.4byte	.LFE792
 8700 0058 00000000 		.4byte	.LFB793
 8701 005c 74000000 		.4byte	.LFE793
 8702 0060 00000000 		.4byte	.LFB794
 8703 0064 08000000 		.4byte	.LFE794
 8704 0068 00000000 		.4byte	.LFB795
 8705 006c 08000000 		.4byte	.LFE795
 8706 0070 00000000 		.4byte	.LFB796
 8707 0074 74000000 		.4byte	.LFE796
 8708 0078 00000000 		.4byte	.LFB797
 8709 007c 24000000 		.4byte	.LFE797
 8710 0080 00000000 		.4byte	.LFB798
 8711 0084 F4000000 		.4byte	.LFE798
 8712 0088 00000000 		.4byte	.LFB799
 8713 008c 5C000000 		.4byte	.LFE799
 8714 0090 00000000 		.4byte	0
 8715 0094 00000000 		.4byte	0
 8716              		.section	.debug_line,"",%progbits
 8717              	.Ldebug_line0:
 8718 0000 FD070000 		.section	.debug_str,"MS",%progbits,1
 8718      02004D06 
 8718      00000201 
 8718      FB0E0D00 
 8718      01010101 
 8719              	.LASF860:
 8720 0000 43795F42 		.ascii	"Cy_BLE_GAP_GetBondList\000"
 8720      4C455F47 
 8720      41505F47 
 8720      6574426F 
 8720      6E644C69 
 8721              	.LASF213:
 8722 0017 52534552 		.ascii	"RSERVED1\000"
 8722      56454431 
 8722      00
 8723              	.LASF435:
 8724 0020 43595F42 		.ascii	"CY_BLE_EVT_PENDING_FLASH_WRITE\000"
ARM GAS  C:\Users\salaz\AppData\Local\Temp\ccnyouLe.s 			page 202


 8724      4C455F45 
 8724      56545F50 
 8724      454E4449 
 8724      4E475F46 
 8725              	.LASF515:
 8726 003f 43595F42 		.ascii	"CY_BLE_EVT_GATTC_READ_BY_TYPE_RSP\000"
 8726      4C455F45 
 8726      56545F47 
 8726      41545443 
 8726      5F524541 
 8727              	.LASF669:
 8728 0061 64697265 		.ascii	"directAddr\000"
 8728      63744164 
 8728      647200
 8729              	.LASF640:
 8730 006c 63795F73 		.ascii	"cy_stc_ble_gap_bd_addr_info_t\000"
 8730      74635F62 
 8730      6C655F67 
 8730      61705F62 
 8730      645F6164 
 8731              	.LASF676:
 8732 008a 7363616E 		.ascii	"scanRspData\000"
 8732      52737044 
 8732      61746100 
 8733              	.LASF219:
 8734 0096 73697A65 		.ascii	"sizetype\000"
 8734      74797065 
 8734      00
 8735              	.LASF751:
 8736 009f 7478506F 		.ascii	"txPowerLevelConn\000"
 8736      7765724C 
 8736      6576656C 
 8736      436F6E6E 
 8736      00
 8737              	.LASF530:
 8738 00b0 43595F42 		.ascii	"CY_BLE_EVT_GATTS_DATA_SIGNED_CMD_REQ\000"
 8738      4C455F45 
 8738      56545F47 
 8738      41545453 
 8738      5F444154 
 8739              	.LASF469:
 8740 00d5 43595F42 		.ascii	"CY_BLE_EVT_SET_CLK_CONFIG_COMPLETE\000"
 8740      4C455F45 
 8740      56545F53 
 8740      45545F43 
 8740      4C4B5F43 
 8741              	.LASF556:
 8742 00f8 43595F42 		.ascii	"CY_BLE_ERROR_REPEATED_ATTEMPTS\000"
 8742      4C455F45 
 8742      52524F52 
 8742      5F524550 
 8742      45415445 
 8743              	.LASF369:
 8744 0117 43595F53 		.ascii	"CY_SCB_UART_SMARTCARD\000"
 8744      43425F55 
 8744      4152545F 
 8744      534D4152 
ARM GAS  C:\Users\salaz\AppData\Local\Temp\ccnyouLe.s 			page 203


 8744      54434152 
 8745              	.LASF463:
 8746 012d 43595F42 		.ascii	"CY_BLE_EVT_SET_DEVICE_ADDR_COMPLETE\000"
 8746      4C455F45 
 8746      56545F53 
 8746      45545F44 
 8746      45564943 
 8747              	.LASF250:
 8748 0151 52585F4D 		.ascii	"RX_MATCH\000"
 8748      41544348 
 8748      00
 8749              	.LASF543:
 8750 015a 43595F42 		.ascii	"CY_BLE_EVT_L2CAP_CBFC_TX_CREDIT_IND\000"
 8750      4C455F45 
 8750      56545F4C 
 8750      32434150 
 8750      5F434246 
 8751              	.LASF856:
 8752 017e 69735F63 		.ascii	"is_connected\000"
 8752      6F6E6E65 
 8752      63746564 
 8752      00
 8753              	.LASF611:
 8754 018b 43595F42 		.ascii	"CY_BLE_GAP_AUTH_ERROR_PASSKEY_ENTRY_FAILED\000"
 8754      4C455F47 
 8754      41505F41 
 8754      5554485F 
 8754      4552524F 
 8755              	.LASF415:
 8756 01b6 63795F73 		.ascii	"cy_stc_scb_uart_context\000"
 8756      74635F73 
 8756      63625F75 
 8756      6172745F 
 8756      636F6E74 
 8757              	.LASF862:
 8758 01ce 43795F42 		.ascii	"Cy_BLE_GATTS_WriteRsp\000"
 8758      4C455F47 
 8758      41545453 
 8758      5F577269 
 8758      74655273 
 8759              	.LASF782:
 8760 01e4 64656E6F 		.ascii	"denominator\000"
 8760      6D696E61 
 8760      746F7200 
 8761              	.LASF55:
 8762 01f0 696F7373 		.ascii	"ioss_interrupts_gpio_13_IRQn\000"
 8762      5F696E74 
 8762      65727275 
 8762      7074735F 
 8762      6770696F 
 8763              	.LASF859:
 8764 020d 43795F42 		.ascii	"Cy_BLE_GAP_AuthReq\000"
 8764      4C455F47 
 8764      41505F41 
 8764      75746852 
 8764      657100
 8765              	.LASF830:
ARM GAS  C:\Users\salaz\AppData\Local\Temp\ccnyouLe.s 			page 204


 8766 0220 795F6861 		.ascii	"y_handleVal\000"
 8766      6E646C65 
 8766      56616C00 
 8767              	.LASF257:
 8768 022c 494E5452 		.ascii	"INTR_CAUSE\000"
 8768      5F434155 
 8768      534500
 8769              	.LASF229:
 8770 0237 55415254 		.ascii	"UART_CTRL\000"
 8770      5F435452 
 8770      4C00
 8771              	.LASF313:
 8772 0241 63617074 		.ascii	"captureInputMode\000"
 8772      75726549 
 8772      6E707574 
 8772      4D6F6465 
 8772      00
 8773              	.LASF422:
 8774 0252 72784275 		.ascii	"rxBuf\000"
 8774      6600
 8775              	.LASF462:
 8776 0258 43595F42 		.ascii	"CY_BLE_EVT_SOFT_RESET_COMPLETE\000"
 8776      4C455F45 
 8776      56545F53 
 8776      4F46545F 
 8776      52455345 
 8777              	.LASF791:
 8778 0277 7761735F 		.ascii	"was_advertising\000"
 8778      61647665 
 8778      72746973 
 8778      696E6700 
 8779              	.LASF636:
 8780 0287 63795F73 		.ascii	"cy_stc_ble_gap_peer_addr_info_t\000"
 8780      74635F62 
 8780      6C655F67 
 8780      61705F70 
 8780      6565725F 
 8781              	.LASF614:
 8782 02a7 43595F42 		.ascii	"CY_BLE_GAP_AUTH_ERROR_CONFIRM_VALUE_NOT_MATCH\000"
 8782      4C455F47 
 8782      41505F41 
 8782      5554485F 
 8782      4552524F 
 8783              	.LASF790:
 8784 02d5 6576656E 		.ascii	"eventParam\000"
 8784      74506172 
 8784      616D00
 8785              	.LASF586:
 8786 02e0 63795F65 		.ascii	"cy_en_ble_bless_pwr_lvl_t\000"
 8786      6E5F626C 
 8786      655F626C 
 8786      6573735F 
 8786      7077725F 
 8787              	.LASF133:
 8788 02fa 74637077 		.ascii	"tcpwm_0_interrupts_1_IRQn\000"
 8788      6D5F305F 
 8788      696E7465 
ARM GAS  C:\Users\salaz\AppData\Local\Temp\ccnyouLe.s 			page 205


 8788      72727570 
 8788      74735F31 
 8789              	.LASF15:
 8790 0314 4E766963 		.ascii	"NvicMux7_IRQn\000"
 8790      4D757837 
 8790      5F495251 
 8790      6E00
 8791              	.LASF547:
 8792 0322 43595F42 		.ascii	"CY_BLE_INFO_FLASH_WRITE_IN_PROGRESS\000"
 8792      4C455F49 
 8792      4E464F5F 
 8792      464C4153 
 8792      485F5752 
 8793              	.LASF38:
 8794 0346 4E766963 		.ascii	"NvicMux30_IRQn\000"
 8794      4D757833 
 8794      305F4952 
 8794      516E00
 8795              	.LASF468:
 8796 0355 43595F42 		.ascii	"CY_BLE_EVT_GET_CLK_CONFIG_COMPLETE\000"
 8796      4C455F45 
 8796      56545F47 
 8796      45545F43 
 8796      4C4B5F43 
 8797              	.LASF694:
 8798 0378 43595F42 		.ascii	"CY_BLE_CONN_STATE_CLIENT_DESCR_DISCOVERING\000"
 8798      4C455F43 
 8798      4F4E4E5F 
 8798      53544154 
 8798      455F434C 
 8799              	.LASF526:
 8800 03a3 43595F42 		.ascii	"CY_BLE_EVT_GATTC_EXEC_WRITE_RSP\000"
 8800      4C455F45 
 8800      56545F47 
 8800      41545443 
 8800      5F455845 
 8801              	.LASF826:
 8802 03c3 785F6461 		.ascii	"x_data\000"
 8802      746100
 8803              	.LASF474:
 8804 03ca 43595F42 		.ascii	"CY_BLE_EVT_SET_SLAVE_LATENCY_MODE_COMPLETE\000"
 8804      4C455F45 
 8804      56545F53 
 8804      45545F53 
 8804      4C415645 
 8805              	.LASF295:
 8806 03f5 75696E74 		.ascii	"uint32\000"
 8806      333200
 8807              	.LASF880:
 8808 03fc 43795F42 		.ascii	"Cy_BLE_BAS_Init\000"
 8808      4C455F42 
 8808      41535F49 
 8808      6E697400 
 8809              	.LASF71:
 8810 040c 63707573 		.ascii	"cpuss_interrupts_ipc_4_IRQn\000"
 8810      735F696E 
 8810      74657272 
ARM GAS  C:\Users\salaz\AppData\Local\Temp\ccnyouLe.s 			page 206


 8810      75707473 
 8810      5F697063 
 8811              	.LASF139:
 8812 0428 74637077 		.ascii	"tcpwm_0_interrupts_7_IRQn\000"
 8812      6D5F305F 
 8812      696E7465 
 8812      72727570 
 8812      74735F37 
 8813              	.LASF47:
 8814 0442 696F7373 		.ascii	"ioss_interrupts_gpio_5_IRQn\000"
 8814      5F696E74 
 8814      65727275 
 8814      7074735F 
 8814      6770696F 
 8815              	.LASF655:
 8816 045e 7363616E 		.ascii	"scanFilterPolicy\000"
 8816      46696C74 
 8816      6572506F 
 8816      6C696379 
 8816      00
 8817              	.LASF773:
 8818 046f 63706664 		.ascii	"cpfdHandle\000"
 8818      48616E64 
 8818      6C6500
 8819              	.LASF437:
 8820 047a 43595F42 		.ascii	"CY_BLE_EVT_HARDWARE_ERROR\000"
 8820      4C455F45 
 8820      56545F48 
 8820      41524457 
 8820      4152455F 
 8821              	.LASF88:
 8822 0494 7363625F 		.ascii	"scb_5_interrupt_IRQn\000"
 8822      355F696E 
 8822      74657272 
 8822      7570745F 
 8822      4952516E 
 8823              	.LASF877:
 8824 04a9 54784275 		.ascii	"TxBuffer_Init\000"
 8824      66666572 
 8824      5F496E69 
 8824      7400
 8825              	.LASF392:
 8826 04b7 656E6162 		.ascii	"enableMsbFirst\000"
 8826      6C654D73 
 8826      62466972 
 8826      737400
 8827              	.LASF812:
 8828 04c6 5472616E 		.ascii	"Transmission_CheckInbox\000"
 8828      736D6973 
 8828      73696F6E 
 8828      5F436865 
 8828      636B496E 
 8829              	.LASF679:
 8830 04de 64697363 		.ascii	"discMode\000"
 8830      4D6F6465 
 8830      00
 8831              	.LASF678:
ARM GAS  C:\Users\salaz\AppData\Local\Temp\ccnyouLe.s 			page 207


 8832 04e7 63795F73 		.ascii	"cy_stc_ble_gapp_scan_rsp_data_t\000"
 8832      74635F62 
 8832      6C655F67 
 8832      6170705F 
 8832      7363616E 
 8833              	.LASF113:
 8834 0507 63707573 		.ascii	"cpuss_interrupts_dw1_5_IRQn\000"
 8834      735F696E 
 8834      74657272 
 8834      75707473 
 8834      5F647731 
 8835              	.LASF416:
 8836 0523 74785374 		.ascii	"txStatus\000"
 8836      61747573 
 8836      00
 8837              	.LASF545:
 8838 052c 43595F42 		.ascii	"CY_BLE_EVT_MAX\000"
 8838      4C455F45 
 8838      56545F4D 
 8838      415800
 8839              	.LASF177:
 8840 053b 7564625F 		.ascii	"udb_interrupts_13_IRQn\000"
 8840      696E7465 
 8840      72727570 
 8840      74735F31 
 8840      335F4952 
 8841              	.LASF146:
 8842 0552 74637077 		.ascii	"tcpwm_1_interrupts_6_IRQn\000"
 8842      6D5F315F 
 8842      696E7465 
 8842      72727570 
 8842      74735F36 
 8843              	.LASF127:
 8844 056c 63707573 		.ascii	"cpuss_interrupt_fm_IRQn\000"
 8844      735F696E 
 8844      74657272 
 8844      7570745F 
 8844      666D5F49 
 8845              	.LASF348:
 8846 0584 73746174 		.ascii	"state\000"
 8846      6500
 8847              	.LASF608:
 8848 058a 43595F42 		.ascii	"CY_BLE_GAP_IOCAP_KEYBOARD_DISPLAY\000"
 8848      4C455F47 
 8848      41505F49 
 8848      4F434150 
 8848      5F4B4559 
 8849              	.LASF167:
 8850 05ac 7564625F 		.ascii	"udb_interrupts_3_IRQn\000"
 8850      696E7465 
 8850      72727570 
 8850      74735F33 
 8850      5F495251 
 8851              	.LASF595:
 8852 05c2 63795F73 		.ascii	"cy_stc_ble_gatt_handle_value_pair_t\000"
 8852      74635F62 
 8852      6C655F67 
ARM GAS  C:\Users\salaz\AppData\Local\Temp\ccnyouLe.s 			page 208


 8852      6174745F 
 8852      68616E64 
 8853              	.LASF713:
 8854 05e6 66617374 		.ascii	"fastScanWindow\000"
 8854      5363616E 
 8854      57696E64 
 8854      6F7700
 8855              	.LASF706:
 8856 05f5 66617374 		.ascii	"fastAdvTimeOut\000"
 8856      41647654 
 8856      696D654F 
 8856      757400
 8857              	.LASF887:
 8858 0604 70757473 		.ascii	"puts\000"
 8858      00
 8859              	.LASF269:
 8860 0609 494E5452 		.ascii	"INTR_M\000"
 8860      5F4D00
 8861              	.LASF411:
 8862 0610 72784669 		.ascii	"rxFifoIntEnableMask\000"
 8862      666F496E 
 8862      74456E61 
 8862      626C654D 
 8862      61736B00 
 8863              	.LASF728:
 8864 0624 63795F73 		.ascii	"cy_stc_ble_gatts_att_gen_val_len_t\000"
 8864      74635F62 
 8864      6C655F67 
 8864      61747473 
 8864      5F617474 
 8865              	.LASF8:
 8866 0647 4E766963 		.ascii	"NvicMux0_IRQn\000"
 8866      4D757830 
 8866      5F495251 
 8866      6E00
 8867              	.LASF309:
 8868 0655 636F6D70 		.ascii	"compare0\000"
 8868      61726530 
 8868      00
 8869              	.LASF310:
 8870 065e 636F6D70 		.ascii	"compare1\000"
 8870      61726531 
 8870      00
 8871              	.LASF618:
 8872 0667 43595F42 		.ascii	"CY_BLE_GAP_AUTH_ERROR_UNSPECIFIED_REASON\000"
 8872      4C455F47 
 8872      41505F41 
 8872      5554485F 
 8872      4552524F 
 8873              	.LASF816:
 8874 0690 696E7465 		.ascii	"interval_ms\000"
 8874      7276616C 
 8874      5F6D7300 
 8875              	.LASF788:
 8876 069c 4952516E 		.ascii	"IRQn\000"
 8876      00
 8877              	.LASF737:
ARM GAS  C:\Users\salaz\AppData\Local\Temp\ccnyouLe.s 			page 209


 8878 06a1 7065726D 		.ascii	"permission\000"
 8878      69737369 
 8878      6F6E00
 8879              	.LASF54:
 8880 06ac 696F7373 		.ascii	"ioss_interrupts_gpio_12_IRQn\000"
 8880      5F696E74 
 8880      65727275 
 8880      7074735F 
 8880      6770696F 
 8881              	.LASF578:
 8882 06c9 74797065 		.ascii	"type\000"
 8882      00
 8883              	.LASF103:
 8884 06ce 63707573 		.ascii	"cpuss_interrupts_dw0_11_IRQn\000"
 8884      735F696E 
 8884      74657272 
 8884      75707473 
 8884      5F647730 
 8885              	.LASF662:
 8886 06eb 43595F42 		.ascii	"CY_BLE_GAPP_NON_CONNECTABLE_UNDIRECTED_ADV\000"
 8886      4C455F47 
 8886      4150505F 
 8886      4E4F4E5F 
 8886      434F4E4E 
 8887              	.LASF410:
 8888 0716 72784669 		.ascii	"rxFifoTriggerLevel\000"
 8888      666F5472 
 8888      69676765 
 8888      724C6576 
 8888      656C00
 8889              	.LASF189:
 8890 0729 64697363 		.ascii	"disconnected_IRQn\000"
 8890      6F6E6E65 
 8890      63746564 
 8890      5F495251 
 8890      6E00
 8891              	.LASF184:
 8892 073b 736D6966 		.ascii	"smif_interrupt_IRQn\000"
 8892      5F696E74 
 8892      65727275 
 8892      70745F49 
 8892      52516E00 
 8893              	.LASF154:
 8894 074f 74637077 		.ascii	"tcpwm_1_interrupts_14_IRQn\000"
 8894      6D5F315F 
 8894      696E7465 
 8894      72727570 
 8894      74735F31 
 8895              	.LASF810:
 8896 076a 6E746648 		.ascii	"ntfHandle\000"
 8896      616E646C 
 8896      6500
 8897              	.LASF461:
 8898 0774 43595F42 		.ascii	"CY_BLE_EVT_LL_CNTRL_PROC_PENDING_COMPLETE\000"
 8898      4C455F45 
 8898      56545F4C 
 8898      4C5F434E 
ARM GAS  C:\Users\salaz\AppData\Local\Temp\ccnyouLe.s 			page 210


 8898      54524C5F 
 8899              	.LASF123:
 8900 079e 63707573 		.ascii	"cpuss_interrupts_dw1_15_IRQn\000"
 8900      735F696E 
 8900      74657272 
 8900      75707473 
 8900      5F647731 
 8901              	.LASF321:
 8902 07bb 636F756E 		.ascii	"countInputMode\000"
 8902      74496E70 
 8902      75744D6F 
 8902      646500
 8903              	.LASF628:
 8904 07ca 43595F42 		.ascii	"CY_BLE_GAP_RANDOM_PRIV_NON_RESOLVABLE_ADDR\000"
 8904      4C455F47 
 8904      41505F52 
 8904      414E444F 
 8904      4D5F5052 
 8905              	.LASF284:
 8906 07f5 494E5452 		.ascii	"INTR_RX\000"
 8906      5F525800 
 8907              	.LASF216:
 8908 07fd 49435052 		.ascii	"ICPR\000"
 8908      00
 8909              	.LASF238:
 8910 0802 4932435F 		.ascii	"I2C_CFG\000"
 8910      43464700 
 8911              	.LASF797:
 8912 080a 76616C30 		.ascii	"val0\000"
 8912      00
 8913              	.LASF649:
 8914 080f 63795F73 		.ascii	"cy_stc_ble_gap_bonded_device_list_info_t\000"
 8914      74635F62 
 8914      6C655F67 
 8914      61705F62 
 8914      6F6E6465 
 8915              	.LASF339:
 8916 0838 63795F73 		.ascii	"cy_stc_tcpwm_pwm_config_t\000"
 8916      74635F74 
 8916      6370776D 
 8916      5F70776D 
 8916      5F636F6E 
 8917              	.LASF800:
 8918 0852 76616C33 		.ascii	"val3\000"
 8918      00
 8919              	.LASF96:
 8920 0857 63707573 		.ascii	"cpuss_interrupts_dw0_4_IRQn\000"
 8920      735F696E 
 8920      74657272 
 8920      75707473 
 8920      5F647730 
 8921              	.LASF802:
 8922 0873 76616C35 		.ascii	"val5\000"
 8922      00
 8923              	.LASF772:
 8924 0878 62617474 		.ascii	"batteryLevelHandle\000"
 8924      6572794C 
ARM GAS  C:\Users\salaz\AppData\Local\Temp\ccnyouLe.s 			page 211


 8924      6576656C 
 8924      48616E64 
 8924      6C6500
 8925              	.LASF853:
 8926 088b 4368696D 		.ascii	"ChimeOutput_config\000"
 8926      654F7574 
 8926      7075745F 
 8926      636F6E66 
 8926      696700
 8927              	.LASF504:
 8928 089e 43595F42 		.ascii	"CY_BLE_EVT_GAP_GEN_SET_LOCAL_P256_KEYS_COMPLETE\000"
 8928      4C455F45 
 8928      56545F47 
 8928      41505F47 
 8928      454E5F53 
 8929              	.LASF70:
 8930 08ce 63707573 		.ascii	"cpuss_interrupts_ipc_3_IRQn\000"
 8930      735F696E 
 8930      74657272 
 8930      75707473 
 8930      5F697063 
 8931              	.LASF138:
 8932 08ea 74637077 		.ascii	"tcpwm_0_interrupts_6_IRQn\000"
 8932      6D5F305F 
 8932      696E7465 
 8932      72727570 
 8932      74735F36 
 8933              	.LASF171:
 8934 0904 7564625F 		.ascii	"udb_interrupts_7_IRQn\000"
 8934      696E7465 
 8934      72727570 
 8934      74735F37 
 8934      5F495251 
 8935              	.LASF46:
 8936 091a 696F7373 		.ascii	"ioss_interrupts_gpio_4_IRQn\000"
 8936      5F696E74 
 8936      65727275 
 8936      7074735F 
 8936      6770696F 
 8937              	.LASF533:
 8938 0936 43595F42 		.ascii	"CY_BLE_EVT_GATTC_LONG_PROCEDURE_END\000"
 8938      4C455F45 
 8938      56545F47 
 8938      41545443 
 8938      5F4C4F4E 
 8939              	.LASF21:
 8940 095a 4E766963 		.ascii	"NvicMux13_IRQn\000"
 8940      4D757831 
 8940      335F4952 
 8940      516E00
 8941              	.LASF248:
 8942 0969 52585F46 		.ascii	"RX_FIFO_STATUS\000"
 8942      49464F5F 
 8942      53544154 
 8942      555300
 8943              	.LASF538:
 8944 0978 43595F42 		.ascii	"CY_BLE_EVT_L2CAP_CBFC_CONN_CNF\000"
ARM GAS  C:\Users\salaz\AppData\Local\Temp\ccnyouLe.s 			page 212


 8944      4C455F45 
 8944      56545F4C 
 8944      32434150 
 8944      5F434246 
 8945              	.LASF587:
 8946 0997 62644861 		.ascii	"bdHandle\000"
 8946      6E646C65 
 8946      00
 8947              	.LASF697:
 8948 09a0 73657276 		.ascii	"serviceHandle\000"
 8948      69636548 
 8948      616E646C 
 8948      6500
 8949              	.LASF193:
 8950 09ae 5F5F7569 		.ascii	"__uint8_t\000"
 8950      6E74385F 
 8950      7400
 8951              	.LASF487:
 8952 09b8 43595F42 		.ascii	"CY_BLE_EVT_GAP_AUTH_FAILED\000"
 8952      4C455F45 
 8952      56545F47 
 8952      41505F41 
 8952      5554485F 
 8953              	.LASF111:
 8954 09d3 63707573 		.ascii	"cpuss_interrupts_dw1_3_IRQn\000"
 8954      735F696E 
 8954      74657272 
 8954      75707473 
 8954      5F647731 
 8955              	.LASF299:
 8956 09ef 696E7472 		.ascii	"intrSrc\000"
 8956      53726300 
 8957              	.LASF286:
 8958 09f7 494E5452 		.ascii	"INTR_RX_MASK\000"
 8958      5F52585F 
 8958      4D41534B 
 8958      00
 8959              	.LASF864:
 8960 0a04 43795F42 		.ascii	"Cy_BLE_GAP_RemoveOldestDeviceFromBondedList\000"
 8960      4C455F47 
 8960      41505F52 
 8960      656D6F76 
 8960      654F6C64 
 8961              	.LASF672:
 8962 0a30 63795F73 		.ascii	"cy_stc_ble_gapp_disc_param_t\000"
 8962      74635F62 
 8962      6C655F67 
 8962      6170705F 
 8962      64697363 
 8963              	.LASF817:
 8964 0a4d 696E7465 		.ascii	"interval\000"
 8964      7276616C 
 8964      00
 8965              	.LASF346:
 8966 0a56 75736552 		.ascii	"useRxFifo\000"
 8966      78466966 
 8966      6F00
ARM GAS  C:\Users\salaz\AppData\Local\Temp\ccnyouLe.s 			page 213


 8967              	.LASF622:
 8968 0a60 43595F42 		.ascii	"CY_BLE_GAP_AUTH_ERROR_NUMERIC_COMPARISON_FAILED\000"
 8968      4C455F47 
 8968      41505F41 
 8968      5554485F 
 8968      4552524F 
 8969              	.LASF397:
 8970 0a90 64726F70 		.ascii	"dropOnFrameError\000"
 8970      4F6E4672 
 8970      616D6545 
 8970      72726F72 
 8970      00
 8971              	.LASF528:
 8972 0aa1 43595F42 		.ascii	"CY_BLE_EVT_GATTC_HANDLE_VALUE_IND\000"
 8972      4C455F45 
 8972      56545F47 
 8972      41545443 
 8972      5F48414E 
 8973              	.LASF627:
 8974 0ac3 63795F65 		.ascii	"cy_en_ble_gap_auth_failed_reason_t\000"
 8974      6E5F626C 
 8974      655F6761 
 8974      705F6175 
 8974      74685F66 
 8975              	.LASF336:
 8976 0ae6 73776170 		.ascii	"swapInput\000"
 8976      496E7075 
 8976      7400
 8977              	.LASF779:
 8978 0af0 785F7261 		.ascii	"x_raw\000"
 8978      7700
 8979              	.LASF815:
 8980 0af6 74696D65 		.ascii	"timeout_s\000"
 8980      6F75745F 
 8980      7300
 8981              	.LASF426:
 8982 0b00 74784275 		.ascii	"txBufSize\000"
 8982      6653697A 
 8982      6500
 8983              	.LASF603:
 8984 0b0a 43595F42 		.ascii	"CY_BLE_GAP_SEC_LEVEL_MASK\000"
 8984      4C455F47 
 8984      41505F53 
 8984      45435F4C 
 8984      4556454C 
 8985              	.LASF820:
 8986 0b24 64697363 		.ascii	"disconnectInfo\000"
 8986      6F6E6E65 
 8986      6374496E 
 8986      666F00
 8987              	.LASF433:
 8988 0b33 43595F42 		.ascii	"CY_BLE_EVT_STACK_BUSY_STATUS\000"
 8988      4C455F45 
 8988      56545F53 
 8988      5441434B 
 8988      5F425553 
 8989              	.LASF824:
ARM GAS  C:\Users\salaz\AppData\Local\Temp\ccnyouLe.s 			page 214


 8990 0b50 795F7661 		.ascii	"y_val\000"
 8990      6C00
 8991              	.LASF297:
 8992 0b56 75696E74 		.ascii	"uint64\000"
 8992      363400
 8993              	.LASF198:
 8994 0b5d 6C6F6E67 		.ascii	"long int\000"
 8994      20696E74 
 8994      00
 8995              	.LASF512:
 8996 0b66 43595F42 		.ascii	"CY_BLE_EVT_GATTS_XCNHG_MTU_REQ\000"
 8996      4C455F45 
 8996      56545F47 
 8996      41545453 
 8996      5F58434E 
 8997              	.LASF479:
 8998 0b85 43595F42 		.ascii	"CY_BLE_EVT_SET_EVENT_MASK_COMPLETE\000"
 8998      4C455F45 
 8998      56545F53 
 8998      45545F45 
 8998      56454E54 
 8999              	.LASF858:
 9000 0ba8 43795F42 		.ascii	"Cy_BLE_SetLocalName\000"
 9000      4C455F53 
 9000      65744C6F 
 9000      63616C4E 
 9000      616D6500 
 9001              	.LASF709:
 9002 0bbc 736C6F77 		.ascii	"slowAdvIntervalMax\000"
 9002      41647649 
 9002      6E746572 
 9002      76616C4D 
 9002      617800
 9003              	.LASF361:
 9004 0bcf 736C6176 		.ascii	"slaveTxBufferCnt\000"
 9004      65547842 
 9004      75666665 
 9004      72436E74 
 9004      00
 9005              	.LASF164:
 9006 0be0 7564625F 		.ascii	"udb_interrupts_0_IRQn\000"
 9006      696E7465 
 9006      72727570 
 9006      74735F30 
 9006      5F495251 
 9007              	.LASF153:
 9008 0bf6 74637077 		.ascii	"tcpwm_1_interrupts_13_IRQn\000"
 9008      6D5F315F 
 9008      696E7465 
 9008      72727570 
 9008      74735F31 
 9009              	.LASF521:
 9010 0c11 43595F42 		.ascii	"CY_BLE_EVT_GATTS_WRITE_REQ\000"
 9010      4C455F45 
 9010      56545F47 
 9010      41545453 
 9010      5F575249 
ARM GAS  C:\Users\salaz\AppData\Local\Temp\ccnyouLe.s 			page 215


 9011              	.LASF593:
 9012 0c2c 76616C75 		.ascii	"value\000"
 9012      6500
 9013              	.LASF226:
 9014 0c32 5350495F 		.ascii	"SPI_CTRL\000"
 9014      4354524C 
 9014      00
 9015              	.LASF534:
 9016 0c3b 43595F42 		.ascii	"CY_BLE_EVT_L2CAP_CONN_PARAM_UPDATE_REQ\000"
 9016      4C455F45 
 9016      56545F4C 
 9016      32434150 
 9016      5F434F4E 
 9017              	.LASF31:
 9018 0c62 4E766963 		.ascii	"NvicMux23_IRQn\000"
 9018      4D757832 
 9018      335F4952 
 9018      516E00
 9019              	.LASF315:
 9020 0c71 72656C6F 		.ascii	"reloadInputMode\000"
 9020      6164496E 
 9020      7075744D 
 9020      6F646500 
 9021              	.LASF279:
 9022 0c81 494E5452 		.ascii	"INTR_TX\000"
 9022      5F545800 
 9023              	.LASF592:
 9024 0c89 63795F73 		.ascii	"cy_stc_ble_gatt_value_t\000"
 9024      74635F62 
 9024      6C655F67 
 9024      6174745F 
 9024      76616C75 
 9025              	.LASF749:
 9026 0ca1 63795F73 		.ascii	"cy_stc_ble_flash_storage_t\000"
 9026      74635F62 
 9026      6C655F66 
 9026      6C617368 
 9026      5F73746F 
 9027              	.LASF282:
 9028 0cbc 494E5452 		.ascii	"INTR_TX_MASKED\000"
 9028      5F54585F 
 9028      4D41534B 
 9028      454400
 9029              	.LASF869:
 9030 0ccb 43795F42 		.ascii	"Cy_BLE_StoreBondingData\000"
 9030      4C455F53 
 9030      746F7265 
 9030      426F6E64 
 9030      696E6744 
 9031              	.LASF651:
 9032 0ce3 7363616E 		.ascii	"scanType\000"
 9032      54797065 
 9032      00
 9033              	.LASF298:
 9034 0cec 63686172 		.ascii	"char8\000"
 9034      3800
 9035              	.LASF580:
ARM GAS  C:\Users\salaz\AppData\Local\Temp\ccnyouLe.s 			page 216


 9036 0cf2 43595F42 		.ascii	"CY_BLE_LL_PWR_LVL_NEG_20_DBM\000"
 9036      4C455F4C 
 9036      4C5F5057 
 9036      525F4C56 
 9036      4C5F4E45 
 9037              	.LASF170:
 9038 0d0f 7564625F 		.ascii	"udb_interrupts_6_IRQn\000"
 9038      696E7465 
 9038      72727570 
 9038      74735F36 
 9038      5F495251 
 9039              	.LASF460:
 9040 0d25 43595F42 		.ascii	"CY_BLE_EVT_SET_PRIVACY_MODE_COMPLETE\000"
 9040      4C455F45 
 9040      56545F53 
 9040      45545F50 
 9040      52495641 
 9041              	.LASF195:
 9042 0d4a 5F5F7569 		.ascii	"__uint16_t\000"
 9042      6E743136 
 9042      5F7400
 9043              	.LASF78:
 9044 0d55 63707573 		.ascii	"cpuss_interrupts_ipc_11_IRQn\000"
 9044      735F696E 
 9044      74657272 
 9044      75707473 
 9044      5F697063 
 9045              	.LASF625:
 9046 0d72 43595F42 		.ascii	"CY_BLE_GAP_AUTH_ERROR_AUTHENTICATION_TIMEOUT\000"
 9046      4C455F47 
 9046      41505F41 
 9046      5554485F 
 9046      4552524F 
 9047              	.LASF491:
 9048 0d9f 43595F42 		.ascii	"CY_BLE_EVT_GAP_ENCRYPT_CHANGE\000"
 9048      4C455F45 
 9048      56545F47 
 9048      41505F45 
 9048      4E435259 
 9049              	.LASF9:
 9050 0dbd 4E766963 		.ascii	"NvicMux1_IRQn\000"
 9050      4D757831 
 9050      5F495251 
 9050      6E00
 9051              	.LASF883:
 9052 0dcb 5472616E 		.ascii	"Transmission.c\000"
 9052      736D6973 
 9052      73696F6E 
 9052      2E6300
 9053              	.LASF505:
 9054 0dda 43595F42 		.ascii	"CY_BLE_EVT_GAP_CREATE_CONN_CANCEL_COMPLETE\000"
 9054      4C455F45 
 9054      56545F47 
 9054      41505F43 
 9054      52454154 
 9055              	.LASF451:
 9056 0e05 43595F42 		.ascii	"CY_BLE_EVT_SET_HOST_CHANNEL_COMPLETE\000"
ARM GAS  C:\Users\salaz\AppData\Local\Temp\ccnyouLe.s 			page 217


 9056      4C455F45 
 9056      56545F53 
 9056      45545F48 
 9056      4F53545F 
 9057              	.LASF844:
 9058 0e2a 55415254 		.ascii	"UART_DEBUG_config\000"
 9058      5F444542 
 9058      55475F63 
 9058      6F6E6669 
 9058      6700
 9059              	.LASF231:
 9060 0e3c 55415254 		.ascii	"UART_RX_CTRL\000"
 9060      5F52585F 
 9060      4354524C 
 9060      00
 9061              	.LASF703:
 9062 0e49 63795F73 		.ascii	"cy_stc_ble_gaps_t\000"
 9062      74635F62 
 9062      6C655F67 
 9062      6170735F 
 9062      7400
 9063              	.LASF838:
 9064 0e5b 63795F62 		.ascii	"cy_ble_pendingFlashWrite\000"
 9064      6C655F70 
 9064      656E6469 
 9064      6E67466C 
 9064      61736857 
 9065              	.LASF285:
 9066 0e74 494E5452 		.ascii	"INTR_RX_SET\000"
 9066      5F52585F 
 9066      53455400 
 9067              	.LASF809:
 9068 0e80 64617461 		.ascii	"data\000"
 9068      00
 9069              	.LASF684:
 9070 0e85 43595F42 		.ascii	"CY_BLE_ADV_STATE_ADV_INITIATED\000"
 9070      4C455F41 
 9070      44565F53 
 9070      54415445 
 9070      5F414456 
 9071              	.LASF736:
 9072 0ea4 61747454 		.ascii	"attType\000"
 9072      79706500 
 9073              	.LASF432:
 9074 0eac 43595F42 		.ascii	"CY_BLE_EVT_TIMEOUT\000"
 9074      4C455F45 
 9074      56545F54 
 9074      494D454F 
 9074      555400
 9075              	.LASF110:
 9076 0ebf 63707573 		.ascii	"cpuss_interrupts_dw1_2_IRQn\000"
 9076      735F696E 
 9076      74657272 
 9076      75707473 
 9076      5F647731 
 9077              	.LASF631:
 9078 0edb 43595F42 		.ascii	"CY_BLE_GAP_RANDOM_STATIC_ADDR\000"
ARM GAS  C:\Users\salaz\AppData\Local\Temp\ccnyouLe.s 			page 218


 9078      4C455F47 
 9078      41505F52 
 9078      414E444F 
 9078      4D5F5354 
 9079              	.LASF781:
 9080 0ef9 7A5F7261 		.ascii	"z_raw\000"
 9080      7700
 9081              	.LASF7:
 9082 0eff 53797354 		.ascii	"SysTick_IRQn\000"
 9082      69636B5F 
 9082      4952516E 
 9082      00
 9083              	.LASF849:
 9084 0f0c 4C696768 		.ascii	"LightTimer_config\000"
 9084      7454696D 
 9084      65725F63 
 9084      6F6E6669 
 9084      6700
 9085              	.LASF453:
 9086 0f1e 43595F42 		.ascii	"CY_BLE_EVT_REMOVE_DEVICE_FROM_RPA_LIST_COMPLETE\000"
 9086      4C455F45 
 9086      56545F52 
 9086      454D4F56 
 9086      455F4445 
 9087              	.LASF236:
 9088 0f4e 4932435F 		.ascii	"I2C_M_CMD\000"
 9088      4D5F434D 
 9088      4400
 9089              	.LASF647:
 9090 0f58 62644861 		.ascii	"bdHandleAddrList\000"
 9090      6E646C65 
 9090      41646472 
 9090      4C697374 
 9090      00
 9091              	.LASF429:
 9092 0f69 63795F73 		.ascii	"cy_stc_scb_uart_context_t\000"
 9092      74635F73 
 9092      63625F75 
 9092      6172745F 
 9092      636F6E74 
 9093              	.LASF768:
 9094 0f83 63616C6C 		.ascii	"callbackFunc\000"
 9094      6261636B 
 9094      46756E63 
 9094      00
 9095              	.LASF583:
 9096 0f90 43595F42 		.ascii	"CY_BLE_LL_PWR_LVL_NEG_6_DBM\000"
 9096      4C455F4C 
 9096      4C5F5057 
 9096      525F4C56 
 9096      4C5F4E45 
 9097              	.LASF610:
 9098 0fac 43595F42 		.ascii	"CY_BLE_GAP_AUTH_ERROR_NONE\000"
 9098      4C455F47 
 9098      41505F41 
 9098      5554485F 
 9098      4552524F 
ARM GAS  C:\Users\salaz\AppData\Local\Temp\ccnyouLe.s 			page 219


 9099              	.LASF192:
 9100 0fc7 7369676E 		.ascii	"signed char\000"
 9100      65642063 
 9100      68617200 
 9101              	.LASF499:
 9102 0fd3 43595F42 		.ascii	"CY_BLE_EVT_GAPC_DIRECT_ADV_REPORT\000"
 9102      4C455F45 
 9102      56545F47 
 9102      4150435F 
 9102      44495245 
 9103              	.LASF204:
 9104 0ff5 75696E74 		.ascii	"uint8_t\000"
 9104      385F7400 
 9105              	.LASF542:
 9106 0ffd 43595F42 		.ascii	"CY_BLE_EVT_L2CAP_CBFC_RX_CREDIT_IND\000"
 9106      4C455F45 
 9106      56545F4C 
 9106      32434150 
 9106      5F434246 
 9107              	.LASF715:
 9108 1021 736C6F77 		.ascii	"slowScanEnabled\000"
 9108      5363616E 
 9108      456E6162 
 9108      6C656400 
 9109              	.LASF330:
 9110 1031 70657269 		.ascii	"period1\000"
 9110      6F643100 
 9111              	.LASF630:
 9112 1039 43595F42 		.ascii	"CY_BLE_GAP_PUBLIC_ADDR\000"
 9112      4C455F47 
 9112      41505F50 
 9112      55424C49 
 9112      435F4144 
 9113              	.LASF412:
 9114 1050 74784669 		.ascii	"txFifoTriggerLevel\000"
 9114      666F5472 
 9114      69676765 
 9114      724C6576 
 9114      656C00
 9115              	.LASF434:
 9116 1063 43595F42 		.ascii	"CY_BLE_EVT_MEMORY_REQUEST\000"
 9116      4C455F45 
 9116      56545F4D 
 9116      454D4F52 
 9116      595F5245 
 9117              	.LASF590:
 9118 107d 63795F62 		.ascii	"cy_ble_gatt_db_attr_handle_t\000"
 9118      6C655F67 
 9118      6174745F 
 9118      64625F61 
 9118      7474725F 
 9119              	.LASF209:
 9120 109a 75696E74 		.ascii	"uint64_t\000"
 9120      36345F74 
 9120      00
 9121              	.LASF227:
 9122 10a3 5350495F 		.ascii	"SPI_STATUS\000"
ARM GAS  C:\Users\salaz\AppData\Local\Temp\ccnyouLe.s 			page 220


 9122      53544154 
 9122      555300
 9123              	.LASF401:
 9124 10ae 61636365 		.ascii	"acceptAddrInFifo\000"
 9124      70744164 
 9124      6472496E 
 9124      4669666F 
 9124      00
 9125              	.LASF74:
 9126 10bf 63707573 		.ascii	"cpuss_interrupts_ipc_7_IRQn\000"
 9126      735F696E 
 9126      74657272 
 9126      75707473 
 9126      5F697063 
 9127              	.LASF360:
 9128 10db 736C6176 		.ascii	"slaveTxBufferIdx\000"
 9128      65547842 
 9128      75666665 
 9128      72496478 
 9128      00
 9129              	.LASF718:
 9130 10ec 736C6F77 		.ascii	"slowScanTimeOut\000"
 9130      5363616E 
 9130      54696D65 
 9130      4F757400 
 9131              	.LASF529:
 9132 10fc 43595F42 		.ascii	"CY_BLE_EVT_GATTS_HANDLE_VALUE_CNF\000"
 9132      4C455F45 
 9132      56545F47 
 9132      41545453 
 9132      5F48414E 
 9133              	.LASF50:
 9134 111e 696F7373 		.ascii	"ioss_interrupts_gpio_8_IRQn\000"
 9134      5F696E74 
 9134      65727275 
 9134      7074735F 
 9134      6770696F 
 9135              	.LASF90:
 9136 113a 7363625F 		.ascii	"scb_7_interrupt_IRQn\000"
 9136      375F696E 
 9136      74657272 
 9136      7570745F 
 9136      4952516E 
 9137              	.LASF813:
 9138 114f 5472616E 		.ascii	"Transmission_SendResult\000"
 9138      736D6973 
 9138      73696F6E 
 9138      5F53656E 
 9138      64526573 
 9139              	.LASF420:
 9140 1167 72785269 		.ascii	"rxRingBufHead\000"
 9140      6E674275 
 9140      66486561 
 9140      6400
 9141              	.LASF362:
 9142 1175 736C6176 		.ascii	"slaveRxBuffer\000"
 9142      65527842 
ARM GAS  C:\Users\salaz\AppData\Local\Temp\ccnyouLe.s 			page 221


 9142      75666665 
 9142      7200
 9143              	.LASF211:
 9144 1183 52455345 		.ascii	"RESERVED0\000"
 9144      52564544 
 9144      3000
 9145              	.LASF228:
 9146 118d 52455345 		.ascii	"RESERVED1\000"
 9146      52564544 
 9146      3100
 9147              	.LASF1:
 9148 1197 756E7369 		.ascii	"unsigned char\000"
 9148      676E6564 
 9148      20636861 
 9148      7200
 9149              	.LASF281:
 9150 11a5 494E5452 		.ascii	"INTR_TX_MASK\000"
 9150      5F54585F 
 9150      4D41534B 
 9150      00
 9151              	.LASF218:
 9152 11b2 52455345 		.ascii	"RESERVED4\000"
 9152      52564544 
 9152      3400
 9153              	.LASF243:
 9154 11bc 52455345 		.ascii	"RESERVED5\000"
 9154      52564544 
 9154      3500
 9155              	.LASF245:
 9156 11c6 52455345 		.ascii	"RESERVED6\000"
 9156      52564544 
 9156      3600
 9157              	.LASF249:
 9158 11d0 52455345 		.ascii	"RESERVED7\000"
 9158      52564544 
 9158      3700
 9159              	.LASF251:
 9160 11da 52455345 		.ascii	"RESERVED8\000"
 9160      52564544 
 9160      3800
 9161              	.LASF254:
 9162 11e4 52455345 		.ascii	"RESERVED9\000"
 9162      52564544 
 9162      3900
 9163              	.LASF740:
 9164 11ee 63795F73 		.ascii	"cy_stc_ble_gatts_db_t\000"
 9164      74635F62 
 9164      6C655F67 
 9164      61747473 
 9164      5F64625F 
 9165              	.LASF367:
 9166 1204 63795F73 		.ascii	"cy_stc_scb_i2c_context_t\000"
 9166      74635F73 
 9166      63625F69 
 9166      32635F63 
 9166      6F6E7465 
 9167              	.LASF811:
ARM GAS  C:\Users\salaz\AppData\Local\Temp\ccnyouLe.s 			page 222


 9168 121d 6E756D5F 		.ascii	"num_bytes\000"
 9168      62797465 
 9168      7300
 9169              	.LASF408:
 9170 1227 72747350 		.ascii	"rtsPolarity\000"
 9170      6F6C6172 
 9170      69747900 
 9171              	.LASF693:
 9172 1233 43595F42 		.ascii	"CY_BLE_CONN_STATE_CLIENT_CHAR_DISCOVERING\000"
 9172      4C455F43 
 9172      4F4E4E5F 
 9172      53544154 
 9172      455F434C 
 9173              	.LASF187:
 9174 125d 7573625F 		.ascii	"usb_interrupt_lo_IRQn\000"
 9174      696E7465 
 9174      72727570 
 9174      745F6C6F 
 9174      5F495251 
 9175              	.LASF665:
 9176 1273 61647649 		.ascii	"advIntvMin\000"
 9176      6E74764D 
 9176      696E00
 9177              	.LASF735:
 9178 127e 61747448 		.ascii	"attHandle\000"
 9178      616E646C 
 9178      6500
 9179              	.LASF516:
 9180 1288 43595F42 		.ascii	"CY_BLE_EVT_GATTC_FIND_INFO_RSP\000"
 9180      4C455F45 
 9180      56545F47 
 9180      41545443 
 9180      5F46494E 
 9181              	.LASF600:
 9182 12a7 43595F42 		.ascii	"CY_BLE_GAP_SEC_LEVEL_2\000"
 9182      4C455F47 
 9182      41505F53 
 9182      45435F4C 
 9182      4556454C 
 9183              	.LASF601:
 9184 12be 43595F42 		.ascii	"CY_BLE_GAP_SEC_LEVEL_3\000"
 9184      4C455F47 
 9184      41505F53 
 9184      45435F4C 
 9184      4556454C 
 9185              	.LASF602:
 9186 12d5 43595F42 		.ascii	"CY_BLE_GAP_SEC_LEVEL_4\000"
 9186      4C455F47 
 9186      41505F53 
 9186      45435F4C 
 9186      4556454C 
 9187              	.LASF441:
 9188 12ec 43595F42 		.ascii	"CY_BLE_EVT_LE_SET_EVENT_MASK_COMPLETE\000"
 9188      4C455F45 
 9188      56545F4C 
 9188      455F5345 
 9188      545F4556 
ARM GAS  C:\Users\salaz\AppData\Local\Temp\ccnyouLe.s 			page 223


 9189              	.LASF620:
 9190 1312 43595F42 		.ascii	"CY_BLE_GAP_AUTH_ERROR_INVALID_PARAMETERS\000"
 9190      4C455F47 
 9190      41505F41 
 9190      5554485F 
 9190      4552524F 
 9191              	.LASF574:
 9192 133b 43595F42 		.ascii	"CY_BLE_ERROR_INVALID_STATE\000"
 9192      4C455F45 
 9192      52524F52 
 9192      5F494E56 
 9192      414C4944 
 9193              	.LASF438:
 9194 1356 43595F42 		.ascii	"CY_BLE_EVT_WRITE_AUTH_PAYLOAD_TO_COMPLETE\000"
 9194      4C455F45 
 9194      56545F57 
 9194      52495445 
 9194      5F415554 
 9195              	.LASF851:
 9196 1380 4D6F746F 		.ascii	"MotorOutput_config\000"
 9196      724F7574 
 9196      7075745F 
 9196      636F6E66 
 9196      696700
 9197              	.LASF836:
 9198 1393 63795F62 		.ascii	"cy_ble_connHandle\000"
 9198      6C655F63 
 9198      6F6E6E48 
 9198      616E646C 
 9198      6500
 9199              	.LASF40:
 9200 13a5 756E636F 		.ascii	"unconnected_IRQn\000"
 9200      6E6E6563 
 9200      7465645F 
 9200      4952516E 
 9200      00
 9201              	.LASF527:
 9202 13b6 43595F42 		.ascii	"CY_BLE_EVT_GATTC_HANDLE_VALUE_NTF\000"
 9202      4C455F45 
 9202      56545F47 
 9202      41545443 
 9202      5F48414E 
 9203              	.LASF754:
 9204 13d8 73696C69 		.ascii	"siliconDeviceAddressEnabled\000"
 9204      636F6E44 
 9204      65766963 
 9204      65416464 
 9204      72657373 
 9205              	.LASF303:
 9206 13f4 5F426F6F 		.ascii	"_Bool\000"
 9206      6C00
 9207              	.LASF242:
 9208 13fa 54585F46 		.ascii	"TX_FIFO_STATUS\000"
 9208      49464F5F 
 9208      53544154 
 9208      555300
 9209              	.LASF882:
ARM GAS  C:\Users\salaz\AppData\Local\Temp\ccnyouLe.s 			page 224


 9210 1409 474E5520 		.ascii	"GNU C11 5.4.1 20160609 (release) [ARM/embedded-5-br"
 9210      43313120 
 9210      352E342E 
 9210      31203230 
 9210      31363036 
 9211 143c 616E6368 		.ascii	"anch revision 237715] -mcpu=cortex-m0plus -mthumb -"
 9211      20726576 
 9211      6973696F 
 9211      6E203233 
 9211      37373135 
 9212 146f 67202D4F 		.ascii	"g -Og -ffunction-sections -ffat-lto-objects\000"
 9212      67202D66 
 9212      66756E63 
 9212      74696F6E 
 9212      2D736563 
 9213              	.LASF785:
 9214 149b 43795F53 		.ascii	"Cy_SCB_GetTxSrValid\000"
 9214      43425F47 
 9214      65745478 
 9214      53725661 
 9214      6C696400 
 9215              	.LASF106:
 9216 14af 63707573 		.ascii	"cpuss_interrupts_dw0_14_IRQn\000"
 9216      735F696E 
 9216      74657272 
 9216      75707473 
 9216      5F647730 
 9217              	.LASF217:
 9218 14cc 52455345 		.ascii	"RESERVED3\000"
 9218      52564544 
 9218      3300
 9219              	.LASF624:
 9220 14d6 43595F42 		.ascii	"CY_BLE_GAP_AUTH_ERROR_CROSS_TRANSPORT_KEY_GEN_DER_N"
 9220      4C455F47 
 9220      41505F41 
 9220      5554485F 
 9220      4552524F 
 9221 1509 4F545F41 		.ascii	"OT_ALLOWED\000"
 9221      4C4C4F57 
 9221      454400
 9222              	.LASF157:
 9223 1514 74637077 		.ascii	"tcpwm_1_interrupts_17_IRQn\000"
 9223      6D5F315F 
 9223      696E7465 
 9223      72727570 
 9223      74735F31 
 9224              	.LASF839:
 9225 152f 63795F62 		.ascii	"cy_ble_config\000"
 9225      6C655F63 
 9225      6F6E6669 
 9225      6700
 9226              	.LASF290:
 9227 153d 63686172 		.ascii	"char\000"
 9227      00
 9228              	.LASF796:
 9229 1542 62644164 		.ascii	"bdAddress\000"
 9229      64726573 
ARM GAS  C:\Users\salaz\AppData\Local\Temp\ccnyouLe.s 			page 225


 9229      7300
 9230              	.LASF237:
 9231 154c 4932435F 		.ascii	"I2C_S_CMD\000"
 9231      535F434D 
 9231      4400
 9232              	.LASF866:
 9233 1556 6D656D73 		.ascii	"memset\000"
 9233      657400
 9234              	.LASF536:
 9235 155d 43595F42 		.ascii	"CY_BLE_EVT_L2CAP_COMMAND_REJ\000"
 9235      4C455F45 
 9235      56545F4C 
 9235      32434150 
 9235      5F434F4D 
 9236              	.LASF186:
 9237 157a 7573625F 		.ascii	"usb_interrupt_med_IRQn\000"
 9237      696E7465 
 9237      72727570 
 9237      745F6D65 
 9237      645F4952 
 9238              	.LASF42:
 9239 1591 696F7373 		.ascii	"ioss_interrupts_gpio_0_IRQn\000"
 9239      5F696E74 
 9239      65727275 
 9239      7074735F 
 9239      6770696F 
 9240              	.LASF854:
 9241 15ad 4368696D 		.ascii	"ChimeTimer_config\000"
 9241      6554696D 
 9241      65725F63 
 9241      6F6E6669 
 9241      6700
 9242              	.LASF274:
 9243 15bf 494E5452 		.ascii	"INTR_S\000"
 9243      5F5300
 9244              	.LASF99:
 9245 15c6 63707573 		.ascii	"cpuss_interrupts_dw0_7_IRQn\000"
 9245      735F696E 
 9245      74657272 
 9245      75707473 
 9245      5F647730 
 9246              	.LASF456:
 9247 15e2 43595F42 		.ascii	"CY_BLE_EVT_GET_PHY_COMPLETE\000"
 9247      4C455F45 
 9247      56545F47 
 9247      45545F50 
 9247      48595F43 
 9248              	.LASF458:
 9249 15fe 43595F42 		.ascii	"CY_BLE_EVT_SET_PHY_COMPLETE\000"
 9249      4C455F45 
 9249      56545F53 
 9249      45545F50 
 9249      48595F43 
 9250              	.LASF828:
 9251 161a 7A5F6461 		.ascii	"z_data\000"
 9251      746100
 9252              	.LASF473:
ARM GAS  C:\Users\salaz\AppData\Local\Temp\ccnyouLe.s 			page 226


 9253 1621 43595F42 		.ascii	"CY_BLE_EVT_AES_CCM_DECRYPT_COMPLETE\000"
 9253      4C455F45 
 9253      56545F41 
 9253      45535F43 
 9253      434D5F44 
 9254              	.LASF306:
 9255 1645 72756E4D 		.ascii	"runMode\000"
 9255      6F646500 
 9256              	.LASF142:
 9257 164d 74637077 		.ascii	"tcpwm_1_interrupts_2_IRQn\000"
 9257      6D5F315F 
 9257      696E7465 
 9257      72727570 
 9257      74735F32 
 9258              	.LASF73:
 9259 1667 63707573 		.ascii	"cpuss_interrupts_ipc_6_IRQn\000"
 9259      735F696E 
 9259      74657272 
 9259      75707473 
 9259      5F697063 
 9260              	.LASF423:
 9261 1683 72784275 		.ascii	"rxBufSize\000"
 9261      6653697A 
 9261      6500
 9262              	.LASF230:
 9263 168d 55415254 		.ascii	"UART_TX_CTRL\000"
 9263      5F54585F 
 9263      4354524C 
 9263      00
 9264              	.LASF663:
 9265 169a 43595F42 		.ascii	"CY_BLE_GAPP_CONNECTABLE_LOW_DC_DIRECTED_ADV\000"
 9265      4C455F47 
 9265      4150505F 
 9265      434F4E4E 
 9265      45435441 
 9266              	.LASF832:
 9267 16c6 5472616E 		.ascii	"Transmission_BleSsHandler\000"
 9267      736D6973 
 9267      73696F6E 
 9267      5F426C65 
 9267      53734861 
 9268              	.LASF24:
 9269 16e0 4E766963 		.ascii	"NvicMux16_IRQn\000"
 9269      4D757831 
 9269      365F4952 
 9269      516E00
 9270              	.LASF244:
 9271 16ef 54585F46 		.ascii	"TX_FIFO_WR\000"
 9271      49464F5F 
 9271      575200
 9272              	.LASF661:
 9273 16fa 43595F42 		.ascii	"CY_BLE_GAPP_SCANNABLE_UNDIRECTED_ADV\000"
 9273      4C455F47 
 9273      4150505F 
 9273      5343414E 
 9273      4E41424C 
 9274              	.LASF305:
ARM GAS  C:\Users\salaz\AppData\Local\Temp\ccnyouLe.s 			page 227


 9275 171f 636C6F63 		.ascii	"clockPrescaler\000"
 9275      6B507265 
 9275      7363616C 
 9275      657200
 9276              	.LASF806:
 9277 172e 61706952 		.ascii	"apiResult\000"
 9277      6573756C 
 9277      7400
 9278              	.LASF215:
 9279 1738 52455345 		.ascii	"RESERVED2\000"
 9279      52564544 
 9279      3200
 9280              	.LASF289:
 9281 1742 6C6F6E67 		.ascii	"long double\000"
 9281      20646F75 
 9281      626C6500 
 9282              	.LASF114:
 9283 174e 63707573 		.ascii	"cpuss_interrupts_dw1_6_IRQn\000"
 9283      735F696E 
 9283      74657272 
 9283      75707473 
 9283      5F647731 
 9284              	.LASF498:
 9285 176a 43595F42 		.ascii	"CY_BLE_EVT_GAP_ENHANCE_CONN_COMPLETE\000"
 9285      4C455F45 
 9285      56545F47 
 9285      41505F45 
 9285      4E48414E 
 9286              	.LASF847:
 9287 178f 4C696768 		.ascii	"LightOutputC_config\000"
 9287      744F7574 
 9287      70757443 
 9287      5F636F6E 
 9287      66696700 
 9288              	.LASF606:
 9289 17a3 43595F42 		.ascii	"CY_BLE_GAP_IOCAP_KEYBOARD_ONLY\000"
 9289      4C455F47 
 9289      41505F49 
 9289      4F434150 
 9289      5F4B4559 
 9290              	.LASF358:
 9291 17c2 736C6176 		.ascii	"slaveTxBuffer\000"
 9291      65547842 
 9291      75666665 
 9291      7200
 9292              	.LASF531:
 9293 17d0 43595F42 		.ascii	"CY_BLE_EVT_GATTC_STOP_CMD_COMPLETE\000"
 9293      4C455F45 
 9293      56545F47 
 9293      41545443 
 9293      5F53544F 
 9294              	.LASF783:
 9295 17f3 6E756D65 		.ascii	"numerator\000"
 9295      7261746F 
 9295      7200
 9296              	.LASF563:
 9297 17fd 43595F42 		.ascii	"CY_BLE_ERROR_L2CAP_PSM_NOT_IN_RANGE\000"
ARM GAS  C:\Users\salaz\AppData\Local\Temp\ccnyouLe.s 			page 228


 9297      4C455F45 
 9297      52524F52 
 9297      5F4C3243 
 9297      41505F50 
 9298              	.LASF884:
 9299 1821 433A5C55 		.ascii	"C:\\Users\\salaz\\Desktop\\SmartHandle\\SmartHandle"
 9299      73657273 
 9299      5C73616C 
 9299      617A5C44 
 9299      65736B74 
 9300 184f 2E637964 		.ascii	".cydsn\000"
 9300      736E00
 9301              	.LASF201:
 9302 1856 6C6F6E67 		.ascii	"long long int\000"
 9302      206C6F6E 
 9302      6720696E 
 9302      7400
 9303              	.LASF150:
 9304 1864 74637077 		.ascii	"tcpwm_1_interrupts_10_IRQn\000"
 9304      6D5F315F 
 9304      696E7465 
 9304      72727570 
 9304      74735F31 
 9305              	.LASF18:
 9306 187f 4E766963 		.ascii	"NvicMux10_IRQn\000"
 9306      4D757831 
 9306      305F4952 
 9306      516E00
 9307              	.LASF680:
 9308 188e 61647650 		.ascii	"advParam\000"
 9308      6172616D 
 9308      00
 9309              	.LASF633:
 9310 1897 63795F73 		.ascii	"cy_stc_ble_gap_bd_addr_t\000"
 9310      74635F62 
 9310      6C655F67 
 9310      61705F62 
 9310      645F6164 
 9311              	.LASF119:
 9312 18b0 63707573 		.ascii	"cpuss_interrupts_dw1_11_IRQn\000"
 9312      735F696E 
 9312      74657272 
 9312      75707473 
 9312      5F647731 
 9313              	.LASF885:
 9314 18cd 43795F42 		.ascii	"Cy_BLE_GetAdvertisementState\000"
 9314      4C455F47 
 9314      65744164 
 9314      76657274 
 9314      6973656D 
 9315              	.LASF357:
 9316 18ea 736C6176 		.ascii	"slaveRdBufEmpty\000"
 9316      65526442 
 9316      7566456D 
 9316      70747900 
 9317              	.LASF572:
 9318 18fa 43595F42 		.ascii	"CY_BLE_ERROR_CHAR_IS_NOT_DISCOVERED\000"
ARM GAS  C:\Users\salaz\AppData\Local\Temp\ccnyouLe.s 			page 229


 9318      4C455F45 
 9318      52524F52 
 9318      5F434841 
 9318      525F4953 
 9319              	.LASF379:
 9320 191e 63795F65 		.ascii	"cy_en_scb_uart_stop_bits_t\000"
 9320      6E5F7363 
 9320      625F7561 
 9320      72745F73 
 9320      746F705F 
 9321              	.LASF92:
 9322 1939 63707573 		.ascii	"cpuss_interrupts_dw0_0_IRQn\000"
 9322      735F696E 
 9322      74657272 
 9322      75707473 
 9322      5F647730 
 9323              	.LASF714:
 9324 1955 66617374 		.ascii	"fastScanTimeOut\000"
 9324      5363616E 
 9324      54696D65 
 9324      4F757400 
 9325              	.LASF584:
 9326 1965 43595F42 		.ascii	"CY_BLE_LL_PWR_LVL_0_DBM\000"
 9326      4C455F4C 
 9326      4C5F5057 
 9326      525F4C56 
 9326      4C5F305F 
 9327              	.LASF522:
 9328 197d 43595F42 		.ascii	"CY_BLE_EVT_GATTC_WRITE_RSP\000"
 9328      4C455F45 
 9328      56545F47 
 9328      41545443 
 9328      5F575249 
 9329              	.LASF648:
 9330 1998 6E6F4F66 		.ascii	"noOfDevices\000"
 9330      44657669 
 9330      63657300 
 9331              	.LASF214:
 9332 19a4 49535052 		.ascii	"ISPR\000"
 9332      00
 9333              	.LASF155:
 9334 19a9 74637077 		.ascii	"tcpwm_1_interrupts_15_IRQn\000"
 9334      6D5F315F 
 9334      696E7465 
 9334      72727570 
 9334      74735F31 
 9335              	.LASF156:
 9336 19c4 74637077 		.ascii	"tcpwm_1_interrupts_16_IRQn\000"
 9336      6D5F315F 
 9336      696E7465 
 9336      72727570 
 9336      74735F31 
 9337              	.LASF414:
 9338 19df 63795F73 		.ascii	"cy_stc_scb_uart_config_t\000"
 9338      74635F73 
 9338      63625F75 
 9338      6172745F 
ARM GAS  C:\Users\salaz\AppData\Local\Temp\ccnyouLe.s 			page 230


 9338      636F6E66 
 9339              	.LASF743:
 9340 19f8 63795F73 		.ascii	"cy_stc_ble_gatts_t\000"
 9340      74635F62 
 9340      6C655F67 
 9340      61747473 
 9340      5F7400
 9341              	.LASF439:
 9342 1a0b 43595F42 		.ascii	"CY_BLE_EVT_READ_AUTH_PAYLOAD_TO_COMPLETE\000"
 9342      4C455F45 
 9342      56545F52 
 9342      4541445F 
 9342      41555448 
 9343              	.LASF34:
 9344 1a34 4E766963 		.ascii	"NvicMux26_IRQn\000"
 9344      4D757832 
 9344      365F4952 
 9344      516E00
 9345              	.LASF748:
 9346 1a43 626F756E 		.ascii	"boundedDevCount\000"
 9346      64656444 
 9346      6576436F 
 9346      756E7400 
 9347              	.LASF794:
 9348 1a53 626F6E64 		.ascii	"bondedDeviceList\000"
 9348      65644465 
 9348      76696365 
 9348      4C697374 
 9348      00
 9349              	.LASF558:
 9350 1a64 43595F42 		.ascii	"CY_BLE_ERROR_SEC_FAILED\000"
 9350      4C455F45 
 9350      52524F52 
 9350      5F534543 
 9350      5F464149 
 9351              	.LASF497:
 9352 1a7c 43595F42 		.ascii	"CY_BLE_EVT_GAP_OOB_GENERATED_NOTIFICATION\000"
 9352      4C455F45 
 9352      56545F47 
 9352      41505F4F 
 9352      4F425F47 
 9353              	.LASF481:
 9354 1aa6 43595F42 		.ascii	"CY_BLE_EVT_SET_CONN_PRIORITY_COMPLETE\000"
 9354      4C455F45 
 9354      56545F53 
 9354      45545F43 
 9354      4F4E4E5F 
 9355              	.LASF173:
 9356 1acc 7564625F 		.ascii	"udb_interrupts_9_IRQn\000"
 9356      696E7465 
 9356      72727570 
 9356      74735F39 
 9356      5F495251 
 9357              	.LASF325:
 9358 1ae2 63795F73 		.ascii	"cy_stc_tcpwm_pwm_config\000"
 9358      74635F74 
 9358      6370776D 
ARM GAS  C:\Users\salaz\AppData\Local\Temp\ccnyouLe.s 			page 231


 9358      5F70776D 
 9358      5F636F6E 
 9359              	.LASF568:
 9360 1afa 43595F42 		.ascii	"CY_BLE_ERROR_HARDWARE_FAILURE\000"
 9360      4C455F45 
 9360      52524F52 
 9360      5F484152 
 9360      44574152 
 9361              	.LASF81:
 9362 1b18 63707573 		.ascii	"cpuss_interrupts_ipc_14_IRQn\000"
 9362      735F696E 
 9362      74657272 
 9362      75707473 
 9362      5F697063 
 9363              	.LASF457:
 9364 1b35 43595F42 		.ascii	"CY_BLE_EVT_SET_DEFAULT_PHY_COMPLETE\000"
 9364      4C455F45 
 9364      56545F53 
 9364      45545F44 
 9364      45464155 
 9365              	.LASF615:
 9366 1b59 43595F42 		.ascii	"CY_BLE_GAP_AUTH_ERROR_PAIRING_NOT_SUPPORTED\000"
 9366      4C455F47 
 9366      41505F41 
 9366      5554485F 
 9366      4552524F 
 9367              	.LASF865:
 9368 1b85 7072696E 		.ascii	"printf\000"
 9368      746600
 9369              	.LASF645:
 9370 1b8c 70616972 		.ascii	"pairingProperties\000"
 9370      696E6750 
 9370      726F7065 
 9370      72746965 
 9370      7300
 9371              	.LASF746:
 9372 1b9e 61747456 		.ascii	"attValuesCCCDFlashMemory\000"
 9372      616C7565 
 9372      73434343 
 9372      44466C61 
 9372      73684D65 
 9373              	.LASF160:
 9374 1bb7 74637077 		.ascii	"tcpwm_1_interrupts_20_IRQn\000"
 9374      6D5F315F 
 9374      696E7465 
 9374      72727570 
 9374      74735F32 
 9375              	.LASF188:
 9376 1bd2 70617373 		.ascii	"pass_interrupt_dacs_IRQn\000"
 9376      5F696E74 
 9376      65727275 
 9376      70745F64 
 9376      6163735F 
 9377              	.LASF225:
 9378 1beb 52455345 		.ascii	"RESERVED\000"
 9378      52564544 
 9378      00
ARM GAS  C:\Users\salaz\AppData\Local\Temp\ccnyouLe.s 			page 232


 9379              	.LASF621:
 9380 1bf4 43595F42 		.ascii	"CY_BLE_GAP_AUTH_ERROR_DHKEY_CHECK_FAILED\000"
 9380      4C455F47 
 9380      41505F41 
 9380      5554485F 
 9380      4552524F 
 9381              	.LASF232:
 9382 1c1d 55415254 		.ascii	"UART_RX_STATUS\000"
 9382      5F52585F 
 9382      53544154 
 9382      555300
 9383              	.LASF338:
 9384 1c2c 6B696C6C 		.ascii	"killInput\000"
 9384      496E7075 
 9384      7400
 9385              	.LASF125:
 9386 1c36 63707573 		.ascii	"cpuss_interrupts_fault_1_IRQn\000"
 9386      735F696E 
 9386      74657272 
 9386      75707473 
 9386      5F666175 
 9387              	.LASF792:
 9388 1c54 7761735F 		.ascii	"was_connected\000"
 9388      636F6E6E 
 9388      65637465 
 9388      6400
 9389              	.LASF567:
 9390 1c62 43595F42 		.ascii	"CY_BLE_ERROR_MIC_AUTH_FAILED\000"
 9390      4C455F45 
 9390      52524F52 
 9390      5F4D4943 
 9390      5F415554 
 9391              	.LASF340:
 9392 1c7f 43595F53 		.ascii	"CY_SCB_I2C_ACK\000"
 9392      43425F49 
 9392      32435F41 
 9392      434B00
 9393              	.LASF644:
 9394 1c8e 61757468 		.ascii	"authErr\000"
 9394      45727200 
 9395              	.LASF763:
 9396 1c96 67617073 		.ascii	"gaps\000"
 9396      00
 9397              	.LASF91:
 9398 1c9b 6373645F 		.ascii	"csd_interrupt_IRQn\000"
 9398      696E7465 
 9398      72727570 
 9398      745F4952 
 9398      516E00
 9399              	.LASF509:
 9400 1cae 43595F42 		.ascii	"CY_BLE_EVT_GATTC_ERROR_RSP\000"
 9400      4C455F45 
 9400      56545F47 
 9400      41545443 
 9400      5F455252 
 9401              	.LASF524:
 9402 1cc9 43595F42 		.ascii	"CY_BLE_EVT_GATTS_PREP_WRITE_REQ\000"
ARM GAS  C:\Users\salaz\AppData\Local\Temp\ccnyouLe.s 			page 233


 9402      4C455F45 
 9402      56545F47 
 9402      41545453 
 9402      5F505245 
 9403              	.LASF259:
 9404 1ce9 494E5452 		.ascii	"INTR_I2C_EC\000"
 9404      5F493243 
 9404      5F454300 
 9405              	.LASF501:
 9406 1cf5 43595F42 		.ascii	"CY_BLE_EVT_GAP_DEVICE_ADDR_GEN_COMPLETE\000"
 9406      4C455F45 
 9406      56545F47 
 9406      41505F44 
 9406      45564943 
 9407              	.LASF745:
 9408 1d1d 73746163 		.ascii	"stackFlashptr\000"
 9408      6B466C61 
 9408      73687074 
 9408      7200
 9409              	.LASF623:
 9410 1d2b 43595F42 		.ascii	"CY_BLE_GAP_AUTH_ERROR_BR_EDR_PAIRING_IN_PROGRESS\000"
 9410      4C455F47 
 9410      41505F41 
 9410      5554485F 
 9410      4552524F 
 9411              	.LASF646:
 9412 1d5c 63795F73 		.ascii	"cy_stc_ble_gap_auth_info_t\000"
 9412      74635F62 
 9412      6C655F67 
 9412      61705F61 
 9412      7574685F 
 9413              	.LASF166:
 9414 1d77 7564625F 		.ascii	"udb_interrupts_2_IRQn\000"
 9414      696E7465 
 9414      72727570 
 9414      74735F32 
 9414      5F495251 
 9415              	.LASF605:
 9416 1d8d 43595F42 		.ascii	"CY_BLE_GAP_IOCAP_DISPLAY_YESNO\000"
 9416      4C455F47 
 9416      41505F49 
 9416      4F434150 
 9416      5F444953 
 9417              	.LASF334:
 9418 1dac 6B696C6C 		.ascii	"killMode\000"
 9418      4D6F6465 
 9418      00
 9419              	.LASF537:
 9420 1db5 43595F42 		.ascii	"CY_BLE_EVT_L2CAP_CBFC_CONN_IND\000"
 9420      4C455F45 
 9420      56545F4C 
 9420      32434150 
 9420      5F434246 
 9421              	.LASF380:
 9422 1dd4 43595F53 		.ascii	"CY_SCB_UART_PARITY_NONE\000"
 9422      43425F55 
 9422      4152545F 
ARM GAS  C:\Users\salaz\AppData\Local\Temp\ccnyouLe.s 			page 234


 9422      50415249 
 9422      54595F4E 
 9423              	.LASF650:
 9424 1dec 64697363 		.ascii	"discProcedure\000"
 9424      50726F63 
 9424      65647572 
 9424      6500
 9425              	.LASF347:
 9426 1dfa 75736554 		.ascii	"useTxFifo\000"
 9426      78466966 
 9426      6F00
 9427              	.LASF134:
 9428 1e04 74637077 		.ascii	"tcpwm_0_interrupts_2_IRQn\000"
 9428      6D5F305F 
 9428      696E7465 
 9428      72727570 
 9428      74735F32 
 9429              	.LASF671:
 9430 1e1e 61647646 		.ascii	"advFilterPolicy\000"
 9430      696C7465 
 9430      72506F6C 
 9430      69637900 
 9431              	.LASF465:
 9432 1e2e 43595F42 		.ascii	"CY_BLE_EVT_GET_RSSI_COMPLETE\000"
 9432      4C455F45 
 9432      56545F47 
 9432      45545F52 
 9432      5353495F 
 9433              	.LASF353:
 9434 1e4b 6D617374 		.ascii	"masterBufferSize\000"
 9434      65724275 
 9434      66666572 
 9434      53697A65 
 9434      00
 9435              	.LASF793:
 9436 1e5c 626F6E64 		.ascii	"bondedDeviceInfo\000"
 9436      65644465 
 9436      76696365 
 9436      496E666F 
 9436      00
 9437              	.LASF535:
 9438 1e6d 43595F42 		.ascii	"CY_BLE_EVT_L2CAP_CONN_PARAM_UPDATE_RSP\000"
 9438      4C455F45 
 9438      56545F4C 
 9438      32434150 
 9438      5F434F4E 
 9439              	.LASF3:
 9440 1e94 4E6F6E4D 		.ascii	"NonMaskableInt_IRQn\000"
 9440      61736B61 
 9440      626C6549 
 9440      6E745F49 
 9440      52516E00 
 9441              	.LASF667:
 9442 1ea8 61647654 		.ascii	"advType\000"
 9442      79706500 
 9443              	.LASF202:
 9444 1eb0 5F5F7569 		.ascii	"__uint64_t\000"
ARM GAS  C:\Users\salaz\AppData\Local\Temp\ccnyouLe.s 			page 235


 9444      6E743634 
 9444      5F7400
 9445              	.LASF599:
 9446 1ebb 43595F42 		.ascii	"CY_BLE_GAP_SEC_LEVEL_1\000"
 9446      4C455F47 
 9446      41505F53 
 9446      45435F4C 
 9446      4556454C 
 9447              	.LASF814:
 9448 1ed2 5472616E 		.ascii	"Transmission_Advertise\000"
 9448      736D6973 
 9448      73696F6E 
 9448      5F416476 
 9448      65727469 
 9449              	.LASF708:
 9450 1ee9 736C6F77 		.ascii	"slowAdvIntervalMin\000"
 9450      41647649 
 9450      6E746572 
 9450      76616C4D 
 9450      696E00
 9451              	.LASF546:
 9452 1efc 43595F42 		.ascii	"CY_BLE_SUCCESS\000"
 9452      4C455F53 
 9452      55434345 
 9452      535300
 9453              	.LASF514:
 9454 1f0b 43595F42 		.ascii	"CY_BLE_EVT_GATTC_READ_BY_GROUP_TYPE_RSP\000"
 9454      4C455F45 
 9454      56545F47 
 9454      41545443 
 9454      5F524541 
 9455              	.LASF200:
 9456 1f33 6C6F6E67 		.ascii	"long unsigned int\000"
 9456      20756E73 
 9456      69676E65 
 9456      6420696E 
 9456      7400
 9457              	.LASF300:
 9458 1f45 636D3070 		.ascii	"cm0pSrc\000"
 9458      53726300 
 9459              	.LASF675:
 9460 1f4d 63795F73 		.ascii	"cy_stc_ble_gapp_disc_data_t\000"
 9460      74635F62 
 9460      6C655F67 
 9460      6170705F 
 9460      64697363 
 9461              	.LASF493:
 9462 1f69 43595F42 		.ascii	"CY_BLE_EVT_GAPC_SCAN_START_STOP\000"
 9462      4C455F45 
 9462      56545F47 
 9462      4150435F 
 9462      5343414E 
 9463              	.LASF777:
 9464 1f89 73656E73 		.ascii	"sensor_type\000"
 9464      6F725F74 
 9464      79706500 
 9465              	.LASF14:
ARM GAS  C:\Users\salaz\AppData\Local\Temp\ccnyouLe.s 			page 236


 9466 1f95 4E766963 		.ascii	"NvicMux6_IRQn\000"
 9466      4D757836 
 9466      5F495251 
 9466      6E00
 9467              	.LASF722:
 9468 1fa3 67617063 		.ascii	"gapcConnectionTimeOut\000"
 9468      436F6E6E 
 9468      65637469 
 9468      6F6E5469 
 9468      6D654F75 
 9469              	.LASF449:
 9470 1fb9 43595F42 		.ascii	"CY_BLE_EVT_SET_RPA_TO_COMPLETE\000"
 9470      4C455F45 
 9470      56545F53 
 9470      45545F52 
 9470      50415F54 
 9471              	.LASF302:
 9472 1fd8 63795F73 		.ascii	"cy_stc_sysint_t\000"
 9472      74635F73 
 9472      7973696E 
 9472      745F7400 
 9473              	.LASF564:
 9474 1fe8 43595F42 		.ascii	"CY_BLE_ERROR_UNSUPPORTED_FEATURE_OR_PARAMETER_VALUE"
 9474      4C455F45 
 9474      52524F52 
 9474      5F554E53 
 9474      5550504F 
 9475 201b 00       		.ascii	"\000"
 9476              	.LASF609:
 9477 201c 63795F65 		.ascii	"cy_en_ble_gap_iocap_t\000"
 9477      6E5F626C 
 9477      655F6761 
 9477      705F696F 
 9477      6361705F 
 9478              	.LASF190:
 9479 2032 4952516E 		.ascii	"IRQn_Type\000"
 9479      5F547970 
 9479      6500
 9480              	.LASF402:
 9481 203c 69726461 		.ascii	"irdaInvertRx\000"
 9481      496E7665 
 9481      72745278 
 9481      00
 9482              	.LASF731:
 9483 2049 63795F73 		.ascii	"cy_stc_ble_gatts_att_pack_val_len_t\000"
 9483      74635F62 
 9483      6C655F67 
 9483      61747473 
 9483      5F617474 
 9484              	.LASF549:
 9485 206d 43595F42 		.ascii	"CY_BLE_ERROR_INVALID_OPERATION\000"
 9485      4C455F45 
 9485      52524F52 
 9485      5F494E56 
 9485      414C4944 
 9486              	.LASF391:
 9487 208c 64617461 		.ascii	"dataWidth\000"
ARM GAS  C:\Users\salaz\AppData\Local\Temp\ccnyouLe.s 			page 237


 9487      57696474 
 9487      6800
 9488              	.LASF702:
 9489 2096 7265736F 		.ascii	"resolvablePrivateAddressOnly\000"
 9489      6C766162 
 9489      6C655072 
 9489      69766174 
 9489      65416464 
 9490              	.LASF356:
 9491 20b3 736C6176 		.ascii	"slaveStatus\000"
 9491      65537461 
 9491      74757300 
 9492              	.LASF511:
 9493 20bf 43595F42 		.ascii	"CY_BLE_EVT_GATT_DISCONNECT_IND\000"
 9493      4C455F45 
 9493      56545F47 
 9493      4154545F 
 9493      44495343 
 9494              	.LASF390:
 9495 20de 6F766572 		.ascii	"oversample\000"
 9495      73616D70 
 9495      6C6500
 9496              	.LASF331:
 9497 20e9 656E6162 		.ascii	"enablePeriodSwap\000"
 9497      6C655065 
 9497      72696F64 
 9497      53776170 
 9497      00
 9498              	.LASF396:
 9499 20fa 64726F70 		.ascii	"dropOnParityError\000"
 9499      4F6E5061 
 9499      72697479 
 9499      4572726F 
 9499      7200
 9500              	.LASF388:
 9501 210c 7374635F 		.ascii	"stc_scb_uart_config\000"
 9501      7363625F 
 9501      75617274 
 9501      5F636F6E 
 9501      66696700 
 9502              	.LASF733:
 9503 2120 61747456 		.ascii	"attValueUuid\000"
 9503      616C7565 
 9503      55756964 
 9503      00
 9504              	.LASF176:
 9505 212d 7564625F 		.ascii	"udb_interrupts_12_IRQn\000"
 9505      696E7465 
 9505      72727570 
 9505      74735F31 
 9505      325F4952 
 9506              	.LASF517:
 9507 2144 43595F42 		.ascii	"CY_BLE_EVT_GATTC_FIND_BY_TYPE_VALUE_RSP\000"
 9507      4C455F45 
 9507      56545F47 
 9507      41545443 
 9507      5F46494E 
ARM GAS  C:\Users\salaz\AppData\Local\Temp\ccnyouLe.s 			page 238


 9508              	.LASF145:
 9509 216c 74637077 		.ascii	"tcpwm_1_interrupts_5_IRQn\000"
 9509      6D5F315F 
 9509      696E7465 
 9509      72727570 
 9509      74735F35 
 9510              	.LASF76:
 9511 2186 63707573 		.ascii	"cpuss_interrupts_ipc_9_IRQn\000"
 9511      735F696E 
 9511      74657272 
 9511      75707473 
 9511      5F697063 
 9512              	.LASF822:
 9513 21a2 6163635F 		.ascii	"acc_data\000"
 9513      64617461 
 9513      00
 9514              	.LASF27:
 9515 21ab 4E766963 		.ascii	"NvicMux19_IRQn\000"
 9515      4D757831 
 9515      395F4952 
 9515      516E00
 9516              	.LASF324:
 9517 21ba 63795F73 		.ascii	"cy_stc_tcpwm_counter_config\000"
 9517      74635F74 
 9517      6370776D 
 9517      5F636F75 
 9517      6E746572 
 9518              	.LASF873:
 9519 21d6 54784275 		.ascii	"TxBuffer_MemoryToBuffer\000"
 9519      66666572 
 9519      5F4D656D 
 9519      6F727954 
 9519      6F427566 
 9520              	.LASF682:
 9521 21ee 63795F73 		.ascii	"cy_stc_ble_gapp_disc_mode_info_t\000"
 9521      74635F62 
 9521      6C655F67 
 9521      6170705F 
 9521      64697363 
 9522              	.LASF571:
 9523 220f 43595F42 		.ascii	"CY_BLE_ERROR_IND_DISABLED\000"
 9523      4C455F45 
 9523      52524F52 
 9523      5F494E44 
 9523      5F444953 
 9524              	.LASF570:
 9525 2229 43595F42 		.ascii	"CY_BLE_ERROR_NTF_DISABLED\000"
 9525      4C455F45 
 9525      52524F52 
 9525      5F4E5446 
 9525      5F444953 
 9526              	.LASF613:
 9527 2243 43595F42 		.ascii	"CY_BLE_GAP_AUTH_ERROR_AUTHENTICATION_REQ_NOT_MET\000"
 9527      4C455F47 
 9527      41505F41 
 9527      5554485F 
 9527      4552524F 
ARM GAS  C:\Users\salaz\AppData\Local\Temp\ccnyouLe.s 			page 239


 9528              	.LASF85:
 9529 2274 7363625F 		.ascii	"scb_2_interrupt_IRQn\000"
 9529      325F696E 
 9529      74657272 
 9529      7570745F 
 9529      4952516E 
 9530              	.LASF850:
 9531 2289 4C696768 		.ascii	"LightOutputB_config\000"
 9531      744F7574 
 9531      70757442 
 9531      5F636F6E 
 9531      66696700 
 9532              	.LASF117:
 9533 229d 63707573 		.ascii	"cpuss_interrupts_dw1_9_IRQn\000"
 9533      735F696E 
 9533      74657272 
 9533      75707473 
 9533      5F647731 
 9534              	.LASF691:
 9535 22b9 43595F42 		.ascii	"CY_BLE_CONN_STATE_CLIENT_SRVC_DISCOVERING\000"
 9535      4C455F43 
 9535      4F4E4E5F 
 9535      53544154 
 9535      455F434C 
 9536              	.LASF470:
 9537 22e3 43595F42 		.ascii	"CY_BLE_EVT_RANDOM_NUM_GEN_COMPLETE\000"
 9537      4C455F45 
 9537      56545F52 
 9537      414E444F 
 9537      4D5F4E55 
 9538              	.LASF53:
 9539 2306 696F7373 		.ascii	"ioss_interrupts_gpio_11_IRQn\000"
 9539      5F696E74 
 9539      65727275 
 9539      7074735F 
 9539      6770696F 
 9540              	.LASF518:
 9541 2323 43595F42 		.ascii	"CY_BLE_EVT_GATTC_READ_RSP\000"
 9541      4C455F45 
 9541      56545F47 
 9541      41545443 
 9541      5F524541 
 9542              	.LASF102:
 9543 233d 63707573 		.ascii	"cpuss_interrupts_dw0_10_IRQn\000"
 9543      735F696E 
 9543      74657272 
 9543      75707473 
 9543      5F647730 
 9544              	.LASF312:
 9545 235a 696E7465 		.ascii	"interruptSources\000"
 9545      72727570 
 9545      74536F75 
 9545      72636573 
 9545      00
 9546              	.LASF870:
 9547 236b 43795F42 		.ascii	"Cy_BLE_ProcessEvents\000"
 9547      4C455F50 
ARM GAS  C:\Users\salaz\AppData\Local\Temp\ccnyouLe.s 			page 240


 9547      726F6365 
 9547      73734576 
 9547      656E7473 
 9548              	.LASF359:
 9549 2380 736C6176 		.ascii	"slaveTxBufferSize\000"
 9549      65547842 
 9549      75666665 
 9549      7253697A 
 9549      6500
 9550              	.LASF44:
 9551 2392 696F7373 		.ascii	"ioss_interrupts_gpio_2_IRQn\000"
 9551      5F696E74 
 9551      65727275 
 9551      7074735F 
 9551      6770696F 
 9552              	.LASF761:
 9553 23ae 666C6173 		.ascii	"flashStorage\000"
 9553      6853746F 
 9553      72616765 
 9553      00
 9554              	.LASF335:
 9555 23bb 73776170 		.ascii	"swapInputMode\000"
 9555      496E7075 
 9555      744D6F64 
 9555      6500
 9556              	.LASF95:
 9557 23c9 63707573 		.ascii	"cpuss_interrupts_dw0_3_IRQn\000"
 9557      735F696E 
 9557      74657272 
 9557      75707473 
 9557      5F647730 
 9558              	.LASF199:
 9559 23e5 5F5F7569 		.ascii	"__uint32_t\000"
 9559      6E743332 
 9559      5F7400
 9560              	.LASF255:
 9561 23f0 455A5F44 		.ascii	"EZ_DATA\000"
 9561      41544100 
 9562              	.LASF69:
 9563 23f8 63707573 		.ascii	"cpuss_interrupts_ipc_2_IRQn\000"
 9563      735F696E 
 9563      74657272 
 9563      75707473 
 9563      5F697063 
 9564              	.LASF246:
 9565 2414 52585F43 		.ascii	"RX_CTRL\000"
 9565      54524C00 
 9566              	.LASF137:
 9567 241c 74637077 		.ascii	"tcpwm_0_interrupts_5_IRQn\000"
 9567      6D5F305F 
 9567      696E7465 
 9567      72727570 
 9567      74735F35 
 9568              	.LASF45:
 9569 2436 696F7373 		.ascii	"ioss_interrupts_gpio_3_IRQn\000"
 9569      5F696E74 
 9569      65727275 
ARM GAS  C:\Users\salaz\AppData\Local\Temp\ccnyouLe.s 			page 241


 9569      7074735F 
 9569      6770696F 
 9570              	.LASF159:
 9571 2452 74637077 		.ascii	"tcpwm_1_interrupts_19_IRQn\000"
 9571      6D5F315F 
 9571      696E7465 
 9571      72727570 
 9571      74735F31 
 9572              	.LASF455:
 9573 246d 43595F42 		.ascii	"CY_BLE_EVT_REMOVE_DEVICE_FROM_WHITE_LIST_COMPLETE\000"
 9573      4C455F45 
 9573      56545F52 
 9573      454D4F56 
 9573      455F4445 
 9574              	.LASF520:
 9575 249f 43595F42 		.ascii	"CY_BLE_EVT_GATTC_READ_MULTI_RSP\000"
 9575      4C455F45 
 9575      56545F47 
 9575      41545443 
 9575      5F524541 
 9576              	.LASF540:
 9577 24bf 43595F42 		.ascii	"CY_BLE_EVT_L2CAP_CBFC_DISCONN_CNF\000"
 9577      4C455F45 
 9577      56545F4C 
 9577      32434150 
 9577      5F434246 
 9578              	.LASF576:
 9579 24e1 63795F65 		.ascii	"cy_en_ble_api_result_t\000"
 9579      6E5F626C 
 9579      655F6170 
 9579      695F7265 
 9579      73756C74 
 9580              	.LASF355:
 9581 24f8 6D617374 		.ascii	"masterNumBytes\000"
 9581      65724E75 
 9581      6D427974 
 9581      657300
 9582              	.LASF874:
 9583 2507 43795F42 		.ascii	"Cy_BLE_GAPP_StartAdvertisement\000"
 9583      4C455F47 
 9583      4150505F 
 9583      53746172 
 9583      74416476 
 9584              	.LASF641:
 9585 2526 73656375 		.ascii	"security\000"
 9585      72697479 
 9585      00
 9586              	.LASF37:
 9587 252f 4E766963 		.ascii	"NvicMux29_IRQn\000"
 9587      4D757832 
 9587      395F4952 
 9587      516E00
 9588              	.LASF6:
 9589 253e 50656E64 		.ascii	"PendSV_IRQn\000"
 9589      53565F49 
 9589      52516E00 
 9590              	.LASF101:
ARM GAS  C:\Users\salaz\AppData\Local\Temp\ccnyouLe.s 			page 242


 9591 254a 63707573 		.ascii	"cpuss_interrupts_dw0_9_IRQn\000"
 9591      735F696E 
 9591      74657272 
 9591      75707473 
 9591      5F647730 
 9592              	.LASF272:
 9593 2566 494E5452 		.ascii	"INTR_M_MASKED\000"
 9593      5F4D5F4D 
 9593      41534B45 
 9593      4400
 9594              	.LASF175:
 9595 2574 7564625F 		.ascii	"udb_interrupts_11_IRQn\000"
 9595      696E7465 
 9595      72727570 
 9595      74735F31 
 9595      315F4952 
 9596              	.LASF144:
 9597 258b 74637077 		.ascii	"tcpwm_1_interrupts_4_IRQn\000"
 9597      6D5F315F 
 9597      696E7465 
 9597      72727570 
 9597      74735F34 
 9598              	.LASF459:
 9599 25a5 43595F42 		.ascii	"CY_BLE_EVT_PHY_UPDATE_COMPLETE\000"
 9599      4C455F45 
 9599      56545F50 
 9599      48595F55 
 9599      50444154 
 9600              	.LASF292:
 9601 25c4 646F7562 		.ascii	"double\000"
 9601      6C6500
 9602              	.LASF5:
 9603 25cb 53564361 		.ascii	"SVCall_IRQn\000"
 9603      6C6C5F49 
 9603      52516E00 
 9604              	.LASF562:
 9605 25d7 43595F42 		.ascii	"CY_BLE_ERROR_L2CAP_CONNECTION_ENTITY_NOT_FOUND\000"
 9605      4C455F45 
 9605      52524F52 
 9605      5F4C3243 
 9605      41505F43 
 9606              	.LASF541:
 9607 2606 43595F42 		.ascii	"CY_BLE_EVT_L2CAP_CBFC_DATA_READ\000"
 9607      4C455F45 
 9607      56545F4C 
 9607      32434150 
 9607      5F434246 
 9608              	.LASF585:
 9609 2626 43595F42 		.ascii	"CY_BLE_LL_PWR_LVL_MAX\000"
 9609      4C455F4C 
 9609      4C5F5057 
 9609      525F4C56 
 9609      4C5F4D41 
 9610              	.LASF598:
 9611 263c 63795F73 		.ascii	"cy_stc_ble_gatt_write_param_t\000"
 9611      74635F62 
 9611      6C655F67 
ARM GAS  C:\Users\salaz\AppData\Local\Temp\ccnyouLe.s 			page 243


 9611      6174745F 
 9611      77726974 
 9612              	.LASF553:
 9613 265a 43595F42 		.ascii	"CY_BLE_ERROR_NO_CONNECTION\000"
 9613      4C455F45 
 9613      52524F52 
 9613      5F4E4F5F 
 9613      434F4E4E 
 9614              	.LASF319:
 9615 2675 73746F70 		.ascii	"stopInputMode\000"
 9615      496E7075 
 9615      744D6F64 
 9615      6500
 9616              	.LASF833:
 9617 2683 5472616E 		.ascii	"Transmission_Init\000"
 9617      736D6973 
 9617      73696F6E 
 9617      5F496E69 
 9617      7400
 9618              	.LASF698:
 9619 2695 64657669 		.ascii	"deviceNameCharHandle\000"
 9619      63654E61 
 9619      6D654368 
 9619      61724861 
 9619      6E646C65 
 9620              	.LASF163:
 9621 26aa 74637077 		.ascii	"tcpwm_1_interrupts_23_IRQn\000"
 9621      6D5F315F 
 9621      696E7465 
 9621      72727570 
 9621      74735F32 
 9622              	.LASF668:
 9623 26c5 64697265 		.ascii	"directAddrType\000"
 9623      63744164 
 9623      64725479 
 9623      706500
 9624              	.LASF116:
 9625 26d4 63707573 		.ascii	"cpuss_interrupts_dw1_8_IRQn\000"
 9625      735F696E 
 9625      74657272 
 9625      75707473 
 9625      5F647731 
 9626              	.LASF424:
 9627 26f0 72784275 		.ascii	"rxBufIdx\000"
 9627      66496478 
 9627      00
 9628              	.LASF888:
 9629 26f9 5F5F6275 		.ascii	"__builtin_puts\000"
 9629      696C7469 
 9629      6E5F7075 
 9629      747300
 9630              	.LASF122:
 9631 2708 63707573 		.ascii	"cpuss_interrupts_dw1_14_IRQn\000"
 9631      735F696E 
 9631      74657272 
 9631      75707473 
 9631      5F647731 
ARM GAS  C:\Users\salaz\AppData\Local\Temp\ccnyouLe.s 			page 244


 9632              	.LASF10:
 9633 2725 4E766963 		.ascii	"NvicMux2_IRQn\000"
 9633      4D757832 
 9633      5F495251 
 9633      6E00
 9634              	.LASF385:
 9635 2733 43595F53 		.ascii	"CY_SCB_UART_ACTIVE_HIGH\000"
 9635      43425F55 
 9635      4152545F 
 9635      41435449 
 9635      56455F48 
 9636              	.LASF807:
 9637 274b 64657669 		.ascii	"deviceCount\000"
 9637      6365436F 
 9637      756E7400 
 9638              	.LASF652:
 9639 2757 7363616E 		.ascii	"scanIntv\000"
 9639      496E7476 
 9639      00
 9640              	.LASF445:
 9641 2760 43595F42 		.ascii	"CY_BLE_EVT_GET_DATA_LENGTH_COMPLETE\000"
 9641      4C455F45 
 9641      56545F47 
 9641      45545F44 
 9641      4154415F 
 9642              	.LASF152:
 9643 2784 74637077 		.ascii	"tcpwm_1_interrupts_12_IRQn\000"
 9643      6D5F315F 
 9643      696E7465 
 9643      72727570 
 9643      74735F31 
 9644              	.LASF750:
 9645 279f 7478506F 		.ascii	"txPowerLevelAdv\000"
 9645      7765724C 
 9645      6576656C 
 9645      41647600 
 9646              	.LASF291:
 9647 27af 666C6F61 		.ascii	"float\000"
 9647      7400
 9648              	.LASF506:
 9649 27b5 43595F42 		.ascii	"CY_BLE_EVT_GAP_CONN_ESTB\000"
 9649      4C455F45 
 9649      56545F47 
 9649      41505F43 
 9649      4F4E4E5F 
 9650              	.LASF22:
 9651 27ce 4E766963 		.ascii	"NvicMux14_IRQn\000"
 9651      4D757831 
 9651      345F4952 
 9651      516E00
 9652              	.LASF607:
 9653 27dd 43595F42 		.ascii	"CY_BLE_GAP_IOCAP_NOINPUT_NOOUTPUT\000"
 9653      4C455F47 
 9653      41505F49 
 9653      4F434150 
 9653      5F4E4F49 
 9654              	.LASF483:
ARM GAS  C:\Users\salaz\AppData\Local\Temp\ccnyouLe.s 			page 245


 9655 27ff 43595F42 		.ascii	"CY_BLE_EVT_GAP_AUTH_REQ\000"
 9655      4C455F45 
 9655      56545F47 
 9655      41505F41 
 9655      5554485F 
 9656              	.LASF551:
 9657 2817 43595F42 		.ascii	"CY_BLE_ERROR_INSUFFICIENT_RESOURCES\000"
 9657      4C455F45 
 9657      52524F52 
 9657      5F494E53 
 9657      55464649 
 9658              	.LASF30:
 9659 283b 4E766963 		.ascii	"NvicMux22_IRQn\000"
 9659      4D757832 
 9659      325F4952 
 9659      516E00
 9660              	.LASF403:
 9661 284a 69726461 		.ascii	"irdaEnableLowPowerReceiver\000"
 9661      456E6162 
 9661      6C654C6F 
 9661      77506F77 
 9661      65725265 
 9662              	.LASF829:
 9663 2865 785F6861 		.ascii	"x_handleVal\000"
 9663      6E646C65 
 9663      56616C00 
 9664              	.LASF657:
 9665 2871 66696C74 		.ascii	"filterDuplicates\000"
 9665      65724475 
 9665      706C6963 
 9665      61746573 
 9665      00
 9666              	.LASF581:
 9667 2882 43595F42 		.ascii	"CY_BLE_LL_PWR_LVL_NEG_16_DBM\000"
 9667      4C455F4C 
 9667      4C5F5057 
 9667      525F4C56 
 9667      4C5F4E45 
 9668              	.LASF94:
 9669 289f 63707573 		.ascii	"cpuss_interrupts_dw0_2_IRQn\000"
 9669      735F696E 
 9669      74657272 
 9669      75707473 
 9669      5F647730 
 9670              	.LASF848:
 9671 28bb 4C696768 		.ascii	"LightOutputA_config\000"
 9671      744F7574 
 9671      70757441 
 9671      5F636F6E 
 9671      66696700 
 9672              	.LASF594:
 9673 28cf 61747472 		.ascii	"attrHandle\000"
 9673      48616E64 
 9673      6C6500
 9674              	.LASF389:
 9675 28da 75617274 		.ascii	"uartMode\000"
 9675      4D6F6465 
ARM GAS  C:\Users\salaz\AppData\Local\Temp\ccnyouLe.s 			page 246


 9675      00
 9676              	.LASF868:
 9677 28e3 43795F42 		.ascii	"Cy_BLE_GATTS_Notification\000"
 9677      4C455F47 
 9677      41545453 
 9677      5F4E6F74 
 9677      69666963 
 9678              	.LASF642:
 9679 28fd 626F6E64 		.ascii	"bonding\000"
 9679      696E6700 
 9680              	.LASF169:
 9681 2905 7564625F 		.ascii	"udb_interrupts_5_IRQn\000"
 9681      696E7465 
 9681      72727570 
 9681      74735F35 
 9681      5F495251 
 9682              	.LASF203:
 9683 291b 756E7369 		.ascii	"unsigned int\000"
 9683      676E6564 
 9683      20696E74 
 9683      00
 9684              	.LASF221:
 9685 2928 4354524C 		.ascii	"CTRL\000"
 9685      00
 9686              	.LASF19:
 9687 292d 4E766963 		.ascii	"NvicMux11_IRQn\000"
 9687      4D757831 
 9687      315F4952 
 9687      516E00
 9688              	.LASF77:
 9689 293c 63707573 		.ascii	"cpuss_interrupts_ipc_10_IRQn\000"
 9689      735F696E 
 9689      74657272 
 9689      75707473 
 9689      5F697063 
 9690              	.LASF550:
 9691 2959 43595F42 		.ascii	"CY_BLE_ERROR_MEMORY_ALLOCATION_FAILED\000"
 9691      4C455F45 
 9691      52524F52 
 9691      5F4D454D 
 9691      4F52595F 
 9692              	.LASF689:
 9693 297f 43595F42 		.ascii	"CY_BLE_CONN_STATE_CLIENT_DISCONNECTED_DISCOVERED\000"
 9693      4C455F43 
 9693      4F4E4E5F 
 9693      53544154 
 9693      455F434C 
 9694              	.LASF764:
 9695 29b0 61747456 		.ascii	"attValuesCCCD\000"
 9695      616C7565 
 9695      73434343 
 9695      4400
 9696              	.LASF575:
 9697 29be 43595F42 		.ascii	"CY_BLE_ERROR_MAX\000"
 9697      4C455F45 
 9697      52524F52 
 9697      5F4D4158 
ARM GAS  C:\Users\salaz\AppData\Local\Temp\ccnyouLe.s 			page 247


 9697      00
 9698              	.LASF738:
 9699 29cf 61747445 		.ascii	"attEndHandle\000"
 9699      6E644861 
 9699      6E646C65 
 9699      00
 9700              	.LASF326:
 9701 29dc 70776D4D 		.ascii	"pwmMode\000"
 9701      6F646500 
 9702              	.LASF430:
 9703 29e4 43595F42 		.ascii	"CY_BLE_EVT_INVALID\000"
 9703      4C455F45 
 9703      56545F49 
 9703      4E56414C 
 9703      494400
 9704              	.LASF711:
 9705 29f7 63795F73 		.ascii	"cy_stc_ble_gapp_adv_params_t\000"
 9705      74635F62 
 9705      6C655F67 
 9705      6170705F 
 9705      6164765F 
 9706              	.LASF454:
 9707 2a14 43595F42 		.ascii	"CY_BLE_EVT_ADD_DEVICE_TO_WHITE_LIST_COMPLETE\000"
 9707      4C455F45 
 9707      56545F41 
 9707      44445F44 
 9707      45564943 
 9708              	.LASF109:
 9709 2a41 63707573 		.ascii	"cpuss_interrupts_dw1_1_IRQn\000"
 9709      735F696E 
 9709      74657272 
 9709      75707473 
 9709      5F647731 
 9710              	.LASF758:
 9711 2a5d 67617070 		.ascii	"gappAdvParams\000"
 9711      41647650 
 9711      6172616D 
 9711      7300
 9712              	.LASF311:
 9713 2a6b 656E6162 		.ascii	"enableCompareSwap\000"
 9713      6C65436F 
 9713      6D706172 
 9713      65537761 
 9713      7000
 9714              	.LASF41:
 9715 2a7d 73686F72 		.ascii	"short int\000"
 9715      7420696E 
 9715      7400
 9716              	.LASF573:
 9717 2a87 43595F42 		.ascii	"CY_BLE_ERROR_CONTROLLER_BUSY\000"
 9717      4C455F45 
 9717      52524F52 
 9717      5F434F4E 
 9717      54524F4C 
 9718              	.LASF659:
 9719 2aa4 43595F42 		.ascii	"CY_BLE_GAPP_CONNECTABLE_UNDIRECTED_ADV\000"
 9719      4C455F47 
ARM GAS  C:\Users\salaz\AppData\Local\Temp\ccnyouLe.s 			page 248


 9719      4150505F 
 9719      434F4E4E 
 9719      45435441 
 9720              	.LASF756:
 9721 2acb 63795F73 		.ascii	"cy_stc_ble_params_t\000"
 9721      74635F62 
 9721      6C655F70 
 9721      6172616D 
 9721      735F7400 
 9722              	.LASF496:
 9723 2adf 43595F42 		.ascii	"CY_BLE_EVT_GAP_KEYPRESS_NOTIFICATION\000"
 9723      4C455F45 
 9723      56545F47 
 9723      41505F4B 
 9723      45595052 
 9724              	.LASF734:
 9725 2b04 63795F73 		.ascii	"cy_stc_ble_gatts_att_value_t\000"
 9725      74635F62 
 9725      6C655F67 
 9725      61747473 
 9725      5F617474 
 9726              	.LASF808:
 9727 2b21 77725265 		.ascii	"wrReqParam\000"
 9727      71506172 
 9727      616D00
 9728              	.LASF322:
 9729 2b2c 636F756E 		.ascii	"countInput\000"
 9729      74496E70 
 9729      757400
 9730              	.LASF162:
 9731 2b37 74637077 		.ascii	"tcpwm_1_interrupts_22_IRQn\000"
 9731      6D5F315F 
 9731      696E7465 
 9731      72727570 
 9731      74735F32 
 9732              	.LASF692:
 9733 2b52 43595F42 		.ascii	"CY_BLE_CONN_STATE_CLIENT_INCL_DISCOVERING\000"
 9733      4C455F43 
 9733      4F4E4E5F 
 9733      53544154 
 9733      455F434C 
 9734              	.LASF857:
 9735 2b7c 43795F42 		.ascii	"Cy_BLE_GAP_GenerateBdAddress\000"
 9735      4C455F47 
 9735      41505F47 
 9735      656E6572 
 9735      61746542 
 9736              	.LASF510:
 9737 2b99 43595F42 		.ascii	"CY_BLE_EVT_GATT_CONNECT_IND\000"
 9737      4C455F45 
 9737      56545F47 
 9737      4154545F 
 9737      434F4E4E 
 9738              	.LASF240:
 9739 2bb5 54585F43 		.ascii	"TX_CTRL\000"
 9739      54524C00 
 9740              	.LASF17:
ARM GAS  C:\Users\salaz\AppData\Local\Temp\ccnyouLe.s 			page 249


 9741 2bbd 4E766963 		.ascii	"NvicMux9_IRQn\000"
 9741      4D757839 
 9741      5F495251 
 9741      6E00
 9742              	.LASF261:
 9743 2bcb 494E5452 		.ascii	"INTR_I2C_EC_MASK\000"
 9743      5F493243 
 9743      5F45435F 
 9743      4D41534B 
 9743      00
 9744              	.LASF683:
 9745 2bdc 43595F42 		.ascii	"CY_BLE_ADV_STATE_STOPPED\000"
 9745      4C455F41 
 9745      44565F53 
 9745      54415445 
 9745      5F53544F 
 9746              	.LASF180:
 9747 2bf5 70617373 		.ascii	"pass_interrupt_sar_IRQn\000"
 9747      5F696E74 
 9747      65727275 
 9747      70745F73 
 9747      61725F49 
 9748              	.LASF687:
 9749 2c0d 63795F65 		.ascii	"cy_en_ble_adv_state_t\000"
 9749      6E5F626C 
 9749      655F6164 
 9749      765F7374 
 9749      6174655F 
 9750              	.LASF57:
 9751 2c23 696F7373 		.ascii	"ioss_interrupt_gpio_IRQn\000"
 9751      5F696E74 
 9751      65727275 
 9751      70745F67 
 9751      70696F5F 
 9752              	.LASF29:
 9753 2c3c 4E766963 		.ascii	"NvicMux21_IRQn\000"
 9753      4D757832 
 9753      315F4952 
 9753      516E00
 9754              	.LASF307:
 9755 2c4b 636F756E 		.ascii	"countDirection\000"
 9755      74446972 
 9755      65637469 
 9755      6F6E00
 9756              	.LASF478:
 9757 2c5a 43595F42 		.ascii	"CY_BLE_EVT_AES_CMAC_GEN_COMPLETE\000"
 9757      4C455F45 
 9757      56545F41 
 9757      45535F43 
 9757      4D41435F 
 9758              	.LASF759:
 9759 2c7b 64697363 		.ascii	"discoveryInfo\000"
 9759      6F766572 
 9759      79496E66 
 9759      6F00
 9760              	.LASF490:
 9761 2c89 43595F42 		.ascii	"CY_BLE_EVT_GAP_DEVICE_DISCONNECTED\000"
ARM GAS  C:\Users\salaz\AppData\Local\Temp\ccnyouLe.s 			page 250


 9761      4C455F45 
 9761      56545F47 
 9761      41505F44 
 9761      45564943 
 9762              	.LASF233:
 9763 2cac 55415254 		.ascii	"UART_FLOW_CTRL\000"
 9763      5F464C4F 
 9763      575F4354 
 9763      524C00
 9764              	.LASF363:
 9765 2cbb 736C6176 		.ascii	"slaveRxBufferSize\000"
 9765      65527842 
 9765      75666665 
 9765      7253697A 
 9765      6500
 9766              	.LASF329:
 9767 2ccd 70657269 		.ascii	"period0\000"
 9767      6F643000 
 9768              	.LASF673:
 9769 2cd5 61647644 		.ascii	"advData\000"
 9769      61746100 
 9770              	.LASF519:
 9771 2cdd 43595F42 		.ascii	"CY_BLE_EVT_GATTC_READ_BLOB_RSP\000"
 9771      4C455F45 
 9771      56545F47 
 9771      41545443 
 9771      5F524541 
 9772              	.LASF705:
 9773 2cfc 66617374 		.ascii	"fastAdvIntervalMax\000"
 9773      41647649 
 9773      6E746572 
 9773      76616C4D 
 9773      617800
 9774              	.LASF476:
 9775 2d0f 43595F42 		.ascii	"CY_BLE_EVT_RADIO_TEMPERATURE\000"
 9775      4C455F45 
 9775      56545F52 
 9775      4144494F 
 9775      5F54454D 
 9776              	.LASF179:
 9777 2d2c 7564625F 		.ascii	"udb_interrupts_15_IRQn\000"
 9777      696E7465 
 9777      72727570 
 9777      74735F31 
 9777      355F4952 
 9778              	.LASF343:
 9779 2d43 63795F63 		.ascii	"cy_cb_scb_i2c_handle_events_t\000"
 9779      625F7363 
 9779      625F6932 
 9779      635F6861 
 9779      6E646C65 
 9780              	.LASF523:
 9781 2d61 43595F42 		.ascii	"CY_BLE_EVT_GATTS_WRITE_CMD_REQ\000"
 9781      4C455F45 
 9781      56545F47 
 9781      41545453 
 9781      5F575249 
ARM GAS  C:\Users\salaz\AppData\Local\Temp\ccnyouLe.s 			page 251


 9782              	.LASF148:
 9783 2d80 74637077 		.ascii	"tcpwm_1_interrupts_8_IRQn\000"
 9783      6D5F315F 
 9783      696E7465 
 9783      72727570 
 9783      74735F38 
 9784              	.LASF700:
 9785 2d9a 70726566 		.ascii	"prefConnParamCharHandle\000"
 9785      436F6E6E 
 9785      50617261 
 9785      6D436861 
 9785      7248616E 
 9786              	.LASF789:
 9787 2db2 6576656E 		.ascii	"eventCode\000"
 9787      74436F64 
 9787      6500
 9788              	.LASF725:
 9789 2dbc 63795F73 		.ascii	"cy_stc_ble_gatts_write_cmd_req_param_t\000"
 9789      74635F62 
 9789      6C655F67 
 9789      61747473 
 9789      5F777269 
 9790              	.LASF604:
 9791 2de3 43595F42 		.ascii	"CY_BLE_GAP_IOCAP_DISPLAY_ONLY\000"
 9791      4C455F47 
 9791      41505F49 
 9791      4F434150 
 9791      5F444953 
 9792              	.LASF480:
 9793 2e01 43595F42 		.ascii	"CY_BLE_EVT_SET_CE_LENGTH_COMPLETE\000"
 9793      4C455F45 
 9793      56545F53 
 9793      45545F43 
 9793      455F4C45 
 9794              	.LASF419:
 9795 2e23 72785269 		.ascii	"rxRingBufSize\000"
 9795      6E674275 
 9795      6653697A 
 9795      6500
 9796              	.LASF43:
 9797 2e31 696F7373 		.ascii	"ioss_interrupts_gpio_1_IRQn\000"
 9797      5F696E74 
 9797      65727275 
 9797      7074735F 
 9797      6770696F 
 9798              	.LASF559:
 9799 2e4d 43595F42 		.ascii	"CY_BLE_ERROR_L2CAP_PSM_WRONG_ENCODING\000"
 9799      4C455F45 
 9799      52524F52 
 9799      5F4C3243 
 9799      41505F50 
 9800              	.LASF288:
 9801 2e73 43795343 		.ascii	"CySCB_Type\000"
 9801      425F5479 
 9801      706500
 9802              	.LASF332:
 9803 2e7e 696E7665 		.ascii	"invertPWMOut\000"
ARM GAS  C:\Users\salaz\AppData\Local\Temp\ccnyouLe.s 			page 252


 9803      72745057 
 9803      4D4F7574 
 9803      00
 9804              	.LASF776:
 9805 2e8b 63795F73 		.ascii	"cy_stc_ble_bas_config_t\000"
 9805      74635F62 
 9805      6C655F62 
 9805      61735F63 
 9805      6F6E6669 
 9806              	.LASF395:
 9807 2ea3 656E6162 		.ascii	"enableInputFilter\000"
 9807      6C65496E 
 9807      70757446 
 9807      696C7465 
 9807      7200
 9808              	.LASF266:
 9809 2eb5 494E5452 		.ascii	"INTR_SPI_EC_MASK\000"
 9809      5F535049 
 9809      5F45435F 
 9809      4D41534B 
 9809      00
 9810              	.LASF482:
 9811 2ec6 43595F42 		.ascii	"CY_BLE_EVT_GAPC_SCAN_PROGRESS_RESULT\000"
 9811      4C455F45 
 9811      56545F47 
 9811      4150435F 
 9811      5343414E 
 9812              	.LASF632:
 9813 2eeb 63795F65 		.ascii	"cy_en_ble_gap_addr_type_t\000"
 9813      6E5F626C 
 9813      655F6761 
 9813      705F6164 
 9813      64725F74 
 9814              	.LASF674:
 9815 2f05 61647644 		.ascii	"advDataLen\000"
 9815      6174614C 
 9815      656E00
 9816              	.LASF486:
 9817 2f10 43595F42 		.ascii	"CY_BLE_EVT_GAP_AUTH_COMPLETE\000"
 9817      4C455F45 
 9817      56545F47 
 9817      41505F41 
 9817      5554485F 
 9818              	.LASF364:
 9819 2f2d 736C6176 		.ascii	"slaveRxBufferIdx\000"
 9819      65527842 
 9819      75666665 
 9819      72496478 
 9819      00
 9820              	.LASF819:
 9821 2f3e 5472616E 		.ascii	"Transmission_Disconnect\000"
 9821      736D6973 
 9821      73696F6E 
 9821      5F446973 
 9821      636F6E6E 
 9822              	.LASF56:
 9823 2f56 696F7373 		.ascii	"ioss_interrupts_gpio_14_IRQn\000"
ARM GAS  C:\Users\salaz\AppData\Local\Temp\ccnyouLe.s 			page 253


 9823      5F696E74 
 9823      65727275 
 9823      7074735F 
 9823      6770696F 
 9824              	.LASF105:
 9825 2f73 63707573 		.ascii	"cpuss_interrupts_dw0_13_IRQn\000"
 9825      735F696E 
 9825      74657272 
 9825      75707473 
 9825      5F647730 
 9826              	.LASF143:
 9827 2f90 74637077 		.ascii	"tcpwm_1_interrupts_3_IRQn\000"
 9827      6D5F315F 
 9827      696E7465 
 9827      72727570 
 9827      74735F33 
 9828              	.LASF681:
 9829 2faa 61647654 		.ascii	"advTo\000"
 9829      6F00
 9830              	.LASF62:
 9831 2fb0 73727373 		.ascii	"srss_interrupt_mcwdt_1_IRQn\000"
 9831      5F696E74 
 9831      65727275 
 9831      70745F6D 
 9831      63776474 
 9832              	.LASF765:
 9833 2fcc 67617474 		.ascii	"gattDB\000"
 9833      444200
 9834              	.LASF845:
 9835 2fd3 55415254 		.ascii	"UART_DEBUG_context\000"
 9835      5F444542 
 9835      55475F63 
 9835      6F6E7465 
 9835      787400
 9836              	.LASF637:
 9837 2fe6 69726B49 		.ascii	"irkInfo\000"
 9837      6E666F00 
 9838              	.LASF277:
 9839 2fee 494E5452 		.ascii	"INTR_S_MASKED\000"
 9839      5F535F4D 
 9839      41534B45 
 9839      4400
 9840              	.LASF699:
 9841 2ffc 61707065 		.ascii	"appearanceCharHandle\000"
 9841      6172616E 
 9841      63654368 
 9841      61724861 
 9841      6E646C65 
 9842              	.LASF64:
 9843 3011 73727373 		.ascii	"srss_interrupt_IRQn\000"
 9843      5F696E74 
 9843      65727275 
 9843      70745F49 
 9843      52516E00 
 9844              	.LASF387:
 9845 3025 63795F63 		.ascii	"cy_cb_scb_uart_handle_events_t\000"
 9845      625F7363 
ARM GAS  C:\Users\salaz\AppData\Local\Temp\ccnyouLe.s 			page 254


 9845      625F7561 
 9845      72745F68 
 9845      616E646C 
 9846              	.LASF443:
 9847 3044 43595F42 		.ascii	"CY_BLE_EVT_SET_DATA_LENGTH_COMPLETE\000"
 9847      4C455F45 
 9847      56545F53 
 9847      45545F44 
 9847      4154415F 
 9848              	.LASF525:
 9849 3068 43595F42 		.ascii	"CY_BLE_EVT_GATTS_EXEC_WRITE_REQ\000"
 9849      4C455F45 
 9849      56545F47 
 9849      41545453 
 9849      5F455845 
 9850              	.LASF619:
 9851 3088 43595F42 		.ascii	"CY_BLE_GAP_AUTH_ERROR_REPEATED_ATTEMPTS\000"
 9851      4C455F47 
 9851      41505F41 
 9851      5554485F 
 9851      4552524F 
 9852              	.LASF264:
 9853 30b0 494E5452 		.ascii	"INTR_SPI_EC\000"
 9853      5F535049 
 9853      5F454300 
 9854              	.LASF98:
 9855 30bc 63707573 		.ascii	"cpuss_interrupts_dw0_6_IRQn\000"
 9855      735F696E 
 9855      74657272 
 9855      75707473 
 9855      5F647730 
 9856              	.LASF786:
 9857 30d8 43795F53 		.ascii	"Cy_SCB_GetNumInTxFifo\000"
 9857      43425F47 
 9857      65744E75 
 9857      6D496E54 
 9857      78466966 
 9858              	.LASF827:
 9859 30ee 795F6461 		.ascii	"y_data\000"
 9859      746100
 9860              	.LASF427:
 9861 30f5 74784C65 		.ascii	"txLeftToTransmit\000"
 9861      6674546F 
 9861      5472616E 
 9861      736D6974 
 9861      00
 9862              	.LASF128:
 9863 3106 63707573 		.ascii	"cpuss_interrupts_cm0_cti_0_IRQn\000"
 9863      735F696E 
 9863      74657272 
 9863      75707473 
 9863      5F636D30 
 9864              	.LASF141:
 9865 3126 74637077 		.ascii	"tcpwm_1_interrupts_1_IRQn\000"
 9865      6D5F315F 
 9865      696E7465 
 9865      72727570 
ARM GAS  C:\Users\salaz\AppData\Local\Temp\ccnyouLe.s 			page 255


 9865      74735F31 
 9866              	.LASF72:
 9867 3140 63707573 		.ascii	"cpuss_interrupts_ipc_5_IRQn\000"
 9867      735F696E 
 9867      74657272 
 9867      75707473 
 9867      5F697063 
 9868              	.LASF560:
 9869 315c 43595F42 		.ascii	"CY_BLE_ERROR_L2CAP_PSM_ALREADY_REGISTERED\000"
 9869      4C455F45 
 9869      52524F52 
 9869      5F4C3243 
 9869      41505F50 
 9870              	.LASF399:
 9871 3186 72656365 		.ascii	"receiverAddress\000"
 9871      69766572 
 9871      41646472 
 9871      65737300 
 9872              	.LASF48:
 9873 3196 696F7373 		.ascii	"ioss_interrupts_gpio_6_IRQn\000"
 9873      5F696E74 
 9873      65727275 
 9873      7074735F 
 9873      6770696F 
 9874              	.LASF23:
 9875 31b2 4E766963 		.ascii	"NvicMux15_IRQn\000"
 9875      4D757831 
 9875      355F4952 
 9875      516E00
 9876              	.LASF566:
 9877 31c1 43595F42 		.ascii	"CY_BLE_ERROR_FLASH_WRITE\000"
 9877      4C455F45 
 9877      52524F52 
 9877      5F464C41 
 9877      53485F57 
 9878              	.LASF182:
 9879 31da 61756469 		.ascii	"audioss_interrupt_pdm_IRQn\000"
 9879      6F73735F 
 9879      696E7465 
 9879      72727570 
 9879      745F7064 
 9880              	.LASF639:
 9881 31f5 61646472 		.ascii	"addrType\000"
 9881      54797065 
 9881      00
 9882              	.LASF404:
 9883 31fe 736D6172 		.ascii	"smartCardRetryOnNack\000"
 9883      74436172 
 9883      64526574 
 9883      72794F6E 
 9883      4E61636B 
 9884              	.LASF450:
 9885 3213 43595F42 		.ascii	"CY_BLE_EVT_SET_RPA_ENABLE_COMPLETE\000"
 9885      4C455F45 
 9885      56545F53 
 9885      45545F52 
 9885      50415F45 
ARM GAS  C:\Users\salaz\AppData\Local\Temp\ccnyouLe.s 			page 256


 9886              	.LASF301:
 9887 3236 696E7472 		.ascii	"intrPriority\000"
 9887      5072696F 
 9887      72697479 
 9887      00
 9888              	.LASF365:
 9889 3243 63624576 		.ascii	"cbEvents\000"
 9889      656E7473 
 9889      00
 9890              	.LASF464:
 9891 324c 43595F42 		.ascii	"CY_BLE_EVT_GET_DEVICE_ADDR_COMPLETE\000"
 9891      4C455F45 
 9891      56545F47 
 9891      45545F44 
 9891      45564943 
 9892              	.LASF720:
 9893 3270 67617063 		.ascii	"gapcConnectionIntervalMax\000"
 9893      436F6E6E 
 9893      65637469 
 9893      6F6E496E 
 9893      74657276 
 9894              	.LASF66:
 9895 328a 626C6573 		.ascii	"bless_interrupt_IRQn\000"
 9895      735F696E 
 9895      74657272 
 9895      7570745F 
 9895      4952516E 
 9896              	.LASF494:
 9897 329f 43595F42 		.ascii	"CY_BLE_EVT_GAP_KEYINFO_EXCHNGE_CMPLT\000"
 9897      4C455F45 
 9897      56545F47 
 9897      41505F4B 
 9897      4559494E 
 9898              	.LASF220:
 9899 32c4 4E564943 		.ascii	"NVIC_Type\000"
 9899      5F547970 
 9899      6500
 9900              	.LASF405:
 9901 32ce 656E6162 		.ascii	"enableCts\000"
 9901      6C654374 
 9901      7300
 9902              	.LASF130:
 9903 32d8 63707573 		.ascii	"cpuss_interrupts_cm4_cti_0_IRQn\000"
 9903      735F696E 
 9903      74657272 
 9903      75707473 
 9903      5F636D34 
 9904              	.LASF147:
 9905 32f8 74637077 		.ascii	"tcpwm_1_interrupts_7_IRQn\000"
 9905      6D5F315F 
 9905      696E7465 
 9905      72727570 
 9905      74735F37 
 9906              	.LASF492:
 9907 3312 43595F42 		.ascii	"CY_BLE_EVT_GAP_CONNECTION_UPDATE_COMPLETE\000"
 9907      4C455F45 
 9907      56545F47 
ARM GAS  C:\Users\salaz\AppData\Local\Temp\ccnyouLe.s 			page 257


 9907      41505F43 
 9907      4F4E4E45 
 9908              	.LASF653:
 9909 333c 7363616E 		.ascii	"scanWindow\000"
 9909      57696E64 
 9909      6F7700
 9910              	.LASF539:
 9911 3347 43595F42 		.ascii	"CY_BLE_EVT_L2CAP_CBFC_DISCONN_IND\000"
 9911      4C455F45 
 9911      56545F4C 
 9911      32434150 
 9911      5F434246 
 9912              	.LASF752:
 9913 3369 73656375 		.ascii	"securityIoCapability\000"
 9913      72697479 
 9913      496F4361 
 9913      70616269 
 9913      6C697479 
 9914              	.LASF485:
 9915 337e 43595F42 		.ascii	"CY_BLE_EVT_GAP_PASSKEY_DISPLAY_REQUEST\000"
 9915      4C455F45 
 9915      56545F47 
 9915      41505F50 
 9915      4153534B 
 9916              	.LASF617:
 9917 33a5 43595F42 		.ascii	"CY_BLE_GAP_AUTH_ERROR_COMMAND_NOT_SUPPORTED\000"
 9917      4C455F47 
 9917      41505F41 
 9917      5554485F 
 9917      4552524F 
 9918              	.LASF0:
 9919 33d1 6C6F6E67 		.ascii	"long long unsigned int\000"
 9919      206C6F6E 
 9919      6720756E 
 9919      7369676E 
 9919      65642069 
 9920              	.LASF767:
 9921 33e8 70617261 		.ascii	"params\000"
 9921      6D7300
 9922              	.LASF118:
 9923 33ef 63707573 		.ascii	"cpuss_interrupts_dw1_10_IRQn\000"
 9923      735F696E 
 9923      74657272 
 9923      75707473 
 9923      5F647731 
 9924              	.LASF442:
 9925 340c 43595F42 		.ascii	"CY_BLE_EVT_LE_PING_AUTH_TIMEOUT\000"
 9925      4C455F45 
 9925      56545F4C 
 9925      455F5049 
 9925      4E475F41 
 9926              	.LASF382:
 9927 342c 43595F53 		.ascii	"CY_SCB_UART_PARITY_ODD\000"
 9927      43425F55 
 9927      4152545F 
 9927      50415249 
 9927      54595F4F 
ARM GAS  C:\Users\salaz\AppData\Local\Temp\ccnyouLe.s 			page 258


 9928              	.LASF582:
 9929 3443 43595F42 		.ascii	"CY_BLE_LL_PWR_LVL_NEG_12_DBM\000"
 9929      4C455F4C 
 9929      4C5F5057 
 9929      525F4C56 
 9929      4C5F4E45 
 9930              	.LASF801:
 9931 3460 76616C34 		.ascii	"val4\000"
 9931      00
 9932              	.LASF206:
 9933 3465 75696E74 		.ascii	"uint16_t\000"
 9933      31365F74 
 9933      00
 9934              	.LASF183:
 9935 346e 70726F66 		.ascii	"profile_interrupt_IRQn\000"
 9935      696C655F 
 9935      696E7465 
 9935      72727570 
 9935      745F4952 
 9936              	.LASF472:
 9937 3485 43595F42 		.ascii	"CY_BLE_EVT_AES_CCM_ENCRYPT_COMPLETE\000"
 9937      4C455F45 
 9937      56545F41 
 9937      45535F43 
 9937      434D5F45 
 9938              	.LASF375:
 9939 34a9 43595F53 		.ascii	"CY_SCB_UART_STOP_BITS_2_5\000"
 9939      43425F55 
 9939      4152545F 
 9939      53544F50 
 9939      5F424954 
 9940              	.LASF872:
 9941 34c3 52784275 		.ascii	"RxBuffer_BufferToMemory\000"
 9941      66666572 
 9941      5F427566 
 9941      66657254 
 9941      6F4D656D 
 9942              	.LASF241:
 9943 34db 54585F46 		.ascii	"TX_FIFO_CTRL\000"
 9943      49464F5F 
 9943      4354524C 
 9943      00
 9944              	.LASF503:
 9945 34e8 43595F42 		.ascii	"CY_BLE_EVT_GAP_RESOLVE_DEVICE_COMPLETE\000"
 9945      4C455F45 
 9945      56545F47 
 9945      41505F52 
 9945      45534F4C 
 9946              	.LASF104:
 9947 350f 63707573 		.ascii	"cpuss_interrupts_dw0_12_IRQn\000"
 9947      735F696E 
 9947      74657272 
 9947      75707473 
 9947      5F647730 
 9948              	.LASF513:
 9949 352c 43595F42 		.ascii	"CY_BLE_EVT_GATTC_XCHNG_MTU_RSP\000"
 9949      4C455F45 
ARM GAS  C:\Users\salaz\AppData\Local\Temp\ccnyouLe.s 			page 259


 9949      56545F47 
 9949      41545443 
 9949      5F584348 
 9950              	.LASF256:
 9951 354b 52455345 		.ascii	"RESERVED10\000"
 9951      52564544 
 9951      313000
 9952              	.LASF2:
 9953 3556 52657365 		.ascii	"Reset_IRQn\000"
 9953      745F4952 
 9953      516E00
 9954              	.LASF260:
 9955 3561 52455345 		.ascii	"RESERVED12\000"
 9955      52564544 
 9955      313200
 9956              	.LASF755:
 9957 356c 67617474 		.ascii	"gattDbIndexCount\000"
 9957      4462496E 
 9957      64657843 
 9957      6F756E74 
 9957      00
 9958              	.LASF265:
 9959 357d 52455345 		.ascii	"RESERVED14\000"
 9959      52564544 
 9959      313400
 9960              	.LASF268:
 9961 3588 52455345 		.ascii	"RESERVED15\000"
 9961      52564544 
 9961      313500
 9962              	.LASF447:
 9963 3593 43595F42 		.ascii	"CY_BLE_EVT_GET_PEER_RPA_COMPLETE\000"
 9963      4C455F45 
 9963      56545F47 
 9963      45545F50 
 9963      4545525F 
 9964              	.LASF278:
 9965 35b4 52455345 		.ascii	"RESERVED17\000"
 9965      52564544 
 9965      313700
 9966              	.LASF283:
 9967 35bf 52455345 		.ascii	"RESERVED18\000"
 9967      52564544 
 9967      313800
 9968              	.LASF739:
 9969 35ca 61747456 		.ascii	"attValue\000"
 9969      616C7565 
 9969      00
 9970              	.LASF852:
 9971 35d3 4D6F746F 		.ascii	"MotorTimer_config\000"
 9971      7254696D 
 9971      65725F63 
 9971      6F6E6669 
 9971      6700
 9972              	.LASF780:
 9973 35e5 795F7261 		.ascii	"y_raw\000"
 9973      7700
 9974              	.LASF484:
ARM GAS  C:\Users\salaz\AppData\Local\Temp\ccnyouLe.s 			page 260


 9975 35eb 43595F42 		.ascii	"CY_BLE_EVT_GAP_PASSKEY_ENTRY_REQUEST\000"
 9975      4C455F45 
 9975      56545F47 
 9975      41505F50 
 9975      4153534B 
 9976              	.LASF33:
 9977 3610 4E766963 		.ascii	"NvicMux25_IRQn\000"
 9977      4D757832 
 9977      355F4952 
 9977      516E00
 9978              	.LASF660:
 9979 361f 43595F42 		.ascii	"CY_BLE_GAPP_CONNECTABLE_HIGH_DC_DIRECTED_ADV\000"
 9979      4C455F47 
 9979      4150505F 
 9979      434F4E4E 
 9979      45435441 
 9980              	.LASF280:
 9981 364c 494E5452 		.ascii	"INTR_TX_SET\000"
 9981      5F54585F 
 9981      53455400 
 9982              	.LASF84:
 9983 3658 7363625F 		.ascii	"scb_1_interrupt_IRQn\000"
 9983      315F696E 
 9983      74657272 
 9983      7570745F 
 9983      4952516E 
 9984              	.LASF696:
 9985 366d 63795F65 		.ascii	"cy_en_ble_conn_state_t\000"
 9985      6E5F626C 
 9985      655F636F 
 9985      6E6E5F73 
 9985      74617465 
 9986              	.LASF97:
 9987 3684 63707573 		.ascii	"cpuss_interrupts_dw0_5_IRQn\000"
 9987      735F696E 
 9987      74657272 
 9987      75707473 
 9987      5F647730 
 9988              	.LASF425:
 9989 36a0 74784275 		.ascii	"txBuf\000"
 9989      6600
 9990              	.LASF508:
 9991 36a6 43595F42 		.ascii	"CY_BLE_EVT_GAP_ADV_TX\000"
 9991      4C455F45 
 9991      56545F47 
 9991      41505F41 
 9991      44565F54 
 9992              	.LASF561:
 9993 36bc 43595F42 		.ascii	"CY_BLE_ERROR_L2CAP_PSM_NOT_REGISTERED\000"
 9993      4C455F45 
 9993      52524F52 
 9993      5F4C3243 
 9993      41505F50 
 9994              	.LASF224:
 9995 36e2 434D445F 		.ascii	"CMD_RESP_STATUS\000"
 9995      52455350 
 9995      5F535441 
ARM GAS  C:\Users\salaz\AppData\Local\Temp\ccnyouLe.s 			page 261


 9995      54555300 
 9996              	.LASF686:
 9997 36f2 43595F42 		.ascii	"CY_BLE_ADV_STATE_STOP_INITIATED\000"
 9997      4C455F41 
 9997      44565F53 
 9997      54415445 
 9997      5F53544F 
 9998              	.LASF172:
 9999 3712 7564625F 		.ascii	"udb_interrupts_8_IRQn\000"
 9999      696E7465 
 9999      72727570 
 9999      74735F38 
 9999      5F495251 
 10000              	.LASF634:
 10001 3728 72656173 		.ascii	"reason\000"
 10001      6F6E00
 10002              	.LASF724:
 10003 372f 63795F73 		.ascii	"cy_stc_ble_gatts_handle_value_ntf_t\000"
 10003      74635F62 
 10003      6C655F67 
 10003      61747473 
 10003      5F68616E 
 10004              	.LASF741:
 10005 3753 73657276 		.ascii	"serviceChangedHandle\000"
 10005      69636543 
 10005      68616E67 
 10005      65644861 
 10005      6E646C65 
 10006              	.LASF544:
 10007 3768 43595F42 		.ascii	"CY_BLE_EVT_L2CAP_CBFC_DATA_WRITE_IND\000"
 10007      4C455F45 
 10007      56545F4C 
 10007      32434150 
 10007      5F434246 
 10008              	.LASF80:
 10009 378d 63707573 		.ascii	"cpuss_interrupts_ipc_13_IRQn\000"
 10009      735F696E 
 10009      74657272 
 10009      75707473 
 10009      5F697063 
 10010              	.LASF178:
 10011 37aa 7564625F 		.ascii	"udb_interrupts_14_IRQn\000"
 10011      696E7465 
 10011      72727570 
 10011      74735F31 
 10011      345F4952 
 10012              	.LASF207:
 10013 37c1 696E7433 		.ascii	"int32_t\000"
 10013      325F7400 
 10014              	.LASF342:
 10015 37c9 63795F65 		.ascii	"cy_en_scb_i2c_command_t\000"
 10015      6E5F7363 
 10015      625F6932 
 10015      635F636F 
 10015      6D6D616E 
 10016              	.LASF212:
 10017 37e1 49434552 		.ascii	"ICER\000"
ARM GAS  C:\Users\salaz\AppData\Local\Temp\ccnyouLe.s 			page 262


 10017      00
 10018              	.LASF886:
 10019 37e6 5F5F4E56 		.ascii	"__NVIC_SetPendingIRQ\000"
 10019      49435F53 
 10019      65745065 
 10019      6E64696E 
 10019      67495251 
 10020              	.LASF304:
 10021 37fb 70657269 		.ascii	"period\000"
 10021      6F6400
 10022              	.LASF112:
 10023 3802 63707573 		.ascii	"cpuss_interrupts_dw1_4_IRQn\000"
 10023      735F696E 
 10023      74657272 
 10023      75707473 
 10023      5F647731 
 10024              	.LASF124:
 10025 381e 63707573 		.ascii	"cpuss_interrupts_fault_0_IRQn\000"
 10025      735F696E 
 10025      74657272 
 10025      75707473 
 10025      5F666175 
 10026              	.LASF597:
 10027 383c 636F6E6E 		.ascii	"connHandle\000"
 10027      48616E64 
 10027      6C6500
 10028              	.LASF194:
 10029 3847 5F5F696E 		.ascii	"__int16_t\000"
 10029      7431365F 
 10029      7400
 10030              	.LASF726:
 10031 3851 61637475 		.ascii	"actualLength\000"
 10031      616C4C65 
 10031      6E677468 
 10031      00
 10032              	.LASF500:
 10033 385e 43595F42 		.ascii	"CY_BLE_EVT_GAP_SMP_NEGOTIATED_AUTH_INFO\000"
 10033      4C455F45 
 10033      56545F47 
 10033      41505F53 
 10033      4D505F4E 
 10034              	.LASF373:
 10035 3886 43595F53 		.ascii	"CY_SCB_UART_STOP_BITS_1_5\000"
 10035      43425F55 
 10035      4152545F 
 10035      53544F50 
 10035      5F424954 
 10036              	.LASF126:
 10037 38a0 63707573 		.ascii	"cpuss_interrupt_crypto_IRQn\000"
 10037      735F696E 
 10037      74657272 
 10037      7570745F 
 10037      63727970 
 10038              	.LASF49:
 10039 38bc 696F7373 		.ascii	"ioss_interrupts_gpio_7_IRQn\000"
 10039      5F696E74 
 10039      65727275 
ARM GAS  C:\Users\salaz\AppData\Local\Temp\ccnyouLe.s 			page 263


 10039      7074735F 
 10039      6770696F 
 10040              	.LASF400:
 10041 38d8 72656365 		.ascii	"receiverAddressMask\000"
 10041      69766572 
 10041      41646472 
 10041      6573734D 
 10041      61736B00 
 10042              	.LASF223:
 10043 38ec 434D445F 		.ascii	"CMD_RESP_CTRL\000"
 10043      52455350 
 10043      5F435452 
 10043      4C00
 10044              	.LASF222:
 10045 38fa 53544154 		.ascii	"STATUS\000"
 10045      555300
 10046              	.LASF129:
 10047 3901 63707573 		.ascii	"cpuss_interrupts_cm0_cti_1_IRQn\000"
 10047      735F696E 
 10047      74657272 
 10047      75707473 
 10047      5F636D30 
 10048              	.LASF565:
 10049 3921 43595F42 		.ascii	"CY_BLE_ERROR_FLASH_WRITE_NOT_PERMITED\000"
 10049      4C455F45 
 10049      52524F52 
 10049      5F464C41 
 10049      53485F57 
 10050              	.LASF656:
 10051 3947 7363616E 		.ascii	"scanTo\000"
 10051      546F00
 10052              	.LASF262:
 10053 394e 494E5452 		.ascii	"INTR_I2C_EC_MASKED\000"
 10053      5F493243 
 10053      5F45435F 
 10053      4D41534B 
 10053      454400
 10054              	.LASF664:
 10055 3961 63795F65 		.ascii	"cy_en_ble_gapp_adv_t\000"
 10055      6E5F626C 
 10055      655F6761 
 10055      70705F61 
 10055      64765F74 
 10056              	.LASF83:
 10057 3976 7363625F 		.ascii	"scb_0_interrupt_IRQn\000"
 10057      305F696E 
 10057      74657272 
 10057      7570745F 
 10057      4952516E 
 10058              	.LASF766:
 10059 398b 61757468 		.ascii	"authInfo\000"
 10059      496E666F 
 10059      00
 10060              	.LASF239:
 10061 3994 44444654 		.ascii	"DDFT_CTRL\000"
 10061      5F435452 
 10061      4C00
ARM GAS  C:\Users\salaz\AppData\Local\Temp\ccnyouLe.s 			page 264


 10062              	.LASF771:
 10063 399e 63795F73 		.ascii	"cy_stc_ble_config_t\000"
 10063      74635F62 
 10063      6C655F63 
 10063      6F6E6669 
 10063      675F7400 
 10064              	.LASF875:
 10065 39b2 43795F42 		.ascii	"Cy_BLE_GAP_Disconnect\000"
 10065      4C455F47 
 10065      41505F44 
 10065      6973636F 
 10065      6E6E6563 
 10066              	.LASF393:
 10067 39c8 73746F70 		.ascii	"stopBits\000"
 10067      42697473 
 10067      00
 10068              	.LASF181:
 10069 39d1 61756469 		.ascii	"audioss_interrupt_i2s_IRQn\000"
 10069      6F73735F 
 10069      696E7465 
 10069      72727570 
 10069      745F6932 
 10070              	.LASF803:
 10071 39ec 636F6465 		.ascii	"code\000"
 10071      00
 10072              	.LASF132:
 10073 39f1 74637077 		.ascii	"tcpwm_0_interrupts_0_IRQn\000"
 10073      6D5F305F 
 10073      696E7465 
 10073      72727570 
 10073      74735F30 
 10074              	.LASF165:
 10075 3a0b 7564625F 		.ascii	"udb_interrupts_1_IRQn\000"
 10075      696E7465 
 10075      72727570 
 10075      74735F31 
 10075      5F495251 
 10076              	.LASF149:
 10077 3a21 74637077 		.ascii	"tcpwm_1_interrupts_9_IRQn\000"
 10077      6D5F315F 
 10077      696E7465 
 10077      72727570 
 10077      74735F39 
 10078              	.LASF276:
 10079 3a3b 494E5452 		.ascii	"INTR_S_MASK\000"
 10079      5F535F4D 
 10079      41534B00 
 10080              	.LASF805:
 10081 3a47 64657669 		.ascii	"deviceStored\000"
 10081      63655374 
 10081      6F726564 
 10081      00
 10082              	.LASF778:
 10083 3a54 74696D65 		.ascii	"timestamp\000"
 10083      7374616D 
 10083      7000
 10084              	.LASF532:
ARM GAS  C:\Users\salaz\AppData\Local\Temp\ccnyouLe.s 			page 265


 10085 3a5e 43595F42 		.ascii	"CY_BLE_EVT_GATTS_READ_CHAR_VAL_ACCESS_REQ\000"
 10085      4C455F45 
 10085      56545F47 
 10085      41545453 
 10085      5F524541 
 10086              	.LASF270:
 10087 3a88 494E5452 		.ascii	"INTR_M_SET\000"
 10087      5F4D5F53 
 10087      455400
 10088              	.LASF855:
 10089 3a93 69735F61 		.ascii	"is_advertising\000"
 10089      64766572 
 10089      74697369 
 10089      6E6700
 10090              	.LASF267:
 10091 3aa2 494E5452 		.ascii	"INTR_SPI_EC_MASKED\000"
 10091      5F535049 
 10091      5F45435F 
 10091      4D41534B 
 10091      454400
 10092              	.LASF32:
 10093 3ab5 4E766963 		.ascii	"NvicMux24_IRQn\000"
 10093      4D757832 
 10093      345F4952 
 10093      516E00
 10094              	.LASF287:
 10095 3ac4 494E5452 		.ascii	"INTR_RX_MASKED\000"
 10095      5F52585F 
 10095      4D41534B 
 10095      454400
 10096              	.LASF841:
 10097 3ad3 63795F62 		.ascii	"cy_ble_basConfigPtr\000"
 10097      6C655F62 
 10097      6173436F 
 10097      6E666967 
 10097      50747200 
 10098              	.LASF589:
 10099 3ae7 63795F73 		.ascii	"cy_stc_ble_conn_handle_t\000"
 10099      74635F62 
 10099      6C655F63 
 10099      6F6E6E5F 
 10099      68616E64 
 10100              	.LASF629:
 10101 3b00 43595F42 		.ascii	"CY_BLE_GAP_RANDOM_PRIV_RESOLVABLE_ADDR\000"
 10101      4C455F47 
 10101      41505F52 
 10101      414E444F 
 10101      4D5F5052 
 10102              	.LASF488:
 10103 3b27 43595F42 		.ascii	"CY_BLE_EVT_GAPP_ADVERTISEMENT_START_STOP\000"
 10103      4C455F45 
 10103      56545F47 
 10103      4150505F 
 10103      41445645 
 10104              	.LASF317:
 10105 3b50 73746172 		.ascii	"startInputMode\000"
 10105      74496E70 
ARM GAS  C:\Users\salaz\AppData\Local\Temp\ccnyouLe.s 			page 266


 10105      75744D6F 
 10105      646500
 10106              	.LASF417:
 10107 3b5f 72785374 		.ascii	"rxStatus\000"
 10107      61747573 
 10107      00
 10108              	.LASF140:
 10109 3b68 74637077 		.ascii	"tcpwm_1_interrupts_0_IRQn\000"
 10109      6D5F315F 
 10109      696E7465 
 10109      72727570 
 10109      74735F30 
 10110              	.LASF352:
 10111 3b82 6D617374 		.ascii	"masterBuffer\000"
 10111      65724275 
 10111      66666572 
 10111      00
 10112              	.LASF366:
 10113 3b8f 63624164 		.ascii	"cbAddr\000"
 10113      647200
 10114              	.LASF79:
 10115 3b96 63707573 		.ascii	"cpuss_interrupts_ipc_12_IRQn\000"
 10115      735F696E 
 10115      74657272 
 10115      75707473 
 10115      5F697063 
 10116              	.LASF635:
 10117 3bb3 63795F73 		.ascii	"cy_stc_ble_gap_disconnect_info_t\000"
 10117      74635F62 
 10117      6C655F67 
 10117      61705F64 
 10117      6973636F 
 10118              	.LASF690:
 10119 3bd4 43595F42 		.ascii	"CY_BLE_CONN_STATE_CONNECTED\000"
 10119      4C455F43 
 10119      4F4E4E5F 
 10119      53544154 
 10119      455F434F 
 10120              	.LASF555:
 10121 3bf0 43595F42 		.ascii	"CY_BLE_ERROR_DEVICE_ALREADY_EXISTS\000"
 10121      4C455F45 
 10121      52524F52 
 10121      5F444556 
 10121      4943455F 
 10122              	.LASF252:
 10123 3c13 52585F46 		.ascii	"RX_FIFO_RD\000"
 10123      49464F5F 
 10123      524400
 10124              	.LASF87:
 10125 3c1e 7363625F 		.ascii	"scb_4_interrupt_IRQn\000"
 10125      345F696E 
 10125      74657272 
 10125      7570745F 
 10125      4952516E 
 10126              	.LASF89:
 10127 3c33 7363625F 		.ascii	"scb_6_interrupt_IRQn\000"
 10127      365F696E 
ARM GAS  C:\Users\salaz\AppData\Local\Temp\ccnyouLe.s 			page 267


 10127      74657272 
 10127      7570745F 
 10127      4952516E 
 10128              	.LASF727:
 10129 3c48 61747447 		.ascii	"attGenericVal\000"
 10129      656E6572 
 10129      69635661 
 10129      6C00
 10130              	.LASF804:
 10131 3c56 6E616D65 		.ascii	"name\000"
 10131      00
 10132              	.LASF293:
 10133 3c5b 75696E74 		.ascii	"uint8\000"
 10133      3800
 10134              	.LASF554:
 10135 3c61 43595F42 		.ascii	"CY_BLE_ERROR_NO_DEVICE_ENTITY\000"
 10135      4C455F45 
 10135      52524F52 
 10135      5F4E4F5F 
 10135      44455649 
 10136              	.LASF548:
 10137 3c7f 43595F42 		.ascii	"CY_BLE_ERROR_INVALID_PARAMETER\000"
 10137      4C455F45 
 10137      52524F52 
 10137      5F494E56 
 10137      414C4944 
 10138              	.LASF13:
 10139 3c9e 4E766963 		.ascii	"NvicMux5_IRQn\000"
 10139      4D757835 
 10139      5F495251 
 10139      6E00
 10140              	.LASF440:
 10141 3cac 43595F42 		.ascii	"CY_BLE_EVT_GET_CHANNEL_MAP_COMPLETE\000"
 10141      4C455F45 
 10141      56545F47 
 10141      45545F43 
 10141      48414E4E 
 10142              	.LASF716:
 10143 3cd0 736C6F77 		.ascii	"slowScanInterval\000"
 10143      5363616E 
 10143      496E7465 
 10143      7276616C 
 10143      00
 10144              	.LASF821:
 10145 3ce1 5472616E 		.ascii	"Transmission_SendAcc\000"
 10145      736D6973 
 10145      73696F6E 
 10145      5F53656E 
 10145      64416363 
 10146              	.LASF695:
 10147 3cf6 43595F42 		.ascii	"CY_BLE_CONN_STATE_CLIENT_DISCOVERED\000"
 10147      4C455F43 
 10147      4F4E4E5F 
 10147      53544154 
 10147      455F434C 
 10148              	.LASF744:
 10149 3d1a 63795F62 		.ascii	"cy_ble_callback_t\000"
ARM GAS  C:\Users\salaz\AppData\Local\Temp\ccnyouLe.s 			page 268


 10149      6C655F63 
 10149      616C6C62 
 10149      61636B5F 
 10149      7400
 10150              	.LASF428:
 10151 3d2c 696E6974 		.ascii	"initKey\000"
 10151      4B657900 
 10152              	.LASF688:
 10153 3d34 43595F42 		.ascii	"CY_BLE_CONN_STATE_DISCONNECTED\000"
 10153      4C455F43 
 10153      4F4E4E5F 
 10153      53544154 
 10153      455F4449 
 10154              	.LASF271:
 10155 3d53 494E5452 		.ascii	"INTR_M_MASK\000"
 10155      5F4D5F4D 
 10155      41534B00 
 10156              	.LASF475:
 10157 3d5f 43595F42 		.ascii	"CY_BLE_EVT_STACK_SHUTDOWN_COMPLETE\000"
 10157      4C455F45 
 10157      56545F53 
 10157      5441434B 
 10157      5F534855 
 10158              	.LASF596:
 10159 3d82 68616E64 		.ascii	"handleValPair\000"
 10159      6C655661 
 10159      6C506169 
 10159      7200
 10160              	.LASF466:
 10161 3d90 43595F42 		.ascii	"CY_BLE_EVT_GET_TX_PWR_COMPLETE\000"
 10161      4C455F45 
 10161      56545F47 
 10161      45545F54 
 10161      585F5057 
 10162              	.LASF730:
 10163 3daf 61747447 		.ascii	"attGenericValLen\000"
 10163      656E6572 
 10163      69635661 
 10163      6C4C656E 
 10163      00
 10164              	.LASF732:
 10165 3dc0 61747446 		.ascii	"attFormatValue\000"
 10165      6F726D61 
 10165      7456616C 
 10165      756500
 10166              	.LASF59:
 10167 3dcf 6C70636F 		.ascii	"lpcomp_interrupt_IRQn\000"
 10167      6D705F69 
 10167      6E746572 
 10167      72757074 
 10167      5F495251 
 10168              	.LASF65:
 10169 3de5 70617373 		.ascii	"pass_interrupt_ctbs_IRQn\000"
 10169      5F696E74 
 10169      65727275 
 10169      70745F63 
 10169      7462735F 
ARM GAS  C:\Users\salaz\AppData\Local\Temp\ccnyouLe.s 			page 269


 10170              	.LASF863:
 10171 3dfe 43795F42 		.ascii	"Cy_BLE_GAPP_AuthReqReply\000"
 10171      4C455F47 
 10171      4150505F 
 10171      41757468 
 10171      52657152 
 10172              	.LASF677:
 10173 3e17 7363616E 		.ascii	"scanRspDataLen\000"
 10173      52737044 
 10173      6174614C 
 10173      656E00
 10174              	.LASF658:
 10175 3e26 63795F73 		.ascii	"cy_stc_ble_gapc_disc_info_t\000"
 10175      74635F62 
 10175      6C655F67 
 10175      6170635F 
 10175      64697363 
 10176              	.LASF205:
 10177 3e42 696E7431 		.ascii	"int16_t\000"
 10177      365F7400 
 10178              	.LASF831:
 10179 3e4a 7A5F6861 		.ascii	"z_handleVal\000"
 10179      6E646C65 
 10179      56616C00 
 10180              	.LASF60:
 10181 3e56 7363625F 		.ascii	"scb_8_interrupt_IRQn\000"
 10181      385F696E 
 10181      74657272 
 10181      7570745F 
 10181      4952516E 
 10182              	.LASF20:
 10183 3e6b 4E766963 		.ascii	"NvicMux12_IRQn\000"
 10183      4D757831 
 10183      325F4952 
 10183      516E00
 10184              	.LASF75:
 10185 3e7a 63707573 		.ascii	"cpuss_interrupts_ipc_8_IRQn\000"
 10185      735F696E 
 10185      74657272 
 10185      75707473 
 10185      5F697063 
 10186              	.LASF638:
 10187 3e96 67617042 		.ascii	"gapBdAddr\000"
 10187      64416464 
 10187      7200
 10188              	.LASF51:
 10189 3ea0 696F7373 		.ascii	"ioss_interrupts_gpio_9_IRQn\000"
 10189      5F696E74 
 10189      65727275 
 10189      7074735F 
 10189      6770696F 
 10190              	.LASF26:
 10191 3ebc 4E766963 		.ascii	"NvicMux18_IRQn\000"
 10191      4D757831 
 10191      385F4952 
 10191      516E00
 10192              	.LASF247:
ARM GAS  C:\Users\salaz\AppData\Local\Temp\ccnyouLe.s 			page 270


 10193 3ecb 52585F46 		.ascii	"RX_FIFO_CTRL\000"
 10193      49464F5F 
 10193      4354524C 
 10193      00
 10194              	.LASF131:
 10195 3ed8 63707573 		.ascii	"cpuss_interrupts_cm4_cti_1_IRQn\000"
 10195      735F696E 
 10195      74657272 
 10195      75707473 
 10195      5F636D34 
 10196              	.LASF769:
 10197 3ef8 64657669 		.ascii	"deviceAddress\000"
 10197      63654164 
 10197      64726573 
 10197      7300
 10198              	.LASF275:
 10199 3f06 494E5452 		.ascii	"INTR_S_SET\000"
 10199      5F535F53 
 10199      455400
 10200              	.LASF762:
 10201 3f11 67617474 		.ascii	"gatts\000"
 10201      7300
 10202              	.LASF489:
 10203 3f17 43595F42 		.ascii	"CY_BLE_EVT_GAP_DEVICE_CONNECTED\000"
 10203      4C455F45 
 10203      56545F47 
 10203      41505F44 
 10203      45564943 
 10204              	.LASF477:
 10205 3f37 43595F42 		.ascii	"CY_BLE_EVT_RADIO_VOLTAGE_LEVEL\000"
 10205      4C455F45 
 10205      56545F52 
 10205      4144494F 
 10205      5F564F4C 
 10206              	.LASF354:
 10207 3f56 6D617374 		.ascii	"masterBufferIdx\000"
 10207      65724275 
 10207      66666572 
 10207      49647800 
 10208              	.LASF723:
 10209 3f66 63795F73 		.ascii	"cy_stc_ble_gapc_scan_params_t\000"
 10209      74635F62 
 10209      6C655F67 
 10209      6170635F 
 10209      7363616E 
 10210              	.LASF837:
 10211 3f84 63795F62 		.ascii	"cy_ble_connState\000"
 10211      6C655F63 
 10211      6F6E6E53 
 10211      74617465 
 10211      00
 10212              	.LASF368:
 10213 3f95 43595F53 		.ascii	"CY_SCB_UART_STANDARD\000"
 10213      43425F55 
 10213      4152545F 
 10213      5354414E 
 10213      44415244 
ARM GAS  C:\Users\salaz\AppData\Local\Temp\ccnyouLe.s 			page 271


 10214              	.LASF52:
 10215 3faa 696F7373 		.ascii	"ioss_interrupts_gpio_10_IRQn\000"
 10215      5F696E74 
 10215      65727275 
 10215      7074735F 
 10215      6770696F 
 10216              	.LASF747:
 10217 3fc7 63636364 		.ascii	"cccdCount\000"
 10217      436F756E 
 10217      7400
 10218              	.LASF349:
 10219 3fd1 6D617374 		.ascii	"masterStatus\000"
 10219      65725374 
 10219      61747573 
 10219      00
 10220              	.LASF557:
 10221 3fde 43595F42 		.ascii	"CY_BLE_ERROR_GAP_ROLE\000"
 10221      4C455F45 
 10221      52524F52 
 10221      5F474150 
 10221      5F524F4C 
 10222              	.LASF384:
 10223 3ff4 43595F53 		.ascii	"CY_SCB_UART_ACTIVE_LOW\000"
 10223      43425F55 
 10223      4152545F 
 10223      41435449 
 10223      56455F4C 
 10224              	.LASF328:
 10225 400b 64656164 		.ascii	"deadTimeClocks\000"
 10225      54696D65 
 10225      436C6F63 
 10225      6B7300
 10226              	.LASF448:
 10227 401a 43595F42 		.ascii	"CY_BLE_EVT_GET_LOCAL_RPA_COMPLETE\000"
 10227      4C455F45 
 10227      56545F47 
 10227      45545F4C 
 10227      4F43414C 
 10228              	.LASF121:
 10229 403c 63707573 		.ascii	"cpuss_interrupts_dw1_13_IRQn\000"
 10229      735F696E 
 10229      74657272 
 10229      75707473 
 10229      5F647731 
 10230              	.LASF701:
 10231 4059 63656E74 		.ascii	"centralAddrResolutionCharHandle\000"
 10231      72616C41 
 10231      64647252 
 10231      65736F6C 
 10231      7574696F 
 10232              	.LASF323:
 10233 4079 63795F73 		.ascii	"cy_stc_tcpwm_counter_config_t\000"
 10233      74635F74 
 10233      6370776D 
 10233      5F636F75 
 10233      6E746572 
 10234              	.LASF577:
ARM GAS  C:\Users\salaz\AppData\Local\Temp\ccnyouLe.s 			page 272


 10235 4097 62644164 		.ascii	"bdAddr\000"
 10235      647200
 10236              	.LASF431:
 10237 409e 43595F42 		.ascii	"CY_BLE_EVT_STACK_ON\000"
 10237      4C455F45 
 10237      56545F53 
 10237      5441434B 
 10237      5F4F4E00 
 10238              	.LASF12:
 10239 40b2 4E766963 		.ascii	"NvicMux4_IRQn\000"
 10239      4D757834 
 10239      5F495251 
 10239      6E00
 10240              	.LASF552:
 10241 40c0 43595F42 		.ascii	"CY_BLE_ERROR_OOB_NOT_AVAILABLE\000"
 10241      4C455F45 
 10241      52524F52 
 10241      5F4F4F42 
 10241      5F4E4F54 
 10242              	.LASF569:
 10243 40df 43595F42 		.ascii	"CY_BLE_ERROR_GATT_DB_INVALID_ATTR_HANDLE\000"
 10243      4C455F45 
 10243      52524F52 
 10243      5F474154 
 10243      545F4442 
 10244              	.LASF296:
 10245 4108 696E7431 		.ascii	"int16\000"
 10245      3600
 10246              	.LASF704:
 10247 410e 66617374 		.ascii	"fastAdvIntervalMin\000"
 10247      41647649 
 10247      6E746572 
 10247      76616C4D 
 10247      696E00
 10248              	.LASF107:
 10249 4121 63707573 		.ascii	"cpuss_interrupts_dw0_15_IRQn\000"
 10249      735F696E 
 10249      74657272 
 10249      75707473 
 10249      5F647730 
 10250              	.LASF68:
 10251 413e 63707573 		.ascii	"cpuss_interrupts_ipc_1_IRQn\000"
 10251      735F696E 
 10251      74657272 
 10251      75707473 
 10251      5F697063 
 10252              	.LASF136:
 10253 415a 74637077 		.ascii	"tcpwm_0_interrupts_4_IRQn\000"
 10253      6D5F305F 
 10253      696E7465 
 10253      72727570 
 10253      74735F34 
 10254              	.LASF867:
 10255 4174 6D656D63 		.ascii	"memcpy\000"
 10255      707900
 10256              	.LASF835:
 10257 417b 63795F62 		.ascii	"cy_ble_advState\000"
ARM GAS  C:\Users\salaz\AppData\Local\Temp\ccnyouLe.s 			page 273


 10257      6C655F61 
 10257      64765374 
 10257      61746500 
 10258              	.LASF712:
 10259 418b 66617374 		.ascii	"fastScanInterval\000"
 10259      5363616E 
 10259      496E7465 
 10259      7276616C 
 10259      00
 10260              	.LASF158:
 10261 419c 74637077 		.ascii	"tcpwm_1_interrupts_18_IRQn\000"
 10261      6D5F315F 
 10261      696E7465 
 10261      72727570 
 10261      74735F31 
 10262              	.LASF398:
 10263 41b7 656E6162 		.ascii	"enableMutliProcessorMode\000"
 10263      6C654D75 
 10263      746C6950 
 10263      726F6365 
 10263      73736F72 
 10264              	.LASF840:
 10265 41d0 63795F62 		.ascii	"cy_ble_configPtr\000"
 10265      6C655F63 
 10265      6F6E6669 
 10265      67507472 
 10265      00
 10266              	.LASF753:
 10267 41e1 73656375 		.ascii	"securityPairingMethod\000"
 10267      72697479 
 10267      50616972 
 10267      696E674D 
 10267      6574686F 
 10268              	.LASF371:
 10269 41f7 63795F65 		.ascii	"cy_en_scb_uart_mode_t\000"
 10269      6E5F7363 
 10269      625F7561 
 10269      72745F6D 
 10269      6F64655F 
 10270              	.LASF337:
 10271 420d 6B696C6C 		.ascii	"killInputMode\000"
 10271      496E7075 
 10271      744D6F64 
 10271      6500
 10272              	.LASF191:
 10273 421b 63795F65 		.ascii	"cy_en_intr_t\000"
 10273      6E5F696E 
 10273      74725F74 
 10273      00
 10274              	.LASF626:
 10275 4228 43595F42 		.ascii	"CY_BLE_GAP_AUTH_ERROR_LINK_DISCONNECTED\000"
 10275      4C455F47 
 10275      41505F41 
 10275      5554485F 
 10275      4552524F 
 10276              	.LASF86:
 10277 4250 7363625F 		.ascii	"scb_3_interrupt_IRQn\000"
ARM GAS  C:\Users\salaz\AppData\Local\Temp\ccnyouLe.s 			page 274


 10277      335F696E 
 10277      74657272 
 10277      7570745F 
 10277      4952516E 
 10278              	.LASF36:
 10279 4265 4E766963 		.ascii	"NvicMux28_IRQn\000"
 10279      4D757832 
 10279      385F4952 
 10279      516E00
 10280              	.LASF446:
 10281 4274 43595F42 		.ascii	"CY_BLE_EVT_DATA_LENGTH_CHANGE\000"
 10281      4C455F45 
 10281      56545F44 
 10281      4154415F 
 10281      4C454E47 
 10282              	.LASF11:
 10283 4292 4E766963 		.ascii	"NvicMux3_IRQn\000"
 10283      4D757833 
 10283      5F495251 
 10283      6E00
 10284              	.LASF717:
 10285 42a0 736C6F77 		.ascii	"slowScanWindow\000"
 10285      5363616E 
 10285      57696E64 
 10285      6F7700
 10286              	.LASF710:
 10287 42af 736C6F77 		.ascii	"slowAdvTimeOut\000"
 10287      41647654 
 10287      696D654F 
 10287      757400
 10288              	.LASF842:
 10289 42be 63795F62 		.ascii	"cy_ble_busyStatus\000"
 10289      6C655F62 
 10289      75737953 
 10289      74617475 
 10289      7300
 10290              	.LASF174:
 10291 42d0 7564625F 		.ascii	"udb_interrupts_10_IRQn\000"
 10291      696E7465 
 10291      72727570 
 10291      74735F31 
 10291      305F4952 
 10292              	.LASF58:
 10293 42e7 696F7373 		.ascii	"ioss_interrupt_vdd_IRQn\000"
 10293      5F696E74 
 10293      65727275 
 10293      70745F76 
 10293      64645F49 
 10294              	.LASF729:
 10295 42ff 6D617841 		.ascii	"maxAttrLength\000"
 10295      7474724C 
 10295      656E6774 
 10295      6800
 10296              	.LASF235:
 10297 430d 4932435F 		.ascii	"I2C_STATUS\000"
 10297      53544154 
 10297      555300
ARM GAS  C:\Users\salaz\AppData\Local\Temp\ccnyouLe.s 			page 275


 10298              	.LASF308:
 10299 4318 636F6D70 		.ascii	"compareOrCapture\000"
 10299      6172654F 
 10299      72436170 
 10299      74757265 
 10299      00
 10300              	.LASF878:
 10301 4329 52784275 		.ascii	"RxBuffer_Init\000"
 10301      66666572 
 10301      5F496E69 
 10301      7400
 10302              	.LASF798:
 10303 4337 76616C31 		.ascii	"val1\000"
 10303      00
 10304              	.LASF799:
 10305 433c 76616C32 		.ascii	"val2\000"
 10305      00
 10306              	.LASF383:
 10307 4341 63795F65 		.ascii	"cy_en_scb_uart_parity_t\000"
 10307      6E5F7363 
 10307      625F7561 
 10307      72745F70 
 10307      61726974 
 10308              	.LASF795:
 10309 4359 61646472 		.ascii	"addr\000"
 10309      00
 10310              	.LASF471:
 10311 435e 43595F42 		.ascii	"CY_BLE_EVT_AES_ENCRYPT_COMPLETE\000"
 10311      4C455F45 
 10311      56545F41 
 10311      45535F45 
 10311      4E435259 
 10312              	.LASF25:
 10313 437e 4E766963 		.ascii	"NvicMux17_IRQn\000"
 10313      4D757831 
 10313      375F4952 
 10313      516E00
 10314              	.LASF208:
 10315 438d 75696E74 		.ascii	"uint32_t\000"
 10315      33325F74 
 10315      00
 10316              	.LASF377:
 10317 4396 43595F53 		.ascii	"CY_SCB_UART_STOP_BITS_3_5\000"
 10317      43425F55 
 10317      4152545F 
 10317      53544F50 
 10317      5F424954 
 10318              	.LASF846:
 10319 43b0 53656E73 		.ascii	"SensorBus_context\000"
 10319      6F724275 
 10319      735F636F 
 10319      6E746578 
 10319      7400
 10320              	.LASF834:
 10321 43c2 63795F52 		.ascii	"cy_RTC_daysInMonthTbl\000"
 10321      54435F64 
 10321      61797349 
ARM GAS  C:\Users\salaz\AppData\Local\Temp\ccnyouLe.s 			page 276


 10321      6E4D6F6E 
 10321      74685462 
 10322              	.LASF327:
 10323 43d8 70776D41 		.ascii	"pwmAlignment\000"
 10323      6C69676E 
 10323      6D656E74 
 10323      00
 10324              	.LASF350:
 10325 43e5 6D617374 		.ascii	"masterPause\000"
 10325      65725061 
 10325      75736500 
 10326              	.LASF760:
 10327 43f1 67617063 		.ascii	"gapcScanParams\000"
 10327      5363616E 
 10327      50617261 
 10327      6D7300
 10328              	.LASF115:
 10329 4400 63707573 		.ascii	"cpuss_interrupts_dw1_7_IRQn\000"
 10329      735F696E 
 10329      74657272 
 10329      75707473 
 10329      5F647731 
 10330              	.LASF185:
 10331 441c 7573625F 		.ascii	"usb_interrupt_hi_IRQn\000"
 10331      696E7465 
 10331      72727570 
 10331      745F6869 
 10331      5F495251 
 10332              	.LASF351:
 10333 4432 6D617374 		.ascii	"masterRdDir\000"
 10333      65725264 
 10333      44697200 
 10334              	.LASF685:
 10335 443e 43595F42 		.ascii	"CY_BLE_ADV_STATE_ADVERTISING\000"
 10335      4C455F41 
 10335      44565F53 
 10335      54415445 
 10335      5F414456 
 10336              	.LASF871:
 10337 445b 54784275 		.ascii	"TxBuffer_BufferToMemory\000"
 10337      66666572 
 10337      5F427566 
 10337      66657254 
 10337      6F4D656D 
 10338              	.LASF381:
 10339 4473 43595F53 		.ascii	"CY_SCB_UART_PARITY_EVEN\000"
 10339      43425F55 
 10339      4152545F 
 10339      50415249 
 10339      54595F45 
 10340              	.LASF100:
 10341 448b 63707573 		.ascii	"cpuss_interrupts_dw0_8_IRQn\000"
 10341      735F696E 
 10341      74657272 
 10341      75707473 
 10341      5F647730 
 10342              	.LASF643:
ARM GAS  C:\Users\salaz\AppData\Local\Temp\ccnyouLe.s 			page 277


 10343 44a7 656B6579 		.ascii	"ekeySize\000"
 10343      53697A65 
 10343      00
 10344              	.LASF341:
 10345 44b0 43595F53 		.ascii	"CY_SCB_I2C_NAK\000"
 10345      43425F49 
 10345      32435F4E 
 10345      414B00
 10346              	.LASF151:
 10347 44bf 74637077 		.ascii	"tcpwm_1_interrupts_11_IRQn\000"
 10347      6D5F315F 
 10347      696E7465 
 10347      72727570 
 10347      74735F31 
 10348              	.LASF253:
 10349 44da 52585F46 		.ascii	"RX_FIFO_RD_SILENT\000"
 10349      49464F5F 
 10349      52445F53 
 10349      494C454E 
 10349      5400
 10350              	.LASF406:
 10351 44ec 63747350 		.ascii	"ctsPolarity\000"
 10351      6F6C6172 
 10351      69747900 
 10352              	.LASF120:
 10353 44f8 63707573 		.ascii	"cpuss_interrupts_dw1_12_IRQn\000"
 10353      735F696E 
 10353      74657272 
 10353      75707473 
 10353      5F647731 
 10354              	.LASF881:
 10355 4515 43795F42 		.ascii	"Cy_BLE_RegisterAppHostCallback\000"
 10355      4C455F52 
 10355      65676973 
 10355      74657241 
 10355      7070486F 
 10356              	.LASF320:
 10357 4534 73746F70 		.ascii	"stopInput\000"
 10357      496E7075 
 10357      7400
 10358              	.LASF196:
 10359 453e 73686F72 		.ascii	"short unsigned int\000"
 10359      7420756E 
 10359      7369676E 
 10359      65642069 
 10359      6E7400
 10360              	.LASF823:
 10361 4551 785F7661 		.ascii	"x_val\000"
 10361      6C00
 10362              	.LASF495:
 10363 4557 43595F42 		.ascii	"CY_BLE_EVT_GAP_NUMERIC_COMPARISON_REQUEST\000"
 10363      4C455F45 
 10363      56545F47 
 10363      41505F4E 
 10363      554D4552 
 10364              	.LASF721:
 10365 4581 67617063 		.ascii	"gapcConnectionSlaveLatency\000"
ARM GAS  C:\Users\salaz\AppData\Local\Temp\ccnyouLe.s 			page 278


 10365      436F6E6E 
 10365      65637469 
 10365      6F6E536C 
 10365      6176654C 
 10366              	.LASF719:
 10367 459c 67617063 		.ascii	"gapcConnectionIntervalMin\000"
 10367      436F6E6E 
 10367      65637469 
 10367      6F6E496E 
 10367      74657276 
 10368              	.LASF93:
 10369 45b6 63707573 		.ascii	"cpuss_interrupts_dw0_1_IRQn\000"
 10369      735F696E 
 10369      74657272 
 10369      75707473 
 10369      5F647730 
 10370              	.LASF787:
 10371 45d2 62617365 		.ascii	"base\000"
 10371      00
 10372              	.LASF374:
 10373 45d7 43595F53 		.ascii	"CY_SCB_UART_STOP_BITS_2\000"
 10373      43425F55 
 10373      4152545F 
 10373      53544F50 
 10373      5F424954 
 10374              	.LASF376:
 10375 45ef 43595F53 		.ascii	"CY_SCB_UART_STOP_BITS_3\000"
 10375      43425F55 
 10375      4152545F 
 10375      53544F50 
 10375      5F424954 
 10376              	.LASF378:
 10377 4607 43595F53 		.ascii	"CY_SCB_UART_STOP_BITS_4\000"
 10377      43425F55 
 10377      4152545F 
 10377      53544F50 
 10377      5F424954 
 10378              	.LASF843:
 10379 461f 41707043 		.ascii	"AppControl_IRQ_cfg\000"
 10379      6F6E7472 
 10379      6F6C5F49 
 10379      52515F63 
 10379      666700
 10380              	.LASF258:
 10381 4632 52455345 		.ascii	"RESERVED11\000"
 10381      52564544 
 10381      313100
 10382              	.LASF67:
 10383 463d 63707573 		.ascii	"cpuss_interrupts_ipc_0_IRQn\000"
 10383      735F696E 
 10383      74657272 
 10383      75707473 
 10383      5F697063 
 10384              	.LASF263:
 10385 4659 52455345 		.ascii	"RESERVED13\000"
 10385      52564544 
 10385      313300
ARM GAS  C:\Users\salaz\AppData\Local\Temp\ccnyouLe.s 			page 279


 10386              	.LASF135:
 10387 4664 74637077 		.ascii	"tcpwm_0_interrupts_3_IRQn\000"
 10387      6D5F305F 
 10387      696E7465 
 10387      72727570 
 10387      74735F33 
 10388              	.LASF168:
 10389 467e 7564625F 		.ascii	"udb_interrupts_4_IRQn\000"
 10389      696E7465 
 10389      72727570 
 10389      74735F34 
 10389      5F495251 
 10390              	.LASF386:
 10391 4694 63795F65 		.ascii	"cy_en_scb_uart_polarity_t\000"
 10391      6E5F7363 
 10391      625F7561 
 10391      72745F70 
 10391      6F6C6172 
 10392              	.LASF775:
 10393 46ae 62617373 		.ascii	"bass\000"
 10393      00
 10394              	.LASF591:
 10395 46b3 61637475 		.ascii	"actualLen\000"
 10395      616C4C65 
 10395      6E00
 10396              	.LASF273:
 10397 46bd 52455345 		.ascii	"RESERVED16\000"
 10397      52564544 
 10397      313600
 10398              	.LASF670:
 10399 46c8 61647643 		.ascii	"advChannelMap\000"
 10399      68616E6E 
 10399      656C4D61 
 10399      7000
 10400              	.LASF742:
 10401 46d6 63636364 		.ascii	"cccdHandle\000"
 10401      48616E64 
 10401      6C6500
 10402              	.LASF436:
 10403 46e1 43595F42 		.ascii	"CY_BLE_EVT_FLASH_CORRUPT\000"
 10403      4C455F45 
 10403      56545F46 
 10403      4C415348 
 10403      5F434F52 
 10404              	.LASF35:
 10405 46fa 4E766963 		.ascii	"NvicMux27_IRQn\000"
 10405      4D757832 
 10405      375F4952 
 10405      516E00
 10406              	.LASF197:
 10407 4709 5F5F696E 		.ascii	"__int32_t\000"
 10407      7433325F 
 10407      7400
 10408              	.LASF333:
 10409 4713 696E7665 		.ascii	"invertPWMOutN\000"
 10409      72745057 
 10409      4D4F7574 
ARM GAS  C:\Users\salaz\AppData\Local\Temp\ccnyouLe.s 			page 280


 10409      4E00
 10410              	.LASF579:
 10411 4721 63795F73 		.ascii	"cy_stc_ble_bd_addr_t\000"
 10411      74635F62 
 10411      6C655F62 
 10411      645F6164 
 10411      64725F74 
 10412              	.LASF818:
 10413 4736 5472616E 		.ascii	"Transmission_EventHandler\000"
 10413      736D6973 
 10413      73696F6E 
 10413      5F457665 
 10413      6E744861 
 10414              	.LASF108:
 10415 4750 63707573 		.ascii	"cpuss_interrupts_dw1_0_IRQn\000"
 10415      735F696E 
 10415      74657272 
 10415      75707473 
 10415      5F647731 
 10416              	.LASF407:
 10417 476c 72747352 		.ascii	"rtsRxFifoLevel\000"
 10417      78466966 
 10417      6F4C6576 
 10417      656C00
 10418              	.LASF413:
 10419 477b 74784669 		.ascii	"txFifoIntEnableMask\000"
 10419      666F496E 
 10419      74456E61 
 10419      626C654D 
 10419      61736B00 
 10420              	.LASF707:
 10421 478f 736C6F77 		.ascii	"slowAdvEnable\000"
 10421      41647645 
 10421      6E61626C 
 10421      6500
 10422              	.LASF588:
 10423 479d 61747449 		.ascii	"attId\000"
 10423      6400
 10424              	.LASF861:
 10425 47a3 52784275 		.ascii	"RxBuffer_MemoryToBuffer\000"
 10425      66666572 
 10425      5F4D656D 
 10425      6F727954 
 10425      6F427566 
 10426              	.LASF616:
 10427 47bb 43595F42 		.ascii	"CY_BLE_GAP_AUTH_ERROR_INSUFFICIENT_ENCRYPTION_KEY_S"
 10427      4C455F47 
 10427      41505F41 
 10427      5554485F 
 10427      4552524F 
 10428 47ee 495A4500 		.ascii	"IZE\000"
 10429              	.LASF316:
 10430 47f2 72656C6F 		.ascii	"reloadInput\000"
 10430      6164496E 
 10430      70757400 
 10431              	.LASF314:
 10432 47fe 63617074 		.ascii	"captureInput\000"
ARM GAS  C:\Users\salaz\AppData\Local\Temp\ccnyouLe.s 			page 281


 10432      75726549 
 10432      6E707574 
 10432      00
 10433              	.LASF876:
 10434 480b 43795F42 		.ascii	"Cy_BLE_GATTS_SendNotification\000"
 10434      4C455F47 
 10434      41545453 
 10434      5F53656E 
 10434      644E6F74 
 10435              	.LASF210:
 10436 4829 49534552 		.ascii	"ISER\000"
 10436      00
 10437              	.LASF82:
 10438 482e 63707573 		.ascii	"cpuss_interrupts_ipc_15_IRQn\000"
 10438      735F696E 
 10438      74657272 
 10438      75707473 
 10438      5F697063 
 10439              	.LASF879:
 10440 484b 43795F42 		.ascii	"Cy_BLE_Start\000"
 10440      4C455F53 
 10440      74617274 
 10440      00
 10441              	.LASF421:
 10442 4858 72785269 		.ascii	"rxRingBufTail\000"
 10442      6E674275 
 10442      66546169 
 10442      6C00
 10443              	.LASF63:
 10444 4866 73727373 		.ascii	"srss_interrupt_backup_IRQn\000"
 10444      5F696E74 
 10444      65727275 
 10444      70745F62 
 10444      61636B75 
 10445              	.LASF409:
 10446 4881 62726561 		.ascii	"breakWidth\000"
 10446      6B576964 
 10446      746800
 10447              	.LASF4:
 10448 488c 48617264 		.ascii	"HardFault_IRQn\000"
 10448      4661756C 
 10448      745F4952 
 10448      516E00
 10449              	.LASF770:
 10450 489b 626C6573 		.ascii	"blessIsrConfig\000"
 10450      73497372 
 10450      436F6E66 
 10450      696700
 10451              	.LASF467:
 10452 48aa 43595F42 		.ascii	"CY_BLE_EVT_SET_TX_PWR_COMPLETE\000"
 10452      4C455F45 
 10452      56545F53 
 10452      45545F54 
 10452      585F5057 
 10453              	.LASF61:
 10454 48c9 73727373 		.ascii	"srss_interrupt_mcwdt_0_IRQn\000"
 10454      5F696E74 
ARM GAS  C:\Users\salaz\AppData\Local\Temp\ccnyouLe.s 			page 282


 10454      65727275 
 10454      70745F6D 
 10454      63776474 
 10455              	.LASF394:
 10456 48e5 70617269 		.ascii	"parity\000"
 10456      747900
 10457              	.LASF161:
 10458 48ec 74637077 		.ascii	"tcpwm_1_interrupts_21_IRQn\000"
 10458      6D5F315F 
 10458      696E7465 
 10458      72727570 
 10458      74735F32 
 10459              	.LASF774:
 10460 4907 63795F73 		.ascii	"cy_stc_ble_bass_t\000"
 10460      74635F62 
 10460      6C655F62 
 10460      6173735F 
 10460      7400
 10461              	.LASF418:
 10462 4919 72785269 		.ascii	"rxRingBuf\000"
 10462      6E674275 
 10462      6600
 10463              	.LASF345:
 10464 4923 63795F73 		.ascii	"cy_stc_scb_i2c_context\000"
 10464      74635F73 
 10464      63625F69 
 10464      32635F63 
 10464      6F6E7465 
 10465              	.LASF784:
 10466 493a 6163635F 		.ascii	"acc_sample\000"
 10466      73616D70 
 10466      6C6500
 10467              	.LASF612:
 10468 4945 43595F42 		.ascii	"CY_BLE_GAP_AUTH_ERROR_OOB_DATA_NOT_AVAILABLE\000"
 10468      4C455F47 
 10468      41505F41 
 10468      5554485F 
 10468      4552524F 
 10469              	.LASF16:
 10470 4972 4E766963 		.ascii	"NvicMux8_IRQn\000"
 10470      4D757838 
 10470      5F495251 
 10470      6E00
 10471              	.LASF757:
 10472 4980 64697363 		.ascii	"discoveryModeInfo\000"
 10472      6F766572 
 10472      794D6F64 
 10472      65496E66 
 10472      6F00
 10473              	.LASF39:
 10474 4992 4E766963 		.ascii	"NvicMux31_IRQn\000"
 10474      4D757833 
 10474      315F4952 
 10474      516E00
 10475              	.LASF452:
 10476 49a1 43595F42 		.ascii	"CY_BLE_EVT_ADD_DEVICE_TO_RPA_LIST_COMPLETE\000"
 10476      4C455F45 
ARM GAS  C:\Users\salaz\AppData\Local\Temp\ccnyouLe.s 			page 283


 10476      56545F41 
 10476      44445F44 
 10476      45564943 
 10477              	.LASF444:
 10478 49cc 43595F42 		.ascii	"CY_BLE_EVT_SET_SUGGESTED_DATA_LENGTH_COMPLETE\000"
 10478      4C455F45 
 10478      56545F53 
 10478      45545F53 
 10478      55474745 
 10479              	.LASF294:
 10480 49fa 75696E74 		.ascii	"uint16\000"
 10480      313600
 10481              	.LASF507:
 10482 4a01 43595F42 		.ascii	"CY_BLE_EVT_GAPP_UPDATE_ADV_SCAN_DATA_COMPLETE\000"
 10482      4C455F45 
 10482      56545F47 
 10482      4150505F 
 10482      55504441 
 10483              	.LASF654:
 10484 4a2f 6F776E41 		.ascii	"ownAddrType\000"
 10484      64647254 
 10484      79706500 
 10485              	.LASF234:
 10486 4a3b 4932435F 		.ascii	"I2C_CTRL\000"
 10486      4354524C 
 10486      00
 10487              	.LASF318:
 10488 4a44 73746172 		.ascii	"startInput\000"
 10488      74496E70 
 10488      757400
 10489              	.LASF825:
 10490 4a4f 7A5F7661 		.ascii	"z_val\000"
 10490      6C00
 10491              	.LASF28:
 10492 4a55 4E766963 		.ascii	"NvicMux20_IRQn\000"
 10492      4D757832 
 10492      305F4952 
 10492      516E00
 10493              	.LASF372:
 10494 4a64 43595F53 		.ascii	"CY_SCB_UART_STOP_BITS_1\000"
 10494      43425F55 
 10494      4152545F 
 10494      53544F50 
 10494      5F424954 
 10495              	.LASF502:
 10496 4a7c 43595F42 		.ascii	"CY_BLE_EVT_GAP_KEYS_GEN_COMPLETE\000"
 10496      4C455F45 
 10496      56545F47 
 10496      41505F4B 
 10496      4559535F 
 10497              	.LASF370:
 10498 4a9d 43595F53 		.ascii	"CY_SCB_UART_IRDA\000"
 10498      43425F55 
 10498      4152545F 
 10498      49524441 
 10498      00
 10499              	.LASF344:
ARM GAS  C:\Users\salaz\AppData\Local\Temp\ccnyouLe.s 			page 284


 10500 4aae 63795F63 		.ascii	"cy_cb_scb_i2c_handle_addr_t\000"
 10500      625F7363 
 10500      625F6932 
 10500      635F6861 
 10500      6E646C65 
 10501              	.LASF666:
 10502 4aca 61647649 		.ascii	"advIntvMax\000"
 10502      6E74764D 
 10502      617800
 10503              		.ident	"GCC: (GNU Tools for ARM Embedded Processors) 5.4.1 20160609 (release) [ARM/embedded-5-bran
