ARM GAS  C:\Users\salaz\AppData\Local\Temp\ccKm0KhK.s 			page 1


   1              		.syntax unified
   2              		.cpu cortex-m0plus
   3              		.fpu softvfp
   4              		.eabi_attribute 20, 1
   5              		.eabi_attribute 21, 1
   6              		.eabi_attribute 23, 3
   7              		.eabi_attribute 24, 1
   8              		.eabi_attribute 25, 1
   9              		.eabi_attribute 26, 1
  10              		.eabi_attribute 30, 1
  11              		.eabi_attribute 34, 0
  12              		.eabi_attribute 18, 4
  13              		.thumb
  14              		.syntax unified
  15              		.file	"BusManager.c"
  16              		.text
  17              	.Ltext0:
  18              		.cfi_sections	.debug_frame
  19              		.section	.text.SensorBusBusy,"ax",%progbits
  20              		.align	2
  21              		.code	16
  22              		.thumb_func
  23              		.type	SensorBusBusy, %function
  24              	SensorBusBusy:
  25              	.LFB798:
  26              		.file 1 "BusManager.c"
   1:BusManager.c  **** 
   2:BusManager.c  **** #include <BusManager.h>
   3:BusManager.c  **** #include <SystemCore.h>
   4:BusManager.c  **** #include <KinOS.h>
   5:BusManager.c  **** 
   6:BusManager.c  **** #include <AccDriver.h>
   7:BusManager.c  **** #include <GyrDriver.h>
   8:BusManager.c  **** 
   9:BusManager.c  **** #include "debug.h"
  10:BusManager.c  **** 
  11:BusManager.c  **** //-------------------------------------------------------------//
  12:BusManager.c  **** 
  13:BusManager.c  **** bool local_bus_busy = false;  // Global to BusManager.c
  14:BusManager.c  **** 
  15:BusManager.c  **** //-------------------------------------------------------------//
  16:BusManager.c  **** 
  17:BusManager.c  **** #define NUM_OPERATIONS 11
  18:BusManager.c  **** 
  19:BusManager.c  **** static uint8 operation_fifo[NUM_OPERATIONS];
  20:BusManager.c  **** 
  21:BusManager.c  **** static uint8 head = 0; // FIFO Head
  22:BusManager.c  **** static uint8 tail = 0; // FIFO Tail
  23:BusManager.c  **** static uint8 size = 0; // FIFO Size
  24:BusManager.c  **** 
  25:BusManager.c  **** //-------------------------------------------------------------//
  26:BusManager.c  **** //-------------------------XXXXXXXXXXX-------------------------//
  27:BusManager.c  **** //-------------------------------------------------------------//
  28:BusManager.c  **** 
  29:BusManager.c  **** static bool SensorBusBusy()
  30:BusManager.c  **** {
  27              		.loc 1 30 0
ARM GAS  C:\Users\salaz\AppData\Local\Temp\ccKm0KhK.s 			page 2


  28              		.cfi_startproc
  29              		@ args = 0, pretend = 0, frame = 0
  30              		@ frame_needed = 0, uses_anonymous_args = 0
  31 0000 10B5     		push	{r4, lr}
  32              		.cfi_def_cfa_offset 8
  33              		.cfi_offset 4, -8
  34              		.cfi_offset 14, -4
  35              	.LBB24:
  36              	.LBB25:
  37              		.file 2 "Generated_Source\\PSoC6/SensorBus.h"
   1:Generated_Source\PSoC6/SensorBus.h **** /***************************************************************************//**
   2:Generated_Source\PSoC6/SensorBus.h **** * \file SensorBus.c
   3:Generated_Source\PSoC6/SensorBus.h **** * \version 2.0
   4:Generated_Source\PSoC6/SensorBus.h **** *
   5:Generated_Source\PSoC6/SensorBus.h **** *  This file provides constants and parameter values for the I2C component.
   6:Generated_Source\PSoC6/SensorBus.h **** *
   7:Generated_Source\PSoC6/SensorBus.h **** ********************************************************************************
   8:Generated_Source\PSoC6/SensorBus.h **** * \copyright
   9:Generated_Source\PSoC6/SensorBus.h **** * Copyright 2016-2017, Cypress Semiconductor Corporation. All rights reserved.
  10:Generated_Source\PSoC6/SensorBus.h **** * You may use this file only in accordance with the license, terms, conditions,
  11:Generated_Source\PSoC6/SensorBus.h **** * disclaimers, and limitations in the end user license agreement accompanying
  12:Generated_Source\PSoC6/SensorBus.h **** * the software package with which this file was provided.
  13:Generated_Source\PSoC6/SensorBus.h **** *******************************************************************************/
  14:Generated_Source\PSoC6/SensorBus.h **** 
  15:Generated_Source\PSoC6/SensorBus.h **** #if !defined(SensorBus_CY_SCB_I2C_PDL_H)
  16:Generated_Source\PSoC6/SensorBus.h **** #define SensorBus_CY_SCB_I2C_PDL_H
  17:Generated_Source\PSoC6/SensorBus.h **** 
  18:Generated_Source\PSoC6/SensorBus.h **** #include "cyfitter.h"
  19:Generated_Source\PSoC6/SensorBus.h **** #include "scb/cy_scb_i2c.h"
  20:Generated_Source\PSoC6/SensorBus.h **** 
  21:Generated_Source\PSoC6/SensorBus.h **** #if defined(__cplusplus)
  22:Generated_Source\PSoC6/SensorBus.h **** extern "C" {
  23:Generated_Source\PSoC6/SensorBus.h **** #endif
  24:Generated_Source\PSoC6/SensorBus.h **** 
  25:Generated_Source\PSoC6/SensorBus.h **** /***************************************
  26:Generated_Source\PSoC6/SensorBus.h **** *   Initial Parameter Constants
  27:Generated_Source\PSoC6/SensorBus.h **** ****************************************/
  28:Generated_Source\PSoC6/SensorBus.h **** 
  29:Generated_Source\PSoC6/SensorBus.h **** #define SensorBus_MODE               (0x2U)
  30:Generated_Source\PSoC6/SensorBus.h **** #define SensorBus_MODE_SLAVE_MASK    (0x1U)
  31:Generated_Source\PSoC6/SensorBus.h **** #define SensorBus_MODE_MASTER_MASK   (0x2U)
  32:Generated_Source\PSoC6/SensorBus.h **** 
  33:Generated_Source\PSoC6/SensorBus.h **** #define SensorBus_ENABLE_SLAVE       (0UL != (SensorBus_MODE & SensorBus_MODE_SLAVE_MASK))
  34:Generated_Source\PSoC6/SensorBus.h **** #define SensorBus_ENABLE_MASTER      (0UL != (SensorBus_MODE & SensorBus_MODE_MASTER_MASK))
  35:Generated_Source\PSoC6/SensorBus.h **** #define SensorBus_MANUAL_SCL_CONTROL (0U)
  36:Generated_Source\PSoC6/SensorBus.h **** 
  37:Generated_Source\PSoC6/SensorBus.h **** 
  38:Generated_Source\PSoC6/SensorBus.h **** /***************************************
  39:Generated_Source\PSoC6/SensorBus.h **** *        Function Prototypes
  40:Generated_Source\PSoC6/SensorBus.h **** ***************************************/
  41:Generated_Source\PSoC6/SensorBus.h **** /**
  42:Generated_Source\PSoC6/SensorBus.h **** * \addtogroup group_general
  43:Generated_Source\PSoC6/SensorBus.h **** * @{
  44:Generated_Source\PSoC6/SensorBus.h **** */
  45:Generated_Source\PSoC6/SensorBus.h **** /* Component only APIs. */
  46:Generated_Source\PSoC6/SensorBus.h **** void SensorBus_Start(void);
  47:Generated_Source\PSoC6/SensorBus.h **** 
ARM GAS  C:\Users\salaz\AppData\Local\Temp\ccKm0KhK.s 			page 3


  48:Generated_Source\PSoC6/SensorBus.h **** /* Basic functions. */
  49:Generated_Source\PSoC6/SensorBus.h **** __STATIC_INLINE cy_en_scb_i2c_status_t SensorBus_Init(cy_stc_scb_i2c_config_t const *config);
  50:Generated_Source\PSoC6/SensorBus.h **** __STATIC_INLINE void SensorBus_DeInit (void);
  51:Generated_Source\PSoC6/SensorBus.h **** __STATIC_INLINE void SensorBus_Enable (void);
  52:Generated_Source\PSoC6/SensorBus.h **** __STATIC_INLINE void SensorBus_Disable(void);
  53:Generated_Source\PSoC6/SensorBus.h **** 
  54:Generated_Source\PSoC6/SensorBus.h **** /* Data rate configuration functions. */
  55:Generated_Source\PSoC6/SensorBus.h **** __STATIC_INLINE uint32_t SensorBus_SetDataRate(uint32_t dataRateHz, uint32_t scbClockHz);
  56:Generated_Source\PSoC6/SensorBus.h **** __STATIC_INLINE uint32_t SensorBus_GetDataRate(uint32_t scbClockHz);
  57:Generated_Source\PSoC6/SensorBus.h **** 
  58:Generated_Source\PSoC6/SensorBus.h **** /* Register callbacks. */
  59:Generated_Source\PSoC6/SensorBus.h **** __STATIC_INLINE void SensorBus_RegisterEventCallback(cy_cb_scb_i2c_handle_events_t callback);
  60:Generated_Source\PSoC6/SensorBus.h **** #if (SensorBus_ENABLE_SLAVE)
  61:Generated_Source\PSoC6/SensorBus.h **** __STATIC_INLINE void SensorBus_RegisterAddrCallback (cy_cb_scb_i2c_handle_addr_t callback);
  62:Generated_Source\PSoC6/SensorBus.h **** #endif /* (SensorBus_ENABLE_SLAVE) */
  63:Generated_Source\PSoC6/SensorBus.h **** 
  64:Generated_Source\PSoC6/SensorBus.h **** /* Configuration functions. */
  65:Generated_Source\PSoC6/SensorBus.h **** #if (SensorBus_ENABLE_SLAVE)
  66:Generated_Source\PSoC6/SensorBus.h **** __STATIC_INLINE void     SensorBus_SlaveSetAddress(uint8_t addr);
  67:Generated_Source\PSoC6/SensorBus.h **** __STATIC_INLINE uint32_t SensorBus_SlaveGetAddress(void);
  68:Generated_Source\PSoC6/SensorBus.h **** __STATIC_INLINE void     SensorBus_SlaveSetAddressMask(uint8_t addrMask);
  69:Generated_Source\PSoC6/SensorBus.h **** __STATIC_INLINE uint32_t SensorBus_SlaveGetAddressMask(void);
  70:Generated_Source\PSoC6/SensorBus.h **** #endif /* (SensorBus_ENABLE_SLAVE) */
  71:Generated_Source\PSoC6/SensorBus.h **** 
  72:Generated_Source\PSoC6/SensorBus.h **** #if (SensorBus_ENABLE_MASTER)
  73:Generated_Source\PSoC6/SensorBus.h **** __STATIC_INLINE void SensorBus_MasterSetLowPhaseDutyCycle (uint32_t clockCycles);
  74:Generated_Source\PSoC6/SensorBus.h **** __STATIC_INLINE void SensorBus_MasterSetHighPhaseDutyCycle(uint32_t clockCycles);
  75:Generated_Source\PSoC6/SensorBus.h **** #endif /* (SensorBus_ENABLE_MASTER) */
  76:Generated_Source\PSoC6/SensorBus.h **** 
  77:Generated_Source\PSoC6/SensorBus.h **** /* Bus status. */
  78:Generated_Source\PSoC6/SensorBus.h **** __STATIC_INLINE bool     SensorBus_IsBusBusy(void);
  79:Generated_Source\PSoC6/SensorBus.h **** 
  80:Generated_Source\PSoC6/SensorBus.h **** /* Slave functions. */
  81:Generated_Source\PSoC6/SensorBus.h **** #if (SensorBus_ENABLE_SLAVE)
  82:Generated_Source\PSoC6/SensorBus.h **** __STATIC_INLINE uint32_t SensorBus_SlaveGetStatus(void);
  83:Generated_Source\PSoC6/SensorBus.h **** 
  84:Generated_Source\PSoC6/SensorBus.h **** __STATIC_INLINE void     SensorBus_SlaveConfigReadBuf(uint8_t *buffer, uint32_t size);
  85:Generated_Source\PSoC6/SensorBus.h **** __STATIC_INLINE void     SensorBus_SlaveAbortRead(void);
  86:Generated_Source\PSoC6/SensorBus.h **** __STATIC_INLINE uint32_t SensorBus_SlaveGetReadTransferCount(void);
  87:Generated_Source\PSoC6/SensorBus.h **** __STATIC_INLINE uint32_t SensorBus_SlaveClearReadStatus(void);
  88:Generated_Source\PSoC6/SensorBus.h **** 
  89:Generated_Source\PSoC6/SensorBus.h **** __STATIC_INLINE void     SensorBus_SlaveConfigWriteBuf(uint8_t *buffer, uint32_t size);
  90:Generated_Source\PSoC6/SensorBus.h **** __STATIC_INLINE void     SensorBus_SlaveAbortWrite(void);
  91:Generated_Source\PSoC6/SensorBus.h **** __STATIC_INLINE uint32_t SensorBus_SlaveGetWriteTransferCount(void);
  92:Generated_Source\PSoC6/SensorBus.h **** __STATIC_INLINE uint32_t SensorBus_SlaveClearWriteStatus(void);
  93:Generated_Source\PSoC6/SensorBus.h **** #endif /* (SensorBus_ENABLE_SLAVE) */
  94:Generated_Source\PSoC6/SensorBus.h **** 
  95:Generated_Source\PSoC6/SensorBus.h **** /* Master interrupt processing functions. */
  96:Generated_Source\PSoC6/SensorBus.h **** #if (SensorBus_ENABLE_MASTER)
  97:Generated_Source\PSoC6/SensorBus.h **** __STATIC_INLINE uint32_t SensorBus_MasterGetStatus(void);
  98:Generated_Source\PSoC6/SensorBus.h **** 
  99:Generated_Source\PSoC6/SensorBus.h **** __STATIC_INLINE cy_en_scb_i2c_status_t SensorBus_MasterRead(cy_stc_scb_i2c_master_xfer_config_t *xf
 100:Generated_Source\PSoC6/SensorBus.h **** __STATIC_INLINE void SensorBus_MasterAbortRead(void);
 101:Generated_Source\PSoC6/SensorBus.h **** __STATIC_INLINE cy_en_scb_i2c_status_t SensorBus_MasterWrite(cy_stc_scb_i2c_master_xfer_config_t *x
 102:Generated_Source\PSoC6/SensorBus.h **** __STATIC_INLINE void SensorBus_MasterAbortWrite(void);
 103:Generated_Source\PSoC6/SensorBus.h **** __STATIC_INLINE uint32_t SensorBus_MasterGetTransferCount(void);
 104:Generated_Source\PSoC6/SensorBus.h **** 
ARM GAS  C:\Users\salaz\AppData\Local\Temp\ccKm0KhK.s 			page 4


 105:Generated_Source\PSoC6/SensorBus.h **** /* Master manual processing functions. */
 106:Generated_Source\PSoC6/SensorBus.h **** __STATIC_INLINE cy_en_scb_i2c_status_t SensorBus_MasterSendStart(uint32_t address, cy_en_scb_i2c_di
 107:Generated_Source\PSoC6/SensorBus.h **** __STATIC_INLINE cy_en_scb_i2c_status_t SensorBus_MasterSendReStart(uint32_t address, cy_en_scb_i2c_
 108:Generated_Source\PSoC6/SensorBus.h **** __STATIC_INLINE cy_en_scb_i2c_status_t SensorBus_MasterSendStop(uint32_t timeoutMs);
 109:Generated_Source\PSoC6/SensorBus.h **** __STATIC_INLINE cy_en_scb_i2c_status_t SensorBus_MasterReadByte(cy_en_scb_i2c_command_t ackNack, ui
 110:Generated_Source\PSoC6/SensorBus.h **** __STATIC_INLINE cy_en_scb_i2c_status_t SensorBus_MasterWriteByte(uint8_t byte, uint32_t timeoutMs);
 111:Generated_Source\PSoC6/SensorBus.h **** #endif /* (SensorBus_ENABLE_MASTER) */
 112:Generated_Source\PSoC6/SensorBus.h **** 
 113:Generated_Source\PSoC6/SensorBus.h **** /* Interrupt handler. */
 114:Generated_Source\PSoC6/SensorBus.h **** __STATIC_INLINE void SensorBus_Interrupt(void);
 115:Generated_Source\PSoC6/SensorBus.h **** /** @} group_general */
 116:Generated_Source\PSoC6/SensorBus.h **** 
 117:Generated_Source\PSoC6/SensorBus.h **** 
 118:Generated_Source\PSoC6/SensorBus.h **** /***************************************
 119:Generated_Source\PSoC6/SensorBus.h **** *    Variables with External Linkage
 120:Generated_Source\PSoC6/SensorBus.h **** ***************************************/
 121:Generated_Source\PSoC6/SensorBus.h **** /**
 122:Generated_Source\PSoC6/SensorBus.h **** * \addtogroup group_globals
 123:Generated_Source\PSoC6/SensorBus.h **** * @{
 124:Generated_Source\PSoC6/SensorBus.h **** */
 125:Generated_Source\PSoC6/SensorBus.h **** extern uint8_t SensorBus_initVar;
 126:Generated_Source\PSoC6/SensorBus.h **** extern cy_stc_scb_i2c_config_t const SensorBus_config;
 127:Generated_Source\PSoC6/SensorBus.h **** extern cy_stc_scb_i2c_context_t SensorBus_context;
 128:Generated_Source\PSoC6/SensorBus.h **** /** @} group_globals */
 129:Generated_Source\PSoC6/SensorBus.h **** 
 130:Generated_Source\PSoC6/SensorBus.h **** 
 131:Generated_Source\PSoC6/SensorBus.h **** /***************************************
 132:Generated_Source\PSoC6/SensorBus.h **** *         Preprocessor Macros
 133:Generated_Source\PSoC6/SensorBus.h **** ***************************************/
 134:Generated_Source\PSoC6/SensorBus.h **** /**
 135:Generated_Source\PSoC6/SensorBus.h **** * \addtogroup group_macros
 136:Generated_Source\PSoC6/SensorBus.h **** * @{
 137:Generated_Source\PSoC6/SensorBus.h **** */
 138:Generated_Source\PSoC6/SensorBus.h **** /** The pointer to the base address of the SCB instance */
 139:Generated_Source\PSoC6/SensorBus.h **** #define SensorBus_HW     ((CySCB_Type *) SensorBus_SCB__HW)
 140:Generated_Source\PSoC6/SensorBus.h **** 
 141:Generated_Source\PSoC6/SensorBus.h **** /** The desired data rate in Hz */
 142:Generated_Source\PSoC6/SensorBus.h **** #define SensorBus_DATA_RATE_HZ      (400000U)
 143:Generated_Source\PSoC6/SensorBus.h **** 
 144:Generated_Source\PSoC6/SensorBus.h **** /** The frequency of the clock used by the Component in Hz */
 145:Generated_Source\PSoC6/SensorBus.h **** #define SensorBus_CLK_FREQ_HZ       (8333333U)
 146:Generated_Source\PSoC6/SensorBus.h **** 
 147:Generated_Source\PSoC6/SensorBus.h **** /** The number of Component clocks used by the master to generate the SCL
 148:Generated_Source\PSoC6/SensorBus.h **** * low phase. This number is calculated by GUI based on the selected data rate.
 149:Generated_Source\PSoC6/SensorBus.h **** */
 150:Generated_Source\PSoC6/SensorBus.h **** #define SensorBus_LOW_PHASE_DUTY_CYCLE   (14U)
 151:Generated_Source\PSoC6/SensorBus.h **** 
 152:Generated_Source\PSoC6/SensorBus.h **** /** The number of Component clocks used by the master to generate the SCL
 153:Generated_Source\PSoC6/SensorBus.h **** * high phase. This number is calculated by GUI based on the selected data rate.
 154:Generated_Source\PSoC6/SensorBus.h **** */
 155:Generated_Source\PSoC6/SensorBus.h **** #define SensorBus_HIGH_PHASE_DUTY_CYCLE  (8U)
 156:Generated_Source\PSoC6/SensorBus.h **** /** @} group_macros */
 157:Generated_Source\PSoC6/SensorBus.h **** 
 158:Generated_Source\PSoC6/SensorBus.h **** 
 159:Generated_Source\PSoC6/SensorBus.h **** /***************************************
 160:Generated_Source\PSoC6/SensorBus.h **** *    In-line Function Implementation
 161:Generated_Source\PSoC6/SensorBus.h **** ***************************************/
ARM GAS  C:\Users\salaz\AppData\Local\Temp\ccKm0KhK.s 			page 5


 162:Generated_Source\PSoC6/SensorBus.h **** 
 163:Generated_Source\PSoC6/SensorBus.h **** /*******************************************************************************
 164:Generated_Source\PSoC6/SensorBus.h **** * Function Name: SensorBus_Init
 165:Generated_Source\PSoC6/SensorBus.h **** ****************************************************************************//**
 166:Generated_Source\PSoC6/SensorBus.h **** *
 167:Generated_Source\PSoC6/SensorBus.h **** * Invokes the Cy_SCB_I2C_Init() PDL driver function.
 168:Generated_Source\PSoC6/SensorBus.h **** *
 169:Generated_Source\PSoC6/SensorBus.h **** *******************************************************************************/
 170:Generated_Source\PSoC6/SensorBus.h **** __STATIC_INLINE cy_en_scb_i2c_status_t SensorBus_Init(cy_stc_scb_i2c_config_t const *config)
 171:Generated_Source\PSoC6/SensorBus.h **** {
 172:Generated_Source\PSoC6/SensorBus.h ****     return Cy_SCB_I2C_Init(SensorBus_HW, config, &SensorBus_context);
 173:Generated_Source\PSoC6/SensorBus.h **** }
 174:Generated_Source\PSoC6/SensorBus.h **** 
 175:Generated_Source\PSoC6/SensorBus.h **** 
 176:Generated_Source\PSoC6/SensorBus.h **** /*******************************************************************************
 177:Generated_Source\PSoC6/SensorBus.h **** *  Function Name: SensorBus_DeInit
 178:Generated_Source\PSoC6/SensorBus.h **** ****************************************************************************//**
 179:Generated_Source\PSoC6/SensorBus.h **** *
 180:Generated_Source\PSoC6/SensorBus.h **** * Invokes the Cy_SCB_I2C_DeInit() PDL driver function.
 181:Generated_Source\PSoC6/SensorBus.h **** *
 182:Generated_Source\PSoC6/SensorBus.h **** *******************************************************************************/
 183:Generated_Source\PSoC6/SensorBus.h **** __STATIC_INLINE void SensorBus_DeInit(void)
 184:Generated_Source\PSoC6/SensorBus.h **** {
 185:Generated_Source\PSoC6/SensorBus.h ****     Cy_SCB_I2C_DeInit(SensorBus_HW);
 186:Generated_Source\PSoC6/SensorBus.h **** }
 187:Generated_Source\PSoC6/SensorBus.h **** 
 188:Generated_Source\PSoC6/SensorBus.h **** 
 189:Generated_Source\PSoC6/SensorBus.h **** /*******************************************************************************
 190:Generated_Source\PSoC6/SensorBus.h **** * Function Name: SensorBus_Enable
 191:Generated_Source\PSoC6/SensorBus.h **** ****************************************************************************//**
 192:Generated_Source\PSoC6/SensorBus.h **** *
 193:Generated_Source\PSoC6/SensorBus.h **** * Invokes the Cy_SCB_I2C_Enable() PDL driver function.
 194:Generated_Source\PSoC6/SensorBus.h **** *
 195:Generated_Source\PSoC6/SensorBus.h **** *******************************************************************************/
 196:Generated_Source\PSoC6/SensorBus.h **** __STATIC_INLINE void SensorBus_Enable(void)
 197:Generated_Source\PSoC6/SensorBus.h **** {
 198:Generated_Source\PSoC6/SensorBus.h ****     Cy_SCB_I2C_Enable(SensorBus_HW);
 199:Generated_Source\PSoC6/SensorBus.h **** }
 200:Generated_Source\PSoC6/SensorBus.h **** 
 201:Generated_Source\PSoC6/SensorBus.h **** 
 202:Generated_Source\PSoC6/SensorBus.h **** /*******************************************************************************
 203:Generated_Source\PSoC6/SensorBus.h **** * Function Name: SensorBus_Disable
 204:Generated_Source\PSoC6/SensorBus.h **** ****************************************************************************//**
 205:Generated_Source\PSoC6/SensorBus.h **** *
 206:Generated_Source\PSoC6/SensorBus.h **** * Invokes the Cy_SCB_I2C_Disable() PDL driver function.
 207:Generated_Source\PSoC6/SensorBus.h **** *
 208:Generated_Source\PSoC6/SensorBus.h **** *******************************************************************************/
 209:Generated_Source\PSoC6/SensorBus.h **** __STATIC_INLINE void SensorBus_Disable(void)
 210:Generated_Source\PSoC6/SensorBus.h **** {
 211:Generated_Source\PSoC6/SensorBus.h ****     Cy_SCB_I2C_Disable(SensorBus_HW, &SensorBus_context);
 212:Generated_Source\PSoC6/SensorBus.h **** }
 213:Generated_Source\PSoC6/SensorBus.h **** 
 214:Generated_Source\PSoC6/SensorBus.h **** 
 215:Generated_Source\PSoC6/SensorBus.h **** /*******************************************************************************
 216:Generated_Source\PSoC6/SensorBus.h **** * Function Name: SensorBus_SetDataRate
 217:Generated_Source\PSoC6/SensorBus.h **** ****************************************************************************//**
 218:Generated_Source\PSoC6/SensorBus.h **** *
ARM GAS  C:\Users\salaz\AppData\Local\Temp\ccKm0KhK.s 			page 6


 219:Generated_Source\PSoC6/SensorBus.h **** * Invokes the Cy_SCB_I2C_SetDataRate() PDL driver function.
 220:Generated_Source\PSoC6/SensorBus.h **** *
 221:Generated_Source\PSoC6/SensorBus.h **** *******************************************************************************/
 222:Generated_Source\PSoC6/SensorBus.h **** __STATIC_INLINE uint32_t SensorBus_SetDataRate(uint32_t dataRateHz, uint32_t scbClockHz)
 223:Generated_Source\PSoC6/SensorBus.h **** {
 224:Generated_Source\PSoC6/SensorBus.h ****     return Cy_SCB_I2C_SetDataRate(SensorBus_HW, dataRateHz, scbClockHz);
 225:Generated_Source\PSoC6/SensorBus.h **** }
 226:Generated_Source\PSoC6/SensorBus.h **** 
 227:Generated_Source\PSoC6/SensorBus.h **** 
 228:Generated_Source\PSoC6/SensorBus.h **** /*******************************************************************************
 229:Generated_Source\PSoC6/SensorBus.h **** * Function Name: SensorBus_GetDataRate
 230:Generated_Source\PSoC6/SensorBus.h **** ****************************************************************************//**
 231:Generated_Source\PSoC6/SensorBus.h **** *
 232:Generated_Source\PSoC6/SensorBus.h **** * Invokes the Cy_SCB_I2C_GetDataRate() PDL driver function.
 233:Generated_Source\PSoC6/SensorBus.h **** *
 234:Generated_Source\PSoC6/SensorBus.h **** *******************************************************************************/
 235:Generated_Source\PSoC6/SensorBus.h **** __STATIC_INLINE uint32_t SensorBus_GetDataRate(uint32_t scbClockHz)
 236:Generated_Source\PSoC6/SensorBus.h **** {
 237:Generated_Source\PSoC6/SensorBus.h ****     return Cy_SCB_I2C_GetDataRate(SensorBus_HW, scbClockHz);
 238:Generated_Source\PSoC6/SensorBus.h **** }
 239:Generated_Source\PSoC6/SensorBus.h **** 
 240:Generated_Source\PSoC6/SensorBus.h **** 
 241:Generated_Source\PSoC6/SensorBus.h **** /*******************************************************************************
 242:Generated_Source\PSoC6/SensorBus.h **** * Function Name: SensorBus_RegisterEventCallback
 243:Generated_Source\PSoC6/SensorBus.h **** ****************************************************************************//**
 244:Generated_Source\PSoC6/SensorBus.h **** *
 245:Generated_Source\PSoC6/SensorBus.h **** * Invokes the Cy_SCB_I2C_RegisterEventCallback() PDL driver function.
 246:Generated_Source\PSoC6/SensorBus.h **** *
 247:Generated_Source\PSoC6/SensorBus.h **** *******************************************************************************/
 248:Generated_Source\PSoC6/SensorBus.h **** __STATIC_INLINE void SensorBus_RegisterEventCallback(cy_cb_scb_i2c_handle_events_t callback)
 249:Generated_Source\PSoC6/SensorBus.h **** {
 250:Generated_Source\PSoC6/SensorBus.h ****     Cy_SCB_I2C_RegisterEventCallback(SensorBus_HW, callback, &SensorBus_context);
 251:Generated_Source\PSoC6/SensorBus.h **** }
 252:Generated_Source\PSoC6/SensorBus.h **** 
 253:Generated_Source\PSoC6/SensorBus.h **** 
 254:Generated_Source\PSoC6/SensorBus.h **** #if (SensorBus_ENABLE_SLAVE)
 255:Generated_Source\PSoC6/SensorBus.h **** /*******************************************************************************
 256:Generated_Source\PSoC6/SensorBus.h **** * Function Name: SensorBus_RegisterAddrCallback
 257:Generated_Source\PSoC6/SensorBus.h **** ****************************************************************************//**
 258:Generated_Source\PSoC6/SensorBus.h **** *
 259:Generated_Source\PSoC6/SensorBus.h **** * Invokes the Cy_SCB_I2C_RegisterAddrCallback() PDL driver function.
 260:Generated_Source\PSoC6/SensorBus.h **** *
 261:Generated_Source\PSoC6/SensorBus.h **** *******************************************************************************/
 262:Generated_Source\PSoC6/SensorBus.h **** __STATIC_INLINE void SensorBus_RegisterAddrCallback(cy_cb_scb_i2c_handle_addr_t callback)
 263:Generated_Source\PSoC6/SensorBus.h **** {
 264:Generated_Source\PSoC6/SensorBus.h ****     Cy_SCB_I2C_RegisterAddrCallback(SensorBus_HW, callback, &SensorBus_context);
 265:Generated_Source\PSoC6/SensorBus.h **** }
 266:Generated_Source\PSoC6/SensorBus.h **** #endif /* (SensorBus_ENABLE_SLAVE) */
 267:Generated_Source\PSoC6/SensorBus.h **** 
 268:Generated_Source\PSoC6/SensorBus.h **** 
 269:Generated_Source\PSoC6/SensorBus.h **** /*******************************************************************************
 270:Generated_Source\PSoC6/SensorBus.h **** * Function Name: SensorBus_IsBusBusy
 271:Generated_Source\PSoC6/SensorBus.h **** ****************************************************************************//**
 272:Generated_Source\PSoC6/SensorBus.h **** *
 273:Generated_Source\PSoC6/SensorBus.h **** * Invokes the Cy_SCB_I2C_IsBusBusy() PDL driver function.
 274:Generated_Source\PSoC6/SensorBus.h **** *
 275:Generated_Source\PSoC6/SensorBus.h **** *******************************************************************************/
ARM GAS  C:\Users\salaz\AppData\Local\Temp\ccKm0KhK.s 			page 7


 276:Generated_Source\PSoC6/SensorBus.h **** __STATIC_INLINE bool SensorBus_IsBusBusy(void)
 277:Generated_Source\PSoC6/SensorBus.h **** {
 278:Generated_Source\PSoC6/SensorBus.h ****     return Cy_SCB_I2C_IsBusBusy(SensorBus_HW);
 279:Generated_Source\PSoC6/SensorBus.h **** }
 280:Generated_Source\PSoC6/SensorBus.h **** 
 281:Generated_Source\PSoC6/SensorBus.h **** 
 282:Generated_Source\PSoC6/SensorBus.h **** #if (SensorBus_ENABLE_SLAVE)
 283:Generated_Source\PSoC6/SensorBus.h **** /*******************************************************************************
 284:Generated_Source\PSoC6/SensorBus.h **** * Function Name: SensorBus_SlaveSetAddress
 285:Generated_Source\PSoC6/SensorBus.h **** ****************************************************************************//**
 286:Generated_Source\PSoC6/SensorBus.h **** *
 287:Generated_Source\PSoC6/SensorBus.h **** * Invokes the Cy_SCB_I2C_SlaveGetAddress() PDL driver function.
 288:Generated_Source\PSoC6/SensorBus.h **** *
 289:Generated_Source\PSoC6/SensorBus.h **** *******************************************************************************/
 290:Generated_Source\PSoC6/SensorBus.h **** __STATIC_INLINE void SensorBus_SlaveSetAddress(uint8_t addr)
 291:Generated_Source\PSoC6/SensorBus.h **** {
 292:Generated_Source\PSoC6/SensorBus.h ****     Cy_SCB_I2C_SlaveSetAddress(SensorBus_HW, addr);
 293:Generated_Source\PSoC6/SensorBus.h **** }
 294:Generated_Source\PSoC6/SensorBus.h **** 
 295:Generated_Source\PSoC6/SensorBus.h **** 
 296:Generated_Source\PSoC6/SensorBus.h **** /*******************************************************************************
 297:Generated_Source\PSoC6/SensorBus.h **** * Function Name: SensorBus_SlaveGetAddress
 298:Generated_Source\PSoC6/SensorBus.h **** ****************************************************************************//**
 299:Generated_Source\PSoC6/SensorBus.h **** *
 300:Generated_Source\PSoC6/SensorBus.h **** * Invokes the Cy_SCB_I2C_SlaveGetAddress() PDL driver function.
 301:Generated_Source\PSoC6/SensorBus.h **** *
 302:Generated_Source\PSoC6/SensorBus.h **** *******************************************************************************/
 303:Generated_Source\PSoC6/SensorBus.h **** __STATIC_INLINE uint32_t SensorBus_SlaveGetAddress(void)
 304:Generated_Source\PSoC6/SensorBus.h **** {
 305:Generated_Source\PSoC6/SensorBus.h ****     return Cy_SCB_I2C_SlaveGetAddress(SensorBus_HW);
 306:Generated_Source\PSoC6/SensorBus.h **** }
 307:Generated_Source\PSoC6/SensorBus.h **** 
 308:Generated_Source\PSoC6/SensorBus.h **** 
 309:Generated_Source\PSoC6/SensorBus.h **** /*******************************************************************************
 310:Generated_Source\PSoC6/SensorBus.h **** * Function Name: SensorBus_SlaveSetAddressMask
 311:Generated_Source\PSoC6/SensorBus.h **** ****************************************************************************//**
 312:Generated_Source\PSoC6/SensorBus.h **** *
 313:Generated_Source\PSoC6/SensorBus.h **** * Invokes the Cy_SCB_I2C_SlaveSetAddressMask() PDL driver function.
 314:Generated_Source\PSoC6/SensorBus.h **** *
 315:Generated_Source\PSoC6/SensorBus.h **** *******************************************************************************/
 316:Generated_Source\PSoC6/SensorBus.h **** __STATIC_INLINE void SensorBus_SlaveSetAddressMask(uint8_t addrMask)
 317:Generated_Source\PSoC6/SensorBus.h **** {
 318:Generated_Source\PSoC6/SensorBus.h ****     Cy_SCB_I2C_SlaveSetAddressMask(SensorBus_HW, addrMask);
 319:Generated_Source\PSoC6/SensorBus.h **** }
 320:Generated_Source\PSoC6/SensorBus.h **** 
 321:Generated_Source\PSoC6/SensorBus.h **** 
 322:Generated_Source\PSoC6/SensorBus.h **** /*******************************************************************************
 323:Generated_Source\PSoC6/SensorBus.h **** * Function Name: SensorBus_SlaveGetAddressMask
 324:Generated_Source\PSoC6/SensorBus.h **** ****************************************************************************//**
 325:Generated_Source\PSoC6/SensorBus.h **** *
 326:Generated_Source\PSoC6/SensorBus.h **** * Invokes the Cy_SCB_I2C_SlaveGetAddressMask() PDL driver function.
 327:Generated_Source\PSoC6/SensorBus.h **** *
 328:Generated_Source\PSoC6/SensorBus.h **** *******************************************************************************/
 329:Generated_Source\PSoC6/SensorBus.h **** __STATIC_INLINE uint32_t SensorBus_SlaveGetAddressMask(void)
 330:Generated_Source\PSoC6/SensorBus.h **** {
 331:Generated_Source\PSoC6/SensorBus.h ****     return Cy_SCB_I2C_SlaveGetAddressMask(SensorBus_HW);
 332:Generated_Source\PSoC6/SensorBus.h **** }
ARM GAS  C:\Users\salaz\AppData\Local\Temp\ccKm0KhK.s 			page 8


 333:Generated_Source\PSoC6/SensorBus.h **** #endif /* (SensorBus_ENABLE_SLAVE) */
 334:Generated_Source\PSoC6/SensorBus.h **** 
 335:Generated_Source\PSoC6/SensorBus.h **** #if (SensorBus_ENABLE_MASTER)
 336:Generated_Source\PSoC6/SensorBus.h **** /*******************************************************************************
 337:Generated_Source\PSoC6/SensorBus.h **** * Function Name: SensorBus_MasterSetLowPhaseDutyCycle
 338:Generated_Source\PSoC6/SensorBus.h **** ****************************************************************************//**
 339:Generated_Source\PSoC6/SensorBus.h **** *
 340:Generated_Source\PSoC6/SensorBus.h **** * Invokes the Cy_SCB_I2C_MasterSetLowPhaseDutyCycle() PDL driver function.
 341:Generated_Source\PSoC6/SensorBus.h **** *
 342:Generated_Source\PSoC6/SensorBus.h **** *******************************************************************************/
 343:Generated_Source\PSoC6/SensorBus.h **** __STATIC_INLINE void SensorBus_MasterSetLowPhaseDutyCycle(uint32_t clockCycles)
 344:Generated_Source\PSoC6/SensorBus.h **** {
 345:Generated_Source\PSoC6/SensorBus.h ****     Cy_SCB_I2C_MasterSetLowPhaseDutyCycle(SensorBus_HW, clockCycles);
 346:Generated_Source\PSoC6/SensorBus.h **** }
 347:Generated_Source\PSoC6/SensorBus.h **** 
 348:Generated_Source\PSoC6/SensorBus.h **** 
 349:Generated_Source\PSoC6/SensorBus.h **** /*******************************************************************************
 350:Generated_Source\PSoC6/SensorBus.h **** * Function Name: SensorBus_MasterSetHighPhaseDutyCycle
 351:Generated_Source\PSoC6/SensorBus.h **** ****************************************************************************//**
 352:Generated_Source\PSoC6/SensorBus.h **** *
 353:Generated_Source\PSoC6/SensorBus.h **** * Invokes the Cy_SCB_I2C_MasterSetHighPhaseDutyCycle() PDL driver function.
 354:Generated_Source\PSoC6/SensorBus.h **** *
 355:Generated_Source\PSoC6/SensorBus.h **** *******************************************************************************/
 356:Generated_Source\PSoC6/SensorBus.h **** __STATIC_INLINE void SensorBus_MasterSetHighPhaseDutyCycle(uint32_t clockCycles)
 357:Generated_Source\PSoC6/SensorBus.h **** {
 358:Generated_Source\PSoC6/SensorBus.h ****     Cy_SCB_I2C_MasterSetHighPhaseDutyCycle(SensorBus_HW, clockCycles);
 359:Generated_Source\PSoC6/SensorBus.h **** }
 360:Generated_Source\PSoC6/SensorBus.h **** #endif /* (SensorBus_ENABLE_MASTER) */
 361:Generated_Source\PSoC6/SensorBus.h **** 
 362:Generated_Source\PSoC6/SensorBus.h **** 
 363:Generated_Source\PSoC6/SensorBus.h **** #if (SensorBus_ENABLE_SLAVE)
 364:Generated_Source\PSoC6/SensorBus.h **** /*******************************************************************************
 365:Generated_Source\PSoC6/SensorBus.h **** * Function Name: SensorBus_SlaveGetStatus
 366:Generated_Source\PSoC6/SensorBus.h **** ****************************************************************************//**
 367:Generated_Source\PSoC6/SensorBus.h **** *
 368:Generated_Source\PSoC6/SensorBus.h **** * Invokes the Cy_SCB_I2C_SlaveGetStatus() PDL driver function.
 369:Generated_Source\PSoC6/SensorBus.h **** *
 370:Generated_Source\PSoC6/SensorBus.h **** *******************************************************************************/
 371:Generated_Source\PSoC6/SensorBus.h **** __STATIC_INLINE uint32_t SensorBus_SlaveGetStatus(void)
 372:Generated_Source\PSoC6/SensorBus.h **** {
 373:Generated_Source\PSoC6/SensorBus.h ****     return Cy_SCB_I2C_SlaveGetStatus(SensorBus_HW, &SensorBus_context);
 374:Generated_Source\PSoC6/SensorBus.h **** }
 375:Generated_Source\PSoC6/SensorBus.h **** 
 376:Generated_Source\PSoC6/SensorBus.h **** 
 377:Generated_Source\PSoC6/SensorBus.h **** /*******************************************************************************
 378:Generated_Source\PSoC6/SensorBus.h **** * Function Name: SensorBus_SlaveConfigReadBuf
 379:Generated_Source\PSoC6/SensorBus.h **** ****************************************************************************//**
 380:Generated_Source\PSoC6/SensorBus.h **** *
 381:Generated_Source\PSoC6/SensorBus.h **** * Invokes the Cy_SCB_I2C_SlaveConfigReadBuf() PDL driver function.
 382:Generated_Source\PSoC6/SensorBus.h **** *
 383:Generated_Source\PSoC6/SensorBus.h **** *******************************************************************************/
 384:Generated_Source\PSoC6/SensorBus.h **** __STATIC_INLINE void SensorBus_SlaveConfigReadBuf(uint8_t *buffer, uint32_t size)
 385:Generated_Source\PSoC6/SensorBus.h **** {
 386:Generated_Source\PSoC6/SensorBus.h ****     Cy_SCB_I2C_SlaveConfigReadBuf(SensorBus_HW, buffer, size, &SensorBus_context);
 387:Generated_Source\PSoC6/SensorBus.h **** }
 388:Generated_Source\PSoC6/SensorBus.h **** 
 389:Generated_Source\PSoC6/SensorBus.h **** 
ARM GAS  C:\Users\salaz\AppData\Local\Temp\ccKm0KhK.s 			page 9


 390:Generated_Source\PSoC6/SensorBus.h **** /*******************************************************************************
 391:Generated_Source\PSoC6/SensorBus.h **** * Function Name: SensorBus_SlaveAbortRead
 392:Generated_Source\PSoC6/SensorBus.h **** ****************************************************************************//**
 393:Generated_Source\PSoC6/SensorBus.h **** *
 394:Generated_Source\PSoC6/SensorBus.h **** * Invokes the Cy_SCB_I2C_SlaveAbortRead() PDL driver function.
 395:Generated_Source\PSoC6/SensorBus.h **** *
 396:Generated_Source\PSoC6/SensorBus.h **** *******************************************************************************/
 397:Generated_Source\PSoC6/SensorBus.h **** __STATIC_INLINE void SensorBus_SlaveAbortRead(void)
 398:Generated_Source\PSoC6/SensorBus.h **** {
 399:Generated_Source\PSoC6/SensorBus.h ****     Cy_SCB_I2C_SlaveAbortRead(SensorBus_HW, &SensorBus_context);
 400:Generated_Source\PSoC6/SensorBus.h **** }
 401:Generated_Source\PSoC6/SensorBus.h **** 
 402:Generated_Source\PSoC6/SensorBus.h **** 
 403:Generated_Source\PSoC6/SensorBus.h **** /*******************************************************************************
 404:Generated_Source\PSoC6/SensorBus.h **** * Function Name: SensorBus_SlaveGetReadTransferCount
 405:Generated_Source\PSoC6/SensorBus.h **** ****************************************************************************//**
 406:Generated_Source\PSoC6/SensorBus.h **** *
 407:Generated_Source\PSoC6/SensorBus.h **** * Invokes the Cy_SCB_I2C_SlaveGetReadTransferCount() PDL driver function.
 408:Generated_Source\PSoC6/SensorBus.h **** *
 409:Generated_Source\PSoC6/SensorBus.h **** *******************************************************************************/
 410:Generated_Source\PSoC6/SensorBus.h **** __STATIC_INLINE uint32_t SensorBus_SlaveGetReadTransferCount(void)
 411:Generated_Source\PSoC6/SensorBus.h **** {
 412:Generated_Source\PSoC6/SensorBus.h ****     return Cy_SCB_I2C_SlaveGetReadTransferCount(SensorBus_HW, &SensorBus_context);
 413:Generated_Source\PSoC6/SensorBus.h **** }
 414:Generated_Source\PSoC6/SensorBus.h **** 
 415:Generated_Source\PSoC6/SensorBus.h **** 
 416:Generated_Source\PSoC6/SensorBus.h **** /*******************************************************************************
 417:Generated_Source\PSoC6/SensorBus.h **** * Function Name: SensorBus_SlaveClearReadStatus
 418:Generated_Source\PSoC6/SensorBus.h **** ****************************************************************************//**
 419:Generated_Source\PSoC6/SensorBus.h **** *
 420:Generated_Source\PSoC6/SensorBus.h **** * Invokes the Cy_SCB_I2C_SlaveClearReadStatus() PDL driver function.
 421:Generated_Source\PSoC6/SensorBus.h **** *
 422:Generated_Source\PSoC6/SensorBus.h **** *******************************************************************************/
 423:Generated_Source\PSoC6/SensorBus.h **** __STATIC_INLINE uint32_t SensorBus_SlaveClearReadStatus(void)
 424:Generated_Source\PSoC6/SensorBus.h **** {
 425:Generated_Source\PSoC6/SensorBus.h ****     return Cy_SCB_I2C_SlaveClearReadStatus(SensorBus_HW, &SensorBus_context);
 426:Generated_Source\PSoC6/SensorBus.h **** }
 427:Generated_Source\PSoC6/SensorBus.h **** 
 428:Generated_Source\PSoC6/SensorBus.h **** 
 429:Generated_Source\PSoC6/SensorBus.h **** /*******************************************************************************
 430:Generated_Source\PSoC6/SensorBus.h **** * Function Name: SensorBus_SlaveConfigWriteBuf
 431:Generated_Source\PSoC6/SensorBus.h **** ****************************************************************************//**
 432:Generated_Source\PSoC6/SensorBus.h **** *
 433:Generated_Source\PSoC6/SensorBus.h **** * Invokes the Cy_SCB_I2C_SlaveConfigWriteBuf() PDL driver function.
 434:Generated_Source\PSoC6/SensorBus.h **** *
 435:Generated_Source\PSoC6/SensorBus.h **** *******************************************************************************/
 436:Generated_Source\PSoC6/SensorBus.h **** __STATIC_INLINE void SensorBus_SlaveConfigWriteBuf(uint8_t *buffer, uint32_t size)
 437:Generated_Source\PSoC6/SensorBus.h **** {
 438:Generated_Source\PSoC6/SensorBus.h ****     Cy_SCB_I2C_SlaveConfigWriteBuf(SensorBus_HW, buffer, size, &SensorBus_context);
 439:Generated_Source\PSoC6/SensorBus.h **** }
 440:Generated_Source\PSoC6/SensorBus.h **** 
 441:Generated_Source\PSoC6/SensorBus.h **** 
 442:Generated_Source\PSoC6/SensorBus.h **** /*******************************************************************************
 443:Generated_Source\PSoC6/SensorBus.h **** * Function Name: SensorBus_SlaveAbortWrite
 444:Generated_Source\PSoC6/SensorBus.h **** ****************************************************************************//**
 445:Generated_Source\PSoC6/SensorBus.h **** *
 446:Generated_Source\PSoC6/SensorBus.h **** * Invokes the Cy_SCB_I2C_SlaveAbortWrite() PDL driver function.
ARM GAS  C:\Users\salaz\AppData\Local\Temp\ccKm0KhK.s 			page 10


 447:Generated_Source\PSoC6/SensorBus.h **** *
 448:Generated_Source\PSoC6/SensorBus.h **** *******************************************************************************/
 449:Generated_Source\PSoC6/SensorBus.h **** __STATIC_INLINE void SensorBus_SlaveAbortWrite(void)
 450:Generated_Source\PSoC6/SensorBus.h **** {
 451:Generated_Source\PSoC6/SensorBus.h ****     Cy_SCB_I2C_SlaveAbortWrite(SensorBus_HW, &SensorBus_context);
 452:Generated_Source\PSoC6/SensorBus.h **** }
 453:Generated_Source\PSoC6/SensorBus.h **** 
 454:Generated_Source\PSoC6/SensorBus.h **** 
 455:Generated_Source\PSoC6/SensorBus.h **** /*******************************************************************************
 456:Generated_Source\PSoC6/SensorBus.h **** * Function Name: SensorBus_SlaveGetWriteTransferCount
 457:Generated_Source\PSoC6/SensorBus.h **** ****************************************************************************//**
 458:Generated_Source\PSoC6/SensorBus.h **** *
 459:Generated_Source\PSoC6/SensorBus.h **** * Invokes the Cy_SCB_I2C_SlaveGetWriteTransferCount() PDL driver function.
 460:Generated_Source\PSoC6/SensorBus.h **** *
 461:Generated_Source\PSoC6/SensorBus.h **** *******************************************************************************/
 462:Generated_Source\PSoC6/SensorBus.h **** __STATIC_INLINE uint32_t SensorBus_SlaveGetWriteTransferCount(void)
 463:Generated_Source\PSoC6/SensorBus.h **** {
 464:Generated_Source\PSoC6/SensorBus.h ****     return Cy_SCB_I2C_SlaveGetWriteTransferCount(SensorBus_HW, &SensorBus_context);
 465:Generated_Source\PSoC6/SensorBus.h **** }
 466:Generated_Source\PSoC6/SensorBus.h **** 
 467:Generated_Source\PSoC6/SensorBus.h **** 
 468:Generated_Source\PSoC6/SensorBus.h **** /*******************************************************************************
 469:Generated_Source\PSoC6/SensorBus.h **** * Function Name: SensorBus_SlaveClearWriteStatus
 470:Generated_Source\PSoC6/SensorBus.h **** ****************************************************************************//**
 471:Generated_Source\PSoC6/SensorBus.h **** *
 472:Generated_Source\PSoC6/SensorBus.h **** * Invokes the Cy_SCB_I2C_SlaveClearWriteStatus() PDL driver function.
 473:Generated_Source\PSoC6/SensorBus.h **** *
 474:Generated_Source\PSoC6/SensorBus.h **** *******************************************************************************/
 475:Generated_Source\PSoC6/SensorBus.h **** __STATIC_INLINE uint32_t SensorBus_SlaveClearWriteStatus(void)
 476:Generated_Source\PSoC6/SensorBus.h **** {
 477:Generated_Source\PSoC6/SensorBus.h ****     return Cy_SCB_I2C_SlaveClearWriteStatus(SensorBus_HW, &SensorBus_context);
 478:Generated_Source\PSoC6/SensorBus.h **** }
 479:Generated_Source\PSoC6/SensorBus.h **** #endif /* (SensorBus_ENABLE_SLAVE) */
 480:Generated_Source\PSoC6/SensorBus.h **** 
 481:Generated_Source\PSoC6/SensorBus.h **** 
 482:Generated_Source\PSoC6/SensorBus.h **** #if (SensorBus_ENABLE_MASTER)
 483:Generated_Source\PSoC6/SensorBus.h **** /*******************************************************************************
 484:Generated_Source\PSoC6/SensorBus.h **** * Function Name: SensorBus_MasterGetStatus
 485:Generated_Source\PSoC6/SensorBus.h **** ****************************************************************************//**
 486:Generated_Source\PSoC6/SensorBus.h **** *
 487:Generated_Source\PSoC6/SensorBus.h **** * Invokes the Cy_SCB_I2C_MasterGetStatus() PDL driver function.
 488:Generated_Source\PSoC6/SensorBus.h **** *
 489:Generated_Source\PSoC6/SensorBus.h **** *******************************************************************************/
 490:Generated_Source\PSoC6/SensorBus.h **** __STATIC_INLINE uint32_t SensorBus_MasterGetStatus(void)
 491:Generated_Source\PSoC6/SensorBus.h **** {
 492:Generated_Source\PSoC6/SensorBus.h ****     return Cy_SCB_I2C_MasterGetStatus(SensorBus_HW, &SensorBus_context);
  38              		.loc 2 492 0
  39 0002 0549     		ldr	r1, .L2
  40 0004 0548     		ldr	r0, .L2+4
  41 0006 FFF7FEFF 		bl	Cy_SCB_I2C_MasterGetStatus
  42              	.LVL0:
  43              	.LBE25:
  44              	.LBE24:
  31:BusManager.c  ****     return (SensorBus_MasterGetStatus() & CY_SCB_I2C_MASTER_BUSY);
  45              		.loc 1 31 0
  46 000a 8023     		movs	r3, #128
  47 000c 5B02     		lsls	r3, r3, #9
ARM GAS  C:\Users\salaz\AppData\Local\Temp\ccKm0KhK.s 			page 11


  48 000e 1840     		ands	r0, r3
  49 0010 431E     		subs	r3, r0, #1
  50 0012 9841     		sbcs	r0, r0, r3
  51 0014 C0B2     		uxtb	r0, r0
  32:BusManager.c  **** }
  52              		.loc 1 32 0
  53              		@ sp needed
  54 0016 10BD     		pop	{r4, pc}
  55              	.L3:
  56              		.align	2
  57              	.L2:
  58 0018 00000000 		.word	SensorBus_context
  59 001c 00006440 		.word	1080295424
  60              		.cfi_endproc
  61              	.LFE798:
  62              		.size	SensorBusBusy, .-SensorBusBusy
  63              		.global	__aeabi_idivmod
  64              		.section	.text.LaunchPending,"ax",%progbits
  65              		.align	2
  66              		.global	LaunchPending
  67              		.code	16
  68              		.thumb_func
  69              		.type	LaunchPending, %function
  70              	LaunchPending:
  71              	.LFB799:
  33:BusManager.c  **** void LaunchPending()
  34:BusManager.c  **** {
  72              		.loc 1 34 0
  73              		.cfi_startproc
  74              		@ args = 0, pretend = 0, frame = 0
  75              		@ frame_needed = 0, uses_anonymous_args = 0
  76 0000 10B5     		push	{r4, lr}
  77              		.cfi_def_cfa_offset 8
  78              		.cfi_offset 4, -8
  79              		.cfi_offset 14, -4
  35:BusManager.c  ****     if(SensorBusBusy() || (size==0) ) return;
  80              		.loc 1 35 0
  81 0002 FFF7FEFF 		bl	SensorBusBusy
  82              	.LVL1:
  83 0006 0028     		cmp	r0, #0
  84 0008 39D1     		bne	.L4
  85              		.loc 1 35 0 is_stmt 0 discriminator 1
  86 000a 1D4B     		ldr	r3, .L10
  87 000c 1B78     		ldrb	r3, [r3]
  88 000e 002B     		cmp	r3, #0
  89 0010 35D0     		beq	.L4
  36:BusManager.c  ****     
  37:BusManager.c  ****     if(!local_bus_busy) {local_bus_busy = true; SensorBus_Enable();}
  90              		.loc 1 37 0 is_stmt 1
  91 0012 1B4B     		ldr	r3, .L10
  92 0014 5B78     		ldrb	r3, [r3, #1]
  93 0016 002B     		cmp	r3, #0
  94 0018 08D1     		bne	.L6
  95              		.loc 1 37 0 is_stmt 0 discriminator 1
  96 001a 0122     		movs	r2, #1
  97 001c 184B     		ldr	r3, .L10
  98 001e 5A70     		strb	r2, [r3, #1]
ARM GAS  C:\Users\salaz\AppData\Local\Temp\ccKm0KhK.s 			page 12


  99              	.LVL2:
 100              	.LBB26:
 101              	.LBB27:
 102              	.LBB28:
 103              		.file 3 "Generated_Source\\PSoC6\\pdl\\drivers/peripheral/scb/cy_scb_i2c.h"
   1:Generated_Source\PSoC6\pdl\drivers/peripheral/scb/cy_scb_i2c.h **** /***************************************************************************//**
   2:Generated_Source\PSoC6\pdl\drivers/peripheral/scb/cy_scb_i2c.h **** * \file cy_scb_i2c.h
   3:Generated_Source\PSoC6\pdl\drivers/peripheral/scb/cy_scb_i2c.h **** * \version 2.10
   4:Generated_Source\PSoC6\pdl\drivers/peripheral/scb/cy_scb_i2c.h **** *
   5:Generated_Source\PSoC6\pdl\drivers/peripheral/scb/cy_scb_i2c.h **** * Provides I2C API declarations of the SCB driver.
   6:Generated_Source\PSoC6\pdl\drivers/peripheral/scb/cy_scb_i2c.h **** *
   7:Generated_Source\PSoC6\pdl\drivers/peripheral/scb/cy_scb_i2c.h **** ********************************************************************************
   8:Generated_Source\PSoC6\pdl\drivers/peripheral/scb/cy_scb_i2c.h **** * \copyright
   9:Generated_Source\PSoC6\pdl\drivers/peripheral/scb/cy_scb_i2c.h **** * Copyright 2016-2018, Cypress Semiconductor Corporation.  All rights reserved.
  10:Generated_Source\PSoC6\pdl\drivers/peripheral/scb/cy_scb_i2c.h **** * You may use this file only in accordance with the license, terms, conditions,
  11:Generated_Source\PSoC6\pdl\drivers/peripheral/scb/cy_scb_i2c.h **** * disclaimers, and limitations in the end user license agreement accompanying
  12:Generated_Source\PSoC6\pdl\drivers/peripheral/scb/cy_scb_i2c.h **** * the software package with which this file was provided.
  13:Generated_Source\PSoC6\pdl\drivers/peripheral/scb/cy_scb_i2c.h **** *******************************************************************************/
  14:Generated_Source\PSoC6\pdl\drivers/peripheral/scb/cy_scb_i2c.h **** 
  15:Generated_Source\PSoC6\pdl\drivers/peripheral/scb/cy_scb_i2c.h **** /**
  16:Generated_Source\PSoC6\pdl\drivers/peripheral/scb/cy_scb_i2c.h **** * \addtogroup group_scb_i2c
  17:Generated_Source\PSoC6\pdl\drivers/peripheral/scb/cy_scb_i2c.h **** * \{
  18:Generated_Source\PSoC6\pdl\drivers/peripheral/scb/cy_scb_i2c.h **** * Driver API for I2C Bus Peripheral
  19:Generated_Source\PSoC6\pdl\drivers/peripheral/scb/cy_scb_i2c.h **** *
  20:Generated_Source\PSoC6\pdl\drivers/peripheral/scb/cy_scb_i2c.h **** * I2C - The Inter-Integrated Circuit (I2C) bus is an industry-standard.
  21:Generated_Source\PSoC6\pdl\drivers/peripheral/scb/cy_scb_i2c.h **** * The two-wire hardware interface was developed by Philips Semiconductors
  22:Generated_Source\PSoC6\pdl\drivers/peripheral/scb/cy_scb_i2c.h **** * (now NXP Semiconductors).
  23:Generated_Source\PSoC6\pdl\drivers/peripheral/scb/cy_scb_i2c.h **** *
  24:Generated_Source\PSoC6\pdl\drivers/peripheral/scb/cy_scb_i2c.h **** * The I2C peripheral driver provides an API to implement I2C slave, master,
  25:Generated_Source\PSoC6\pdl\drivers/peripheral/scb/cy_scb_i2c.h **** * or master-slave devices based on the SCB hardware block.
  26:Generated_Source\PSoC6\pdl\drivers/peripheral/scb/cy_scb_i2c.h **** * I2C devices based on SCB hardware are compatible with I2C
  27:Generated_Source\PSoC6\pdl\drivers/peripheral/scb/cy_scb_i2c.h **** * Standard-mode, Fast-mode, and Fast-mode Plus specifications as defined in
  28:Generated_Source\PSoC6\pdl\drivers/peripheral/scb/cy_scb_i2c.h **** * the I2C-bus specification.
  29:Generated_Source\PSoC6\pdl\drivers/peripheral/scb/cy_scb_i2c.h **** *
  30:Generated_Source\PSoC6\pdl\drivers/peripheral/scb/cy_scb_i2c.h **** * Features:
  31:Generated_Source\PSoC6\pdl\drivers/peripheral/scb/cy_scb_i2c.h **** * * An industry-standard I2C bus interface
  32:Generated_Source\PSoC6\pdl\drivers/peripheral/scb/cy_scb_i2c.h **** * * Supports slave, master, and master-slave operation
  33:Generated_Source\PSoC6\pdl\drivers/peripheral/scb/cy_scb_i2c.h **** * * Supports standard data rates of 100/400/1000 kbps
  34:Generated_Source\PSoC6\pdl\drivers/peripheral/scb/cy_scb_i2c.h **** * * Hardware Address Match, multiple addresses
  35:Generated_Source\PSoC6\pdl\drivers/peripheral/scb/cy_scb_i2c.h **** * * Wake From Deep Sleep on Address Match
  36:Generated_Source\PSoC6\pdl\drivers/peripheral/scb/cy_scb_i2c.h **** *
  37:Generated_Source\PSoC6\pdl\drivers/peripheral/scb/cy_scb_i2c.h **** * \section group_scb_i2c_configuration Configuration Considerations
  38:Generated_Source\PSoC6\pdl\drivers/peripheral/scb/cy_scb_i2c.h **** * The I2C driver configuration can be divided to number of sequential
  39:Generated_Source\PSoC6\pdl\drivers/peripheral/scb/cy_scb_i2c.h **** * steps listed below:
  40:Generated_Source\PSoC6\pdl\drivers/peripheral/scb/cy_scb_i2c.h **** * * \ref group_scb_i2c_config
  41:Generated_Source\PSoC6\pdl\drivers/peripheral/scb/cy_scb_i2c.h **** * * \ref group_scb_i2c_pins
  42:Generated_Source\PSoC6\pdl\drivers/peripheral/scb/cy_scb_i2c.h **** * * \ref group_scb_i2c_clock
  43:Generated_Source\PSoC6\pdl\drivers/peripheral/scb/cy_scb_i2c.h **** * * \ref group_scb_i2c_data_rate
  44:Generated_Source\PSoC6\pdl\drivers/peripheral/scb/cy_scb_i2c.h **** * * \ref group_scb_i2c_intr
  45:Generated_Source\PSoC6\pdl\drivers/peripheral/scb/cy_scb_i2c.h **** * * \ref group_scb_i2c_enable
  46:Generated_Source\PSoC6\pdl\drivers/peripheral/scb/cy_scb_i2c.h **** *
  47:Generated_Source\PSoC6\pdl\drivers/peripheral/scb/cy_scb_i2c.h **** * \note
  48:Generated_Source\PSoC6\pdl\drivers/peripheral/scb/cy_scb_i2c.h **** * I2C driver is built on top of the SCB hardware block. The SCB3 instance is
  49:Generated_Source\PSoC6\pdl\drivers/peripheral/scb/cy_scb_i2c.h **** * used as an example for all code snippets. Modify the code to match your
  50:Generated_Source\PSoC6\pdl\drivers/peripheral/scb/cy_scb_i2c.h **** * design.
  51:Generated_Source\PSoC6\pdl\drivers/peripheral/scb/cy_scb_i2c.h **** *
  52:Generated_Source\PSoC6\pdl\drivers/peripheral/scb/cy_scb_i2c.h **** * \subsection group_scb_i2c_config Configure I2C
ARM GAS  C:\Users\salaz\AppData\Local\Temp\ccKm0KhK.s 			page 13


  53:Generated_Source\PSoC6\pdl\drivers/peripheral/scb/cy_scb_i2c.h **** * To set up the I2C slave driver, provide the configuration parameters in the
  54:Generated_Source\PSoC6\pdl\drivers/peripheral/scb/cy_scb_i2c.h **** * \ref cy_stc_scb_i2c_config_t structure. Provide i2cMode to the select
  55:Generated_Source\PSoC6\pdl\drivers/peripheral/scb/cy_scb_i2c.h **** * operation mode slave, master or master-slave. For master modes, provide
  56:Generated_Source\PSoC6\pdl\drivers/peripheral/scb/cy_scb_i2c.h **** * useRxFifo and useTxFifo parameters. For slave mode, also provide the
  57:Generated_Source\PSoC6\pdl\drivers/peripheral/scb/cy_scb_i2c.h **** * slaveAddress and slaveAddressMask. The other parameters are optional for
  58:Generated_Source\PSoC6\pdl\drivers/peripheral/scb/cy_scb_i2c.h **** * operation. To initialize the driver, call \ref Cy_SCB_I2C_Init
  59:Generated_Source\PSoC6\pdl\drivers/peripheral/scb/cy_scb_i2c.h **** * function providing a pointer to the filled \ref cy_stc_scb_i2c_config_t
  60:Generated_Source\PSoC6\pdl\drivers/peripheral/scb/cy_scb_i2c.h **** * structure and allocated \ref cy_stc_scb_i2c_context_t.
  61:Generated_Source\PSoC6\pdl\drivers/peripheral/scb/cy_scb_i2c.h **** *
  62:Generated_Source\PSoC6\pdl\drivers/peripheral/scb/cy_scb_i2c.h **** * \snippet SCB_CompDatasheet_sut_01_revA.cydsn\i2c_snippets.c I2C_CFG
  63:Generated_Source\PSoC6\pdl\drivers/peripheral/scb/cy_scb_i2c.h **** *
  64:Generated_Source\PSoC6\pdl\drivers/peripheral/scb/cy_scb_i2c.h **** * \subsection group_scb_i2c_pins Assign and Configure Pins
  65:Generated_Source\PSoC6\pdl\drivers/peripheral/scb/cy_scb_i2c.h **** * Only dedicated SCB pins can be used for I2C operation. The HSIOM
  66:Generated_Source\PSoC6\pdl\drivers/peripheral/scb/cy_scb_i2c.h **** * register must be configured to connect block to the pins. Also the I2C pins
  67:Generated_Source\PSoC6\pdl\drivers/peripheral/scb/cy_scb_i2c.h **** * must be configured in Open-Drain, Drives Low mode (this pins configuration
  68:Generated_Source\PSoC6\pdl\drivers/peripheral/scb/cy_scb_i2c.h **** * implies usage of external pull-up resistors):
  69:Generated_Source\PSoC6\pdl\drivers/peripheral/scb/cy_scb_i2c.h **** *
  70:Generated_Source\PSoC6\pdl\drivers/peripheral/scb/cy_scb_i2c.h **** * \snippet SCB_CompDatasheet_sut_01_revA.cydsn\i2c_snippets.c I2C_CFG_PINS
  71:Generated_Source\PSoC6\pdl\drivers/peripheral/scb/cy_scb_i2c.h **** *
  72:Generated_Source\PSoC6\pdl\drivers/peripheral/scb/cy_scb_i2c.h **** * \note
  73:Generated_Source\PSoC6\pdl\drivers/peripheral/scb/cy_scb_i2c.h **** * The alternative pins configuration is Resistive Pull-ups which implies usage
  74:Generated_Source\PSoC6\pdl\drivers/peripheral/scb/cy_scb_i2c.h **** * internal pull-up resistors. This configuration is not recommended because
  75:Generated_Source\PSoC6\pdl\drivers/peripheral/scb/cy_scb_i2c.h **** * resistor value is fixed and cannot be used for all supported data rates.
  76:Generated_Source\PSoC6\pdl\drivers/peripheral/scb/cy_scb_i2c.h **** * Refer to the device datasheet parameter RPULLUP for resistor value specifications.
  77:Generated_Source\PSoC6\pdl\drivers/peripheral/scb/cy_scb_i2c.h **** *
  78:Generated_Source\PSoC6\pdl\drivers/peripheral/scb/cy_scb_i2c.h **** * \subsection group_scb_i2c_clock Assign Clock Divider
  79:Generated_Source\PSoC6\pdl\drivers/peripheral/scb/cy_scb_i2c.h **** * The clock source must be connected to the SCB block to oversample input and
  80:Generated_Source\PSoC6\pdl\drivers/peripheral/scb/cy_scb_i2c.h **** * output signals. You must use one of the 8-bit or 16-bit dividers <em><b>(the
  81:Generated_Source\PSoC6\pdl\drivers/peripheral/scb/cy_scb_i2c.h **** * source clock of this divider must be Clk_Peri)</b></em>. Use the
  82:Generated_Source\PSoC6\pdl\drivers/peripheral/scb/cy_scb_i2c.h **** * \ref group_sysclk driver API to do that.
  83:Generated_Source\PSoC6\pdl\drivers/peripheral/scb/cy_scb_i2c.h **** *
  84:Generated_Source\PSoC6\pdl\drivers/peripheral/scb/cy_scb_i2c.h **** * \snippet SCB_CompDatasheet_sut_01_revA.cydsn\i2c_snippets.c I2C_CFG_ASSIGN_CLOCK
  85:Generated_Source\PSoC6\pdl\drivers/peripheral/scb/cy_scb_i2c.h **** *
  86:Generated_Source\PSoC6\pdl\drivers/peripheral/scb/cy_scb_i2c.h **** * Set up I2C slave read and write buffer before enabling its
  87:Generated_Source\PSoC6\pdl\drivers/peripheral/scb/cy_scb_i2c.h **** * operation using \ref Cy_SCB_I2C_SlaveConfigReadBuf and \ref
  88:Generated_Source\PSoC6\pdl\drivers/peripheral/scb/cy_scb_i2c.h **** * Cy_SCB_I2C_SlaveConfigWriteBuf appropriately. Note that the master reads
  89:Generated_Source\PSoC6\pdl\drivers/peripheral/scb/cy_scb_i2c.h **** * data from the slave read buffer and writes data into the slave write buffer.
  90:Generated_Source\PSoC6\pdl\drivers/peripheral/scb/cy_scb_i2c.h **** *
  91:Generated_Source\PSoC6\pdl\drivers/peripheral/scb/cy_scb_i2c.h **** * \snippet SCB_CompDatasheet_sut_01_revA.cydsn\i2c_snippets.c I2C_CFG_BUFFER
  92:Generated_Source\PSoC6\pdl\drivers/peripheral/scb/cy_scb_i2c.h **** *
  93:Generated_Source\PSoC6\pdl\drivers/peripheral/scb/cy_scb_i2c.h **** * \subsection group_scb_i2c_data_rate Configure Data Rate
  94:Generated_Source\PSoC6\pdl\drivers/peripheral/scb/cy_scb_i2c.h **** * To get I2C slave operation with the desired data rate, the source clock must be
  95:Generated_Source\PSoC6\pdl\drivers/peripheral/scb/cy_scb_i2c.h **** * fast enough to provide sufficient oversampling. Therefore, the clock divider
  96:Generated_Source\PSoC6\pdl\drivers/peripheral/scb/cy_scb_i2c.h **** * must be configured to provide desired clock frequency. Use the
  97:Generated_Source\PSoC6\pdl\drivers/peripheral/scb/cy_scb_i2c.h **** * \ref group_sysclk driver API to do that.
  98:Generated_Source\PSoC6\pdl\drivers/peripheral/scb/cy_scb_i2c.h **** *
  99:Generated_Source\PSoC6\pdl\drivers/peripheral/scb/cy_scb_i2c.h **** * \snippet SCB_CompDatasheet_sut_01_revA.cydsn\i2c_snippets.c I2C_CFG_DATA_RATE_SLAVE
 100:Generated_Source\PSoC6\pdl\drivers/peripheral/scb/cy_scb_i2c.h **** *
 101:Generated_Source\PSoC6\pdl\drivers/peripheral/scb/cy_scb_i2c.h **** * To get I2C master operation with the desired data rate, the source clock
 102:Generated_Source\PSoC6\pdl\drivers/peripheral/scb/cy_scb_i2c.h **** * frequency and SCL low and high phase duration must be configured. Use the
 103:Generated_Source\PSoC6\pdl\drivers/peripheral/scb/cy_scb_i2c.h **** * \ref group_sysclk driver API to configure source clock frequency. Then call
 104:Generated_Source\PSoC6\pdl\drivers/peripheral/scb/cy_scb_i2c.h **** * \ref Cy_SCB_I2C_SetDataRate to set the SCL low and high phase duration.
 105:Generated_Source\PSoC6\pdl\drivers/peripheral/scb/cy_scb_i2c.h **** * This function reach for SCL low and high phase settings based on source clock
 106:Generated_Source\PSoC6\pdl\drivers/peripheral/scb/cy_scb_i2c.h **** * frequency.
 107:Generated_Source\PSoC6\pdl\drivers/peripheral/scb/cy_scb_i2c.h **** *
 108:Generated_Source\PSoC6\pdl\drivers/peripheral/scb/cy_scb_i2c.h **** * \snippet SCB_CompDatasheet_sut_01_revA.cydsn\i2c_snippets.c I2C_CFG_DATA_RATE_MASTER
 109:Generated_Source\PSoC6\pdl\drivers/peripheral/scb/cy_scb_i2c.h **** *
ARM GAS  C:\Users\salaz\AppData\Local\Temp\ccKm0KhK.s 			page 14


 110:Generated_Source\PSoC6\pdl\drivers/peripheral/scb/cy_scb_i2c.h **** * Alternatively, the low and high phase can be set directly using
 111:Generated_Source\PSoC6\pdl\drivers/peripheral/scb/cy_scb_i2c.h **** * \ref Cy_SCB_I2C_MasterSetLowPhaseDutyCycle and
 112:Generated_Source\PSoC6\pdl\drivers/peripheral/scb/cy_scb_i2c.h **** * \ref Cy_SCB_I2C_MasterSetHighPhaseDutyCycle functions. \n
 113:Generated_Source\PSoC6\pdl\drivers/peripheral/scb/cy_scb_i2c.h **** * Refer to the technical reference manual (TRM) section I2C sub-section
 114:Generated_Source\PSoC6\pdl\drivers/peripheral/scb/cy_scb_i2c.h **** * Oversampling and Bit Rate to get information how to configure I2C to run with
 115:Generated_Source\PSoC6\pdl\drivers/peripheral/scb/cy_scb_i2c.h **** * the desired data rate.
 116:Generated_Source\PSoC6\pdl\drivers/peripheral/scb/cy_scb_i2c.h **** *
 117:Generated_Source\PSoC6\pdl\drivers/peripheral/scb/cy_scb_i2c.h **** * \note
 118:Generated_Source\PSoC6\pdl\drivers/peripheral/scb/cy_scb_i2c.h **** * For I2C slave, the analog filter is used for all supported data rates. \n
 119:Generated_Source\PSoC6\pdl\drivers/peripheral/scb/cy_scb_i2c.h **** * For I2C master, the analog filter is used for Standard and Fast modes and the
 120:Generated_Source\PSoC6\pdl\drivers/peripheral/scb/cy_scb_i2c.h **** * digital filter for Fast Plus mode.
 121:Generated_Source\PSoC6\pdl\drivers/peripheral/scb/cy_scb_i2c.h **** *
 122:Generated_Source\PSoC6\pdl\drivers/peripheral/scb/cy_scb_i2c.h **** * \subsection group_scb_i2c_intr Configure Interrupt
 123:Generated_Source\PSoC6\pdl\drivers/peripheral/scb/cy_scb_i2c.h **** * The interrupt is mandatory for I2C operation. The exception is the I2C master,
 124:Generated_Source\PSoC6\pdl\drivers/peripheral/scb/cy_scb_i2c.h **** * which uses only the \ref group_scb_i2c_master_low_level_functions functions.
 125:Generated_Source\PSoC6\pdl\drivers/peripheral/scb/cy_scb_i2c.h **** * The driver provides three interrupt functions: \ref Cy_SCB_I2C_Interrupt,
 126:Generated_Source\PSoC6\pdl\drivers/peripheral/scb/cy_scb_i2c.h **** * \ref Cy_SCB_I2C_SlaveInterrupt, and \ref Cy_SCB_I2C_MasterInterrupt. One of
 127:Generated_Source\PSoC6\pdl\drivers/peripheral/scb/cy_scb_i2c.h **** * these functions must be called in the interrupt handler for the selected SCB
 128:Generated_Source\PSoC6\pdl\drivers/peripheral/scb/cy_scb_i2c.h **** * instance. Call \ref Cy_SCB_I2C_SlaveInterrupt when I2C is configured to
 129:Generated_Source\PSoC6\pdl\drivers/peripheral/scb/cy_scb_i2c.h **** * operate as a slave, \ref Cy_SCB_I2C_MasterInterrupt when I2C is configured
 130:Generated_Source\PSoC6\pdl\drivers/peripheral/scb/cy_scb_i2c.h **** * to operate as a master and \ref Cy_SCB_I2C_Interrupt when I2C is configured
 131:Generated_Source\PSoC6\pdl\drivers/peripheral/scb/cy_scb_i2c.h **** * to operate as master and slave. Using the slave- or master-specific interrupt
 132:Generated_Source\PSoC6\pdl\drivers/peripheral/scb/cy_scb_i2c.h **** * function allows reducing the flash consumed by the I2C driver. Also this
 133:Generated_Source\PSoC6\pdl\drivers/peripheral/scb/cy_scb_i2c.h **** * interrupt must be enabled in the NVIC otherwise it will not work.
 134:Generated_Source\PSoC6\pdl\drivers/peripheral/scb/cy_scb_i2c.h **** * \note
 135:Generated_Source\PSoC6\pdl\drivers/peripheral/scb/cy_scb_i2c.h **** * The I2C driver documentation refers to the \ref Cy_SCB_I2C_Interrupt function
 136:Generated_Source\PSoC6\pdl\drivers/peripheral/scb/cy_scb_i2c.h **** * when interrupt processing is mandatory for the operation. This is done to
 137:Generated_Source\PSoC6\pdl\drivers/peripheral/scb/cy_scb_i2c.h **** * simplify the readability of the driver's documentation. The application should
 138:Generated_Source\PSoC6\pdl\drivers/peripheral/scb/cy_scb_i2c.h **** *  call the slave- or master-specific interrupt functions \ref Cy_SCB_I2C_SlaveInterrupt
 139:Generated_Source\PSoC6\pdl\drivers/peripheral/scb/cy_scb_i2c.h **** * or \ref Cy_SCB_I2C_MasterInterrupt, when appropriate.
 140:Generated_Source\PSoC6\pdl\drivers/peripheral/scb/cy_scb_i2c.h **** *
 141:Generated_Source\PSoC6\pdl\drivers/peripheral/scb/cy_scb_i2c.h **** * \snippet SCB_CompDatasheet_sut_01_revA.cydsn\i2c_snippets.c I2C_INTR_A
 142:Generated_Source\PSoC6\pdl\drivers/peripheral/scb/cy_scb_i2c.h **** * \snippet SCB_CompDatasheet_sut_01_revA.cydsn\i2c_snippets.c I2C_INTR_B
 143:Generated_Source\PSoC6\pdl\drivers/peripheral/scb/cy_scb_i2c.h **** *
 144:Generated_Source\PSoC6\pdl\drivers/peripheral/scb/cy_scb_i2c.h **** * \subsection group_scb_i2c_enable Enable I2C
 145:Generated_Source\PSoC6\pdl\drivers/peripheral/scb/cy_scb_i2c.h **** * Finally, enable the I2C operation calling \ref Cy_SCB_I2C_Enable. Then I2C
 146:Generated_Source\PSoC6\pdl\drivers/peripheral/scb/cy_scb_i2c.h **** * slave starts respond to the assigned address and I2C master ready to execute
 147:Generated_Source\PSoC6\pdl\drivers/peripheral/scb/cy_scb_i2c.h **** * transfers.
 148:Generated_Source\PSoC6\pdl\drivers/peripheral/scb/cy_scb_i2c.h **** *
 149:Generated_Source\PSoC6\pdl\drivers/peripheral/scb/cy_scb_i2c.h **** * \snippet SCB_CompDatasheet_sut_01_revA.cydsn\i2c_snippets.c I2C_ENABLE
 150:Generated_Source\PSoC6\pdl\drivers/peripheral/scb/cy_scb_i2c.h **** *
 151:Generated_Source\PSoC6\pdl\drivers/peripheral/scb/cy_scb_i2c.h **** * \section group_scb_i2c_use_cases Common Use Cases
 152:Generated_Source\PSoC6\pdl\drivers/peripheral/scb/cy_scb_i2c.h **** *
 153:Generated_Source\PSoC6\pdl\drivers/peripheral/scb/cy_scb_i2c.h **** * \subsection group_scb_i2c_master_mode Master Operation
 154:Generated_Source\PSoC6\pdl\drivers/peripheral/scb/cy_scb_i2c.h **** * The master API is divided into two categories:
 155:Generated_Source\PSoC6\pdl\drivers/peripheral/scb/cy_scb_i2c.h **** * \ref group_scb_i2c_master_high_level_functions and
 156:Generated_Source\PSoC6\pdl\drivers/peripheral/scb/cy_scb_i2c.h **** * \ref group_scb_i2c_master_low_level_functions. Therefore, there are two
 157:Generated_Source\PSoC6\pdl\drivers/peripheral/scb/cy_scb_i2c.h **** * methods for initiating I2C master transactions using either <b>Low-Level or
 158:Generated_Source\PSoC6\pdl\drivers/peripheral/scb/cy_scb_i2c.h **** * High-Level</b> API. These two methods are described below. Only one method
 159:Generated_Source\PSoC6\pdl\drivers/peripheral/scb/cy_scb_i2c.h **** * should be used at a time. They should not be mixed.
 160:Generated_Source\PSoC6\pdl\drivers/peripheral/scb/cy_scb_i2c.h **** *
 161:Generated_Source\PSoC6\pdl\drivers/peripheral/scb/cy_scb_i2c.h **** * \subsubsection  group_scb_i2c_master_hl Use High-Level Functions
 162:Generated_Source\PSoC6\pdl\drivers/peripheral/scb/cy_scb_i2c.h **** *  Call \ref Cy_SCB_I2C_MasterRead or \ref Cy_SCB_I2C_MasterWrite to
 163:Generated_Source\PSoC6\pdl\drivers/peripheral/scb/cy_scb_i2c.h **** * communicate with the slave. These functions do not block and only start a
 164:Generated_Source\PSoC6\pdl\drivers/peripheral/scb/cy_scb_i2c.h **** * transaction. After a transaction starts, the \ref Cy_SCB_I2C_Interrupt
 165:Generated_Source\PSoC6\pdl\drivers/peripheral/scb/cy_scb_i2c.h **** * handles the further data transaction until its completion (successfully or with an error
 166:Generated_Source\PSoC6\pdl\drivers/peripheral/scb/cy_scb_i2c.h **** * occurring). Therefore, \ref Cy_SCB_I2C_Interrupt must be called inside the
ARM GAS  C:\Users\salaz\AppData\Local\Temp\ccKm0KhK.s 			page 15


 167:Generated_Source\PSoC6\pdl\drivers/peripheral/scb/cy_scb_i2c.h **** * interrupt handler to make the functions above work. To monitor the transaction,
 168:Generated_Source\PSoC6\pdl\drivers/peripheral/scb/cy_scb_i2c.h **** * use \ref Cy_SCB_I2C_MasterGetStatus or register callback function using
 169:Generated_Source\PSoC6\pdl\drivers/peripheral/scb/cy_scb_i2c.h **** * \ref Cy_SCB_I2C_RegisterEventCallback to be notified about
 170:Generated_Source\PSoC6\pdl\drivers/peripheral/scb/cy_scb_i2c.h **** * \ref group_scb_i2c_macros_callback_events.
 171:Generated_Source\PSoC6\pdl\drivers/peripheral/scb/cy_scb_i2c.h **** *
 172:Generated_Source\PSoC6\pdl\drivers/peripheral/scb/cy_scb_i2c.h **** * \snippet SCB_CompDatasheet_sut_01_revA.cydsn\i2c_snippets.c I2C_MASTER_WRITE_READ_INT
 173:Generated_Source\PSoC6\pdl\drivers/peripheral/scb/cy_scb_i2c.h **** *
 174:Generated_Source\PSoC6\pdl\drivers/peripheral/scb/cy_scb_i2c.h **** * \subsubsection group_scb_i2c_master_ll Use Low-Level Functions
 175:Generated_Source\PSoC6\pdl\drivers/peripheral/scb/cy_scb_i2c.h **** * Call \ref Cy_SCB_I2C_MasterSendStart to generate a start, send an address
 176:Generated_Source\PSoC6\pdl\drivers/peripheral/scb/cy_scb_i2c.h **** * with the Read/Write direction bit, and receive acknowledgment. After the
 177:Generated_Source\PSoC6\pdl\drivers/peripheral/scb/cy_scb_i2c.h **** * address is ACKed by the slave, the transaction can be continued by calling
 178:Generated_Source\PSoC6\pdl\drivers/peripheral/scb/cy_scb_i2c.h **** * \ref Cy_SCB_I2C_MasterReadByte or \ref Cy_SCB_I2C_MasterWriteByte depending
 179:Generated_Source\PSoC6\pdl\drivers/peripheral/scb/cy_scb_i2c.h **** * on its direction. These functions handle one byte per call. Therefore,
 180:Generated_Source\PSoC6\pdl\drivers/peripheral/scb/cy_scb_i2c.h **** * they should be called for each byte in the transaction. Note that for the
 181:Generated_Source\PSoC6\pdl\drivers/peripheral/scb/cy_scb_i2c.h **** * Read transaction, the last byte must be NAKed. To complete the current
 182:Generated_Source\PSoC6\pdl\drivers/peripheral/scb/cy_scb_i2c.h **** * transaction, call \ref Cy_SCB_I2C_MasterSendStop or call
 183:Generated_Source\PSoC6\pdl\drivers/peripheral/scb/cy_scb_i2c.h **** * \ref Cy_SCB_I2C_MasterSendReStart to complete the current transaction and
 184:Generated_Source\PSoC6\pdl\drivers/peripheral/scb/cy_scb_i2c.h **** * start a new one. Typically, do a restart to change the transaction
 185:Generated_Source\PSoC6\pdl\drivers/peripheral/scb/cy_scb_i2c.h **** * direction without releasing the bus from the master control.
 186:Generated_Source\PSoC6\pdl\drivers/peripheral/scb/cy_scb_i2c.h **** * The Low-Level functions are blocking and do not require calling
 187:Generated_Source\PSoC6\pdl\drivers/peripheral/scb/cy_scb_i2c.h **** * \ref Cy_SCB_I2C_Interrupt inside the interrupt handler. Using these
 188:Generated_Source\PSoC6\pdl\drivers/peripheral/scb/cy_scb_i2c.h **** * functions requires extensive knowledge of the I2C protocol to execute
 189:Generated_Source\PSoC6\pdl\drivers/peripheral/scb/cy_scb_i2c.h **** * transactions correctly.
 190:Generated_Source\PSoC6\pdl\drivers/peripheral/scb/cy_scb_i2c.h **** *
 191:Generated_Source\PSoC6\pdl\drivers/peripheral/scb/cy_scb_i2c.h **** * <b>Master Write Operation</b>
 192:Generated_Source\PSoC6\pdl\drivers/peripheral/scb/cy_scb_i2c.h **** * \snippet SCB_CompDatasheet_sut_01_revA.cydsn\i2c_snippets.c I2C_MASTER_WRITE_MANUAL
 193:Generated_Source\PSoC6\pdl\drivers/peripheral/scb/cy_scb_i2c.h **** *
 194:Generated_Source\PSoC6\pdl\drivers/peripheral/scb/cy_scb_i2c.h **** * <b>Master Read Operation</b>
 195:Generated_Source\PSoC6\pdl\drivers/peripheral/scb/cy_scb_i2c.h **** * \snippet SCB_CompDatasheet_sut_01_revA.cydsn\i2c_snippets.c I2C_MASTER_READ_MANUAL
 196:Generated_Source\PSoC6\pdl\drivers/peripheral/scb/cy_scb_i2c.h **** *
 197:Generated_Source\PSoC6\pdl\drivers/peripheral/scb/cy_scb_i2c.h **** * \subsection group_scb_i2c_slave Slave Operation
 198:Generated_Source\PSoC6\pdl\drivers/peripheral/scb/cy_scb_i2c.h **** * The slave operation is based on the \ref Cy_SCB_I2C_Interrupt that must be
 199:Generated_Source\PSoC6\pdl\drivers/peripheral/scb/cy_scb_i2c.h **** * called inside the interrupt handler. The Read and Write buffer must
 200:Generated_Source\PSoC6\pdl\drivers/peripheral/scb/cy_scb_i2c.h **** * be provided for the slave to enable communication with the master. Use
 201:Generated_Source\PSoC6\pdl\drivers/peripheral/scb/cy_scb_i2c.h **** * \ref Cy_SCB_I2C_SlaveConfigReadBuf and \ref Cy_SCB_I2C_SlaveConfigWriteBuf
 202:Generated_Source\PSoC6\pdl\drivers/peripheral/scb/cy_scb_i2c.h **** * for this purpose. Note that after transaction completion the buffer must be
 203:Generated_Source\PSoC6\pdl\drivers/peripheral/scb/cy_scb_i2c.h **** * configured again. Otherwise, the same buffer is used starting from the point
 204:Generated_Source\PSoC6\pdl\drivers/peripheral/scb/cy_scb_i2c.h **** * where the master stopped a previous transaction.
 205:Generated_Source\PSoC6\pdl\drivers/peripheral/scb/cy_scb_i2c.h **** * For example: The Read buffer is configured to be 10 bytes and the master Read
 206:Generated_Source\PSoC6\pdl\drivers/peripheral/scb/cy_scb_i2c.h **** * is 8 bytes. If the Read buffer is not configured again, the next master Read
 207:Generated_Source\PSoC6\pdl\drivers/peripheral/scb/cy_scb_i2c.h **** * will start from the 9th byte.
 208:Generated_Source\PSoC6\pdl\drivers/peripheral/scb/cy_scb_i2c.h **** * To monitor the transaction status, use \ref Cy_SCB_I2C_SlaveGetStatus or
 209:Generated_Source\PSoC6\pdl\drivers/peripheral/scb/cy_scb_i2c.h **** * use \ref Cy_SCB_I2C_RegisterEventCallback to register a callback function
 210:Generated_Source\PSoC6\pdl\drivers/peripheral/scb/cy_scb_i2c.h **** * to be notified about \ref group_scb_i2c_macros_callback_events.
 211:Generated_Source\PSoC6\pdl\drivers/peripheral/scb/cy_scb_i2c.h **** *
 212:Generated_Source\PSoC6\pdl\drivers/peripheral/scb/cy_scb_i2c.h **** * <b>Get Slave Events Notification</b>
 213:Generated_Source\PSoC6\pdl\drivers/peripheral/scb/cy_scb_i2c.h **** * \snippet SCB_CompDatasheet_sut_01_revA.cydsn\i2c_snippets.c I2C_SLAVE_REG_CALLBACK
 214:Generated_Source\PSoC6\pdl\drivers/peripheral/scb/cy_scb_i2c.h **** * \snippet SCB_CompDatasheet_sut_01_revA.cydsn\i2c_snippets.c I2C_SLAVE_NOTIFICATION
 215:Generated_Source\PSoC6\pdl\drivers/peripheral/scb/cy_scb_i2c.h **** *
 216:Generated_Source\PSoC6\pdl\drivers/peripheral/scb/cy_scb_i2c.h **** * <b>Polling Slave Completion Events</b>
 217:Generated_Source\PSoC6\pdl\drivers/peripheral/scb/cy_scb_i2c.h **** * \snippet SCB_CompDatasheet_sut_01_revA.cydsn\i2c_snippets.c I2C_SLAVE_POLLING
 218:Generated_Source\PSoC6\pdl\drivers/peripheral/scb/cy_scb_i2c.h **** *
 219:Generated_Source\PSoC6\pdl\drivers/peripheral/scb/cy_scb_i2c.h **** * \note
 220:Generated_Source\PSoC6\pdl\drivers/peripheral/scb/cy_scb_i2c.h **** * All slave API (except \ref Cy_SCB_I2C_SlaveAbortRead and
 221:Generated_Source\PSoC6\pdl\drivers/peripheral/scb/cy_scb_i2c.h **** * \ref Cy_SCB_I2C_SlaveAbortWrite) <b>are not interrupt-protected</b> and to
 222:Generated_Source\PSoC6\pdl\drivers/peripheral/scb/cy_scb_i2c.h **** * prevent a race condition, they should be protected from the I2C interruption
 223:Generated_Source\PSoC6\pdl\drivers/peripheral/scb/cy_scb_i2c.h **** * in the place where they are called.
ARM GAS  C:\Users\salaz\AppData\Local\Temp\ccKm0KhK.s 			page 16


 224:Generated_Source\PSoC6\pdl\drivers/peripheral/scb/cy_scb_i2c.h **** *
 225:Generated_Source\PSoC6\pdl\drivers/peripheral/scb/cy_scb_i2c.h **** * \section group_scb_i2c_lp Low Power Support
 226:Generated_Source\PSoC6\pdl\drivers/peripheral/scb/cy_scb_i2c.h **** * The I2C driver provides the callback functions to handle power mode transition.
 227:Generated_Source\PSoC6\pdl\drivers/peripheral/scb/cy_scb_i2c.h **** * The callback \ref Cy_SCB_I2C_DeepSleepCallback must be called
 228:Generated_Source\PSoC6\pdl\drivers/peripheral/scb/cy_scb_i2c.h **** * during execution of \ref Cy_SysPm_DeepSleep; \ref Cy_SCB_I2C_HibernateCallback
 229:Generated_Source\PSoC6\pdl\drivers/peripheral/scb/cy_scb_i2c.h **** * must be called during execution of \ref Cy_SysPm_Hibernate. To trigger the
 230:Generated_Source\PSoC6\pdl\drivers/peripheral/scb/cy_scb_i2c.h **** * callback execution, the callback must be registered before calling the
 231:Generated_Source\PSoC6\pdl\drivers/peripheral/scb/cy_scb_i2c.h **** * power mode transition function. Refer to \ref group_syspm driver for more
 232:Generated_Source\PSoC6\pdl\drivers/peripheral/scb/cy_scb_i2c.h **** * information about power mode transitions and callback registration.
 233:Generated_Source\PSoC6\pdl\drivers/peripheral/scb/cy_scb_i2c.h **** *
 234:Generated_Source\PSoC6\pdl\drivers/peripheral/scb/cy_scb_i2c.h **** * \note
 235:Generated_Source\PSoC6\pdl\drivers/peripheral/scb/cy_scb_i2c.h **** * Only applicable for <b>rev-08 of the CY8CKIT-062-BLE</b>.
 236:Generated_Source\PSoC6\pdl\drivers/peripheral/scb/cy_scb_i2c.h **** * For proper operation, when the I2C slave is configured to be a wakeup
 237:Generated_Source\PSoC6\pdl\drivers/peripheral/scb/cy_scb_i2c.h **** * source from Deep Sleep mode, the \ref Cy_SCB_I2C_DeepSleepCallback must be
 238:Generated_Source\PSoC6\pdl\drivers/peripheral/scb/cy_scb_i2c.h **** * copied and modified. Refer to the function description to get the details.
 239:Generated_Source\PSoC6\pdl\drivers/peripheral/scb/cy_scb_i2c.h **** *
 240:Generated_Source\PSoC6\pdl\drivers/peripheral/scb/cy_scb_i2c.h **** * \section group_scb_i2c_more_information More Information
 241:Generated_Source\PSoC6\pdl\drivers/peripheral/scb/cy_scb_i2c.h **** * For more information on the SCB peripheral, refer to the technical reference
 242:Generated_Source\PSoC6\pdl\drivers/peripheral/scb/cy_scb_i2c.h **** * manual (TRM).
 243:Generated_Source\PSoC6\pdl\drivers/peripheral/scb/cy_scb_i2c.h **** *
 244:Generated_Source\PSoC6\pdl\drivers/peripheral/scb/cy_scb_i2c.h **** * \section group_scb_i2c_MISRA MISRA-C Compliance
 245:Generated_Source\PSoC6\pdl\drivers/peripheral/scb/cy_scb_i2c.h **** * <table class="doxtable">
 246:Generated_Source\PSoC6\pdl\drivers/peripheral/scb/cy_scb_i2c.h **** *   <tr>
 247:Generated_Source\PSoC6\pdl\drivers/peripheral/scb/cy_scb_i2c.h **** *     <th>MISRA Rule</th>
 248:Generated_Source\PSoC6\pdl\drivers/peripheral/scb/cy_scb_i2c.h **** *     <th>Rule Class (Required/Advisory)</th>
 249:Generated_Source\PSoC6\pdl\drivers/peripheral/scb/cy_scb_i2c.h **** *     <th>Rule Description</th>
 250:Generated_Source\PSoC6\pdl\drivers/peripheral/scb/cy_scb_i2c.h **** *     <th>Description of Deviation(s)</th>
 251:Generated_Source\PSoC6\pdl\drivers/peripheral/scb/cy_scb_i2c.h **** *   </tr>
 252:Generated_Source\PSoC6\pdl\drivers/peripheral/scb/cy_scb_i2c.h **** *   <tr>
 253:Generated_Source\PSoC6\pdl\drivers/peripheral/scb/cy_scb_i2c.h **** *     <td>11.4</td>
 254:Generated_Source\PSoC6\pdl\drivers/peripheral/scb/cy_scb_i2c.h **** *     <td>A</td>
 255:Generated_Source\PSoC6\pdl\drivers/peripheral/scb/cy_scb_i2c.h **** *     <td>A cast should not be performed between a pointer to object type and
 256:Generated_Source\PSoC6\pdl\drivers/peripheral/scb/cy_scb_i2c.h **** *         a different pointer to object type.</td>
 257:Generated_Source\PSoC6\pdl\drivers/peripheral/scb/cy_scb_i2c.h **** *     <td>The functions \ref Cy_SCB_I2C_DeepSleepCallback and
 258:Generated_Source\PSoC6\pdl\drivers/peripheral/scb/cy_scb_i2c.h **** *         \ref Cy_SCB_I2C_HibernateCallback are callback of
 259:Generated_Source\PSoC6\pdl\drivers/peripheral/scb/cy_scb_i2c.h **** *         \ref cy_en_syspm_status_t type. The cast operation safety in these
 260:Generated_Source\PSoC6\pdl\drivers/peripheral/scb/cy_scb_i2c.h **** *         functions becomes the user's responsibility because pointers are
 261:Generated_Source\PSoC6\pdl\drivers/peripheral/scb/cy_scb_i2c.h **** *         initialized when callback is registered in SysPm driver.</td>
 262:Generated_Source\PSoC6\pdl\drivers/peripheral/scb/cy_scb_i2c.h **** *   </tr>
 263:Generated_Source\PSoC6\pdl\drivers/peripheral/scb/cy_scb_i2c.h **** *   <tr>
 264:Generated_Source\PSoC6\pdl\drivers/peripheral/scb/cy_scb_i2c.h **** *     <td>14.1</td>
 265:Generated_Source\PSoC6\pdl\drivers/peripheral/scb/cy_scb_i2c.h **** *     <td>R</td>
 266:Generated_Source\PSoC6\pdl\drivers/peripheral/scb/cy_scb_i2c.h **** *     <td>There shall be no unreachable code.</td>
 267:Generated_Source\PSoC6\pdl\drivers/peripheral/scb/cy_scb_i2c.h **** *     <td>The SCB block parameters can be a constant false or true depends on
 268:Generated_Source\PSoC6\pdl\drivers/peripheral/scb/cy_scb_i2c.h **** *         the selected device and cause code to be unreachable.</td>
 269:Generated_Source\PSoC6\pdl\drivers/peripheral/scb/cy_scb_i2c.h **** *   </tr>
 270:Generated_Source\PSoC6\pdl\drivers/peripheral/scb/cy_scb_i2c.h **** *   <tr>
 271:Generated_Source\PSoC6\pdl\drivers/peripheral/scb/cy_scb_i2c.h **** *     <td>13.7</td>
 272:Generated_Source\PSoC6\pdl\drivers/peripheral/scb/cy_scb_i2c.h **** *     <td>R</td>
 273:Generated_Source\PSoC6\pdl\drivers/peripheral/scb/cy_scb_i2c.h **** *     <td>Boolean operations whose results are invariant shall not be
 274:Generated_Source\PSoC6\pdl\drivers/peripheral/scb/cy_scb_i2c.h **** *         permitted.</td>
 275:Generated_Source\PSoC6\pdl\drivers/peripheral/scb/cy_scb_i2c.h **** *     <td>
 276:Generated_Source\PSoC6\pdl\drivers/peripheral/scb/cy_scb_i2c.h **** *         * The SCB block parameters can be a constant false or true depends on
 277:Generated_Source\PSoC6\pdl\drivers/peripheral/scb/cy_scb_i2c.h **** *         the selected device and cause this violation.
 278:Generated_Source\PSoC6\pdl\drivers/peripheral/scb/cy_scb_i2c.h **** *         * The same condition check is executed before and after callback is
 279:Generated_Source\PSoC6\pdl\drivers/peripheral/scb/cy_scb_i2c.h **** *         called because after the callback returns, the condition might be not
 280:Generated_Source\PSoC6\pdl\drivers/peripheral/scb/cy_scb_i2c.h **** *         true any more.</td>
ARM GAS  C:\Users\salaz\AppData\Local\Temp\ccKm0KhK.s 			page 17


 281:Generated_Source\PSoC6\pdl\drivers/peripheral/scb/cy_scb_i2c.h **** *   </tr>
 282:Generated_Source\PSoC6\pdl\drivers/peripheral/scb/cy_scb_i2c.h **** *   <tr>
 283:Generated_Source\PSoC6\pdl\drivers/peripheral/scb/cy_scb_i2c.h **** *     <td>14.2</td>
 284:Generated_Source\PSoC6\pdl\drivers/peripheral/scb/cy_scb_i2c.h **** *     <td>R</td>
 285:Generated_Source\PSoC6\pdl\drivers/peripheral/scb/cy_scb_i2c.h **** *     <td>All non-null statements shall either: a) have at least one side-effect
 286:Generated_Source\PSoC6\pdl\drivers/peripheral/scb/cy_scb_i2c.h **** *         however executed, or b) cause control flow to change.</td>
 287:Generated_Source\PSoC6\pdl\drivers/peripheral/scb/cy_scb_i2c.h **** *     <td>The unused function parameters are cast to void. This statement
 288:Generated_Source\PSoC6\pdl\drivers/peripheral/scb/cy_scb_i2c.h **** *         has no side-effect and is used to suppress a compiler warning.</td>
 289:Generated_Source\PSoC6\pdl\drivers/peripheral/scb/cy_scb_i2c.h **** *   </tr>
 290:Generated_Source\PSoC6\pdl\drivers/peripheral/scb/cy_scb_i2c.h **** *   <tr>
 291:Generated_Source\PSoC6\pdl\drivers/peripheral/scb/cy_scb_i2c.h **** *     <td>14.7</td>
 292:Generated_Source\PSoC6\pdl\drivers/peripheral/scb/cy_scb_i2c.h **** *     <td>R</td>
 293:Generated_Source\PSoC6\pdl\drivers/peripheral/scb/cy_scb_i2c.h **** *     <td>A function shall have a single point of exit at the end of the
 294:Generated_Source\PSoC6\pdl\drivers/peripheral/scb/cy_scb_i2c.h **** *         function.</td>
 295:Generated_Source\PSoC6\pdl\drivers/peripheral/scb/cy_scb_i2c.h **** *     <td>The functions can return from several points. This is done to improve
 296:Generated_Source\PSoC6\pdl\drivers/peripheral/scb/cy_scb_i2c.h **** *         code clarity when returning error status code if input parameters
 297:Generated_Source\PSoC6\pdl\drivers/peripheral/scb/cy_scb_i2c.h **** *         validation fails.</td>
 298:Generated_Source\PSoC6\pdl\drivers/peripheral/scb/cy_scb_i2c.h **** *   </tr>
 299:Generated_Source\PSoC6\pdl\drivers/peripheral/scb/cy_scb_i2c.h **** * </table>
 300:Generated_Source\PSoC6\pdl\drivers/peripheral/scb/cy_scb_i2c.h **** *
 301:Generated_Source\PSoC6\pdl\drivers/peripheral/scb/cy_scb_i2c.h **** * \section group_scb_i2c_changelog Changelog
 302:Generated_Source\PSoC6\pdl\drivers/peripheral/scb/cy_scb_i2c.h **** * <table class="doxtable">
 303:Generated_Source\PSoC6\pdl\drivers/peripheral/scb/cy_scb_i2c.h **** *   <tr><th>Version</th><th>Changes</th><th>Reason for Change</th></tr>
 304:Generated_Source\PSoC6\pdl\drivers/peripheral/scb/cy_scb_i2c.h **** *   <tr>
 305:Generated_Source\PSoC6\pdl\drivers/peripheral/scb/cy_scb_i2c.h **** *     <td rowspan="4"> 2.10</td>
 306:Generated_Source\PSoC6\pdl\drivers/peripheral/scb/cy_scb_i2c.h **** *     <td>Fixed the ReStart condition generation sequence for a write
 307:Generated_Source\PSoC6\pdl\drivers/peripheral/scb/cy_scb_i2c.h **** *         transaction in the \ref Cy_SCB_I2C_MasterWrite function.</td>
 308:Generated_Source\PSoC6\pdl\drivers/peripheral/scb/cy_scb_i2c.h **** *     <td>The driver can notify about a zero length write transaction completion 
 309:Generated_Source\PSoC6\pdl\drivers/peripheral/scb/cy_scb_i2c.h **** *         before the address byte is sent if the \ref Cy_SCB_I2C_MasterWrite 
 310:Generated_Source\PSoC6\pdl\drivers/peripheral/scb/cy_scb_i2c.h **** *         function execution was interrupted between setting the restart 
 311:Generated_Source\PSoC6\pdl\drivers/peripheral/scb/cy_scb_i2c.h **** *         generation command and writing the address byte into the TX FIFO.</td>
 312:Generated_Source\PSoC6\pdl\drivers/peripheral/scb/cy_scb_i2c.h **** *   </tr>
 313:Generated_Source\PSoC6\pdl\drivers/peripheral/scb/cy_scb_i2c.h **** *   <tr>
 314:Generated_Source\PSoC6\pdl\drivers/peripheral/scb/cy_scb_i2c.h **** *     <td>Added the slave- and master-specific interrupt functions:
 315:Generated_Source\PSoC6\pdl\drivers/peripheral/scb/cy_scb_i2c.h **** *         \ref Cy_SCB_I2C_SlaveInterrupt and \ref Cy_SCB_I2C_MasterInterrupt.
 316:Generated_Source\PSoC6\pdl\drivers/peripheral/scb/cy_scb_i2c.h **** *     </td>
 317:Generated_Source\PSoC6\pdl\drivers/peripheral/scb/cy_scb_i2c.h **** *     <td>Improved the interrupt configuration options for the I2C slave and
 318:Generated_Source\PSoC6\pdl\drivers/peripheral/scb/cy_scb_i2c.h **** *         master mode configurations.</td>
 319:Generated_Source\PSoC6\pdl\drivers/peripheral/scb/cy_scb_i2c.h **** *   </tr>
 320:Generated_Source\PSoC6\pdl\drivers/peripheral/scb/cy_scb_i2c.h **** *   <tr>
 321:Generated_Source\PSoC6\pdl\drivers/peripheral/scb/cy_scb_i2c.h **** *     <td>Updated the Start condition generation sequence in the \ref 
 322:Generated_Source\PSoC6\pdl\drivers/peripheral/scb/cy_scb_i2c.h **** *         Cy_SCB_I2C_MasterWrite and \ref Cy_SCB_I2C_MasterRead.</td>
 323:Generated_Source\PSoC6\pdl\drivers/peripheral/scb/cy_scb_i2c.h **** *     <td></td>
 324:Generated_Source\PSoC6\pdl\drivers/peripheral/scb/cy_scb_i2c.h **** *   </tr>
 325:Generated_Source\PSoC6\pdl\drivers/peripheral/scb/cy_scb_i2c.h **** *   <tr>
 326:Generated_Source\PSoC6\pdl\drivers/peripheral/scb/cy_scb_i2c.h **** *     <td>Updated the ReStart condition generation sequence for a write
 327:Generated_Source\PSoC6\pdl\drivers/peripheral/scb/cy_scb_i2c.h **** *         transaction in the \ref Cy_SCB_I2C_MasterSendReStart function.</td>
 328:Generated_Source\PSoC6\pdl\drivers/peripheral/scb/cy_scb_i2c.h **** *     <td></td>
 329:Generated_Source\PSoC6\pdl\drivers/peripheral/scb/cy_scb_i2c.h **** *   </tr>
 330:Generated_Source\PSoC6\pdl\drivers/peripheral/scb/cy_scb_i2c.h **** *   <tr>
 331:Generated_Source\PSoC6\pdl\drivers/peripheral/scb/cy_scb_i2c.h **** *     <td rowspan="5"> 2.0</td>
 332:Generated_Source\PSoC6\pdl\drivers/peripheral/scb/cy_scb_i2c.h **** *     <td>Fixed the \ref Cy_SCB_I2C_MasterSendReStart function to properly 
 333:Generated_Source\PSoC6\pdl\drivers/peripheral/scb/cy_scb_i2c.h **** *         generate the ReStart condition when the previous transaction was 
 334:Generated_Source\PSoC6\pdl\drivers/peripheral/scb/cy_scb_i2c.h **** *         a write.</td>
 335:Generated_Source\PSoC6\pdl\drivers/peripheral/scb/cy_scb_i2c.h **** *     <td>The master interpreted the address byte written into the TX FIFO as a
 336:Generated_Source\PSoC6\pdl\drivers/peripheral/scb/cy_scb_i2c.h **** *         data byte and continued a write transaction. The ReStart condition was
 337:Generated_Source\PSoC6\pdl\drivers/peripheral/scb/cy_scb_i2c.h **** *         generated after the master completed transferring the data byte.
ARM GAS  C:\Users\salaz\AppData\Local\Temp\ccKm0KhK.s 			page 18


 338:Generated_Source\PSoC6\pdl\drivers/peripheral/scb/cy_scb_i2c.h **** *         The SCL line was stretched by the master waiting for the address byte
 339:Generated_Source\PSoC6\pdl\drivers/peripheral/scb/cy_scb_i2c.h **** *         to be written into the TX FIFO after the ReStart condition generation.
 340:Generated_Source\PSoC6\pdl\drivers/peripheral/scb/cy_scb_i2c.h **** *         The following timeout detection released the bus from the master
 341:Generated_Source\PSoC6\pdl\drivers/peripheral/scb/cy_scb_i2c.h **** *         control.</td>
 342:Generated_Source\PSoC6\pdl\drivers/peripheral/scb/cy_scb_i2c.h **** *   </tr>
 343:Generated_Source\PSoC6\pdl\drivers/peripheral/scb/cy_scb_i2c.h **** *   <tr>
 344:Generated_Source\PSoC6\pdl\drivers/peripheral/scb/cy_scb_i2c.h **** *     <td>Fixed the slave operation after the address byte was NACKed by the
 345:Generated_Source\PSoC6\pdl\drivers/peripheral/scb/cy_scb_i2c.h **** *         firmware.</td>
 346:Generated_Source\PSoC6\pdl\drivers/peripheral/scb/cy_scb_i2c.h **** *     <td>The observed slave operation failure depends on whether Level 2 assert
 347:Generated_Source\PSoC6\pdl\drivers/peripheral/scb/cy_scb_i2c.h **** *         is enabled or not. Enabled: the device stuck in the fault handler due
 348:Generated_Source\PSoC6\pdl\drivers/peripheral/scb/cy_scb_i2c.h **** *         to the assert assignment in the \ref Cy_SCB_I2C_Interrupt. Disabled: 
 349:Generated_Source\PSoC6\pdl\drivers/peripheral/scb/cy_scb_i2c.h **** *         the slave sets the transaction completion status and notifies on the 
 350:Generated_Source\PSoC6\pdl\drivers/peripheral/scb/cy_scb_i2c.h **** *         transaction completion event after the address was NACKed. The failure
 351:Generated_Source\PSoC6\pdl\drivers/peripheral/scb/cy_scb_i2c.h **** *         is observed only when the slave is configured to accept an address in 
 352:Generated_Source\PSoC6\pdl\drivers/peripheral/scb/cy_scb_i2c.h **** *         the RX FIFO.</td>
 353:Generated_Source\PSoC6\pdl\drivers/peripheral/scb/cy_scb_i2c.h **** *   </tr>
 354:Generated_Source\PSoC6\pdl\drivers/peripheral/scb/cy_scb_i2c.h **** *   <tr>
 355:Generated_Source\PSoC6\pdl\drivers/peripheral/scb/cy_scb_i2c.h **** *     <td>Added parameters validation for public API.</td>
 356:Generated_Source\PSoC6\pdl\drivers/peripheral/scb/cy_scb_i2c.h **** *     <td></td>
 357:Generated_Source\PSoC6\pdl\drivers/peripheral/scb/cy_scb_i2c.h **** *   </tr>
 358:Generated_Source\PSoC6\pdl\drivers/peripheral/scb/cy_scb_i2c.h **** *   <tr>
 359:Generated_Source\PSoC6\pdl\drivers/peripheral/scb/cy_scb_i2c.h **** *     <td>Replaced variables which have limited range of values with enumerated
 360:Generated_Source\PSoC6\pdl\drivers/peripheral/scb/cy_scb_i2c.h **** *         types.</td>
 361:Generated_Source\PSoC6\pdl\drivers/peripheral/scb/cy_scb_i2c.h **** *     <td></td>
 362:Generated_Source\PSoC6\pdl\drivers/peripheral/scb/cy_scb_i2c.h **** *   </tr>
 363:Generated_Source\PSoC6\pdl\drivers/peripheral/scb/cy_scb_i2c.h **** *   <tr>
 364:Generated_Source\PSoC6\pdl\drivers/peripheral/scb/cy_scb_i2c.h **** *     <td>Added missing "cy_cb_" to the callback function type names.</td>
 365:Generated_Source\PSoC6\pdl\drivers/peripheral/scb/cy_scb_i2c.h **** *     <td></td>
 366:Generated_Source\PSoC6\pdl\drivers/peripheral/scb/cy_scb_i2c.h **** *   </tr>
 367:Generated_Source\PSoC6\pdl\drivers/peripheral/scb/cy_scb_i2c.h **** *   <tr>
 368:Generated_Source\PSoC6\pdl\drivers/peripheral/scb/cy_scb_i2c.h **** *     <td>1.0</td>
 369:Generated_Source\PSoC6\pdl\drivers/peripheral/scb/cy_scb_i2c.h **** *     <td>Initial version.</td>
 370:Generated_Source\PSoC6\pdl\drivers/peripheral/scb/cy_scb_i2c.h **** *     <td></td>
 371:Generated_Source\PSoC6\pdl\drivers/peripheral/scb/cy_scb_i2c.h **** *   </tr>
 372:Generated_Source\PSoC6\pdl\drivers/peripheral/scb/cy_scb_i2c.h **** * </table>
 373:Generated_Source\PSoC6\pdl\drivers/peripheral/scb/cy_scb_i2c.h **** *
 374:Generated_Source\PSoC6\pdl\drivers/peripheral/scb/cy_scb_i2c.h **** * \defgroup group_scb_i2c_macros Macros
 375:Generated_Source\PSoC6\pdl\drivers/peripheral/scb/cy_scb_i2c.h **** * \defgroup group_scb_i2c_functions Functions
 376:Generated_Source\PSoC6\pdl\drivers/peripheral/scb/cy_scb_i2c.h **** * \{
 377:Generated_Source\PSoC6\pdl\drivers/peripheral/scb/cy_scb_i2c.h **** * \defgroup group_scb_i2c_general_functions General
 378:Generated_Source\PSoC6\pdl\drivers/peripheral/scb/cy_scb_i2c.h **** * \defgroup group_scb_i2c_slave_functions Slave
 379:Generated_Source\PSoC6\pdl\drivers/peripheral/scb/cy_scb_i2c.h **** * \defgroup group_scb_i2c_master_high_level_functions Master High-Level
 380:Generated_Source\PSoC6\pdl\drivers/peripheral/scb/cy_scb_i2c.h **** * \defgroup group_scb_i2c_master_low_level_functions Master Low-Level
 381:Generated_Source\PSoC6\pdl\drivers/peripheral/scb/cy_scb_i2c.h **** * \defgroup group_scb_i2c_interrupt_functions Interrupt
 382:Generated_Source\PSoC6\pdl\drivers/peripheral/scb/cy_scb_i2c.h **** * \defgroup group_scb_i2c_low_power_functions Low Power Callbacks
 383:Generated_Source\PSoC6\pdl\drivers/peripheral/scb/cy_scb_i2c.h **** * \}
 384:Generated_Source\PSoC6\pdl\drivers/peripheral/scb/cy_scb_i2c.h **** * \defgroup group_scb_i2c_data_structures Data Structures
 385:Generated_Source\PSoC6\pdl\drivers/peripheral/scb/cy_scb_i2c.h **** * \defgroup group_scb_i2c_enums Enumerated Types
 386:Generated_Source\PSoC6\pdl\drivers/peripheral/scb/cy_scb_i2c.h **** */
 387:Generated_Source\PSoC6\pdl\drivers/peripheral/scb/cy_scb_i2c.h **** 
 388:Generated_Source\PSoC6\pdl\drivers/peripheral/scb/cy_scb_i2c.h **** #if !defined(CY_SCB_I2C_H)
 389:Generated_Source\PSoC6\pdl\drivers/peripheral/scb/cy_scb_i2c.h **** #define CY_SCB_I2C_H
 390:Generated_Source\PSoC6\pdl\drivers/peripheral/scb/cy_scb_i2c.h **** 
 391:Generated_Source\PSoC6\pdl\drivers/peripheral/scb/cy_scb_i2c.h **** #include "cy_scb_common.h"
 392:Generated_Source\PSoC6\pdl\drivers/peripheral/scb/cy_scb_i2c.h **** 
 393:Generated_Source\PSoC6\pdl\drivers/peripheral/scb/cy_scb_i2c.h **** #if defined(__cplusplus)
 394:Generated_Source\PSoC6\pdl\drivers/peripheral/scb/cy_scb_i2c.h **** extern "C" {
ARM GAS  C:\Users\salaz\AppData\Local\Temp\ccKm0KhK.s 			page 19


 395:Generated_Source\PSoC6\pdl\drivers/peripheral/scb/cy_scb_i2c.h **** #endif
 396:Generated_Source\PSoC6\pdl\drivers/peripheral/scb/cy_scb_i2c.h **** 
 397:Generated_Source\PSoC6\pdl\drivers/peripheral/scb/cy_scb_i2c.h **** /***************************************
 398:Generated_Source\PSoC6\pdl\drivers/peripheral/scb/cy_scb_i2c.h **** *          Enumerated Types
 399:Generated_Source\PSoC6\pdl\drivers/peripheral/scb/cy_scb_i2c.h **** ***************************************/
 400:Generated_Source\PSoC6\pdl\drivers/peripheral/scb/cy_scb_i2c.h **** 
 401:Generated_Source\PSoC6\pdl\drivers/peripheral/scb/cy_scb_i2c.h **** /**
 402:Generated_Source\PSoC6\pdl\drivers/peripheral/scb/cy_scb_i2c.h **** * \addtogroup group_scb_i2c_enums
 403:Generated_Source\PSoC6\pdl\drivers/peripheral/scb/cy_scb_i2c.h **** * \{
 404:Generated_Source\PSoC6\pdl\drivers/peripheral/scb/cy_scb_i2c.h **** */
 405:Generated_Source\PSoC6\pdl\drivers/peripheral/scb/cy_scb_i2c.h **** 
 406:Generated_Source\PSoC6\pdl\drivers/peripheral/scb/cy_scb_i2c.h **** /** I2C status codes */
 407:Generated_Source\PSoC6\pdl\drivers/peripheral/scb/cy_scb_i2c.h **** typedef enum
 408:Generated_Source\PSoC6\pdl\drivers/peripheral/scb/cy_scb_i2c.h **** {
 409:Generated_Source\PSoC6\pdl\drivers/peripheral/scb/cy_scb_i2c.h ****     /** Operation completed successfully */
 410:Generated_Source\PSoC6\pdl\drivers/peripheral/scb/cy_scb_i2c.h ****     CY_SCB_I2C_SUCCESS = 0U,
 411:Generated_Source\PSoC6\pdl\drivers/peripheral/scb/cy_scb_i2c.h **** 
 412:Generated_Source\PSoC6\pdl\drivers/peripheral/scb/cy_scb_i2c.h ****     /** One or more of input parameters are invalid */
 413:Generated_Source\PSoC6\pdl\drivers/peripheral/scb/cy_scb_i2c.h ****     CY_SCB_I2C_BAD_PARAM = (CY_SCB_ID | CY_PDL_STATUS_ERROR | CY_SCB_I2C_ID | 1U),
 414:Generated_Source\PSoC6\pdl\drivers/peripheral/scb/cy_scb_i2c.h **** 
 415:Generated_Source\PSoC6\pdl\drivers/peripheral/scb/cy_scb_i2c.h ****     /**
 416:Generated_Source\PSoC6\pdl\drivers/peripheral/scb/cy_scb_i2c.h ****     * The master is not ready to start a new transaction.
 417:Generated_Source\PSoC6\pdl\drivers/peripheral/scb/cy_scb_i2c.h ****     * Either the master is still processing a previous transaction or in the
 418:Generated_Source\PSoC6\pdl\drivers/peripheral/scb/cy_scb_i2c.h ****     * master-slave mode, the slave operation is in progress. Call this function
 419:Generated_Source\PSoC6\pdl\drivers/peripheral/scb/cy_scb_i2c.h ****     * again after that operation is completed or aborted.
 420:Generated_Source\PSoC6\pdl\drivers/peripheral/scb/cy_scb_i2c.h ****     */
 421:Generated_Source\PSoC6\pdl\drivers/peripheral/scb/cy_scb_i2c.h ****     CY_SCB_I2C_MASTER_NOT_READY = (CY_SCB_ID | CY_PDL_STATUS_ERROR | CY_SCB_I2C_ID | 2U),
 422:Generated_Source\PSoC6\pdl\drivers/peripheral/scb/cy_scb_i2c.h **** 
 423:Generated_Source\PSoC6\pdl\drivers/peripheral/scb/cy_scb_i2c.h ****     /**
 424:Generated_Source\PSoC6\pdl\drivers/peripheral/scb/cy_scb_i2c.h ****     * The master operation timed out before completing. Applicable only for
 425:Generated_Source\PSoC6\pdl\drivers/peripheral/scb/cy_scb_i2c.h ****     * the \ref group_scb_i2c_master_low_level_functions functions.
 426:Generated_Source\PSoC6\pdl\drivers/peripheral/scb/cy_scb_i2c.h ****     */
 427:Generated_Source\PSoC6\pdl\drivers/peripheral/scb/cy_scb_i2c.h ****     CY_SCB_I2C_MASTER_MANUAL_TIMEOUT = (CY_SCB_ID | CY_PDL_STATUS_ERROR | CY_SCB_I2C_ID | 3U),
 428:Generated_Source\PSoC6\pdl\drivers/peripheral/scb/cy_scb_i2c.h **** 
 429:Generated_Source\PSoC6\pdl\drivers/peripheral/scb/cy_scb_i2c.h ****     /** The slave NACKed the address. Applicable only for the
 430:Generated_Source\PSoC6\pdl\drivers/peripheral/scb/cy_scb_i2c.h ****     * \ref group_scb_i2c_master_low_level_functions functions.
 431:Generated_Source\PSoC6\pdl\drivers/peripheral/scb/cy_scb_i2c.h ****     */
 432:Generated_Source\PSoC6\pdl\drivers/peripheral/scb/cy_scb_i2c.h ****     CY_SCB_I2C_MASTER_MANUAL_ADDR_NAK = (CY_SCB_ID | CY_PDL_STATUS_ERROR | CY_SCB_I2C_ID | 4U),
 433:Generated_Source\PSoC6\pdl\drivers/peripheral/scb/cy_scb_i2c.h **** 
 434:Generated_Source\PSoC6\pdl\drivers/peripheral/scb/cy_scb_i2c.h ****     /** The slave NACKed the data byte.  Applicable only for the
 435:Generated_Source\PSoC6\pdl\drivers/peripheral/scb/cy_scb_i2c.h ****     * \ref group_scb_i2c_master_low_level_functions.
 436:Generated_Source\PSoC6\pdl\drivers/peripheral/scb/cy_scb_i2c.h ****     */
 437:Generated_Source\PSoC6\pdl\drivers/peripheral/scb/cy_scb_i2c.h ****     CY_SCB_I2C_MASTER_MANUAL_NAK = (CY_SCB_ID | CY_PDL_STATUS_ERROR | CY_SCB_I2C_ID | 5U),
 438:Generated_Source\PSoC6\pdl\drivers/peripheral/scb/cy_scb_i2c.h **** 
 439:Generated_Source\PSoC6\pdl\drivers/peripheral/scb/cy_scb_i2c.h ****     /**
 440:Generated_Source\PSoC6\pdl\drivers/peripheral/scb/cy_scb_i2c.h ****     * The master lost arbitration, the transaction was aborted. Applicable only
 441:Generated_Source\PSoC6\pdl\drivers/peripheral/scb/cy_scb_i2c.h ****     * for the \ref group_scb_i2c_master_low_level_functions functions.
 442:Generated_Source\PSoC6\pdl\drivers/peripheral/scb/cy_scb_i2c.h ****     */
 443:Generated_Source\PSoC6\pdl\drivers/peripheral/scb/cy_scb_i2c.h ****     CY_SCB_I2C_MASTER_MANUAL_ARB_LOST = (CY_SCB_ID | CY_PDL_STATUS_ERROR | CY_SCB_I2C_ID | 6U),
 444:Generated_Source\PSoC6\pdl\drivers/peripheral/scb/cy_scb_i2c.h **** 
 445:Generated_Source\PSoC6\pdl\drivers/peripheral/scb/cy_scb_i2c.h ****     /**
 446:Generated_Source\PSoC6\pdl\drivers/peripheral/scb/cy_scb_i2c.h ****     * The master detected an erroneous start or stop, the transaction was
 447:Generated_Source\PSoC6\pdl\drivers/peripheral/scb/cy_scb_i2c.h ****     * aborted. Applicable only for the
 448:Generated_Source\PSoC6\pdl\drivers/peripheral/scb/cy_scb_i2c.h ****     * \ref group_scb_i2c_master_low_level_functions functions.
 449:Generated_Source\PSoC6\pdl\drivers/peripheral/scb/cy_scb_i2c.h ****     */
 450:Generated_Source\PSoC6\pdl\drivers/peripheral/scb/cy_scb_i2c.h ****     CY_SCB_I2C_MASTER_MANUAL_BUS_ERR = (CY_SCB_ID | CY_PDL_STATUS_ERROR | CY_SCB_I2C_ID | 7U),
 451:Generated_Source\PSoC6\pdl\drivers/peripheral/scb/cy_scb_i2c.h **** 
ARM GAS  C:\Users\salaz\AppData\Local\Temp\ccKm0KhK.s 			page 20


 452:Generated_Source\PSoC6\pdl\drivers/peripheral/scb/cy_scb_i2c.h ****     /**
 453:Generated_Source\PSoC6\pdl\drivers/peripheral/scb/cy_scb_i2c.h ****     * The master transaction was aborted and the slave transaction is on-going
 454:Generated_Source\PSoC6\pdl\drivers/peripheral/scb/cy_scb_i2c.h ****     * because the slave was addressed before the master generated a start.
 455:Generated_Source\PSoC6\pdl\drivers/peripheral/scb/cy_scb_i2c.h ****     * Applicable only for the \ref group_scb_i2c_master_low_level_functions
 456:Generated_Source\PSoC6\pdl\drivers/peripheral/scb/cy_scb_i2c.h ****     * functions.
 457:Generated_Source\PSoC6\pdl\drivers/peripheral/scb/cy_scb_i2c.h ****     */
 458:Generated_Source\PSoC6\pdl\drivers/peripheral/scb/cy_scb_i2c.h ****     CY_SCB_I2C_MASTER_MANUAL_ABORT_START = (CY_SCB_ID | CY_PDL_STATUS_ERROR | CY_SCB_I2C_ID | 8U)
 459:Generated_Source\PSoC6\pdl\drivers/peripheral/scb/cy_scb_i2c.h **** } cy_en_scb_i2c_status_t;
 460:Generated_Source\PSoC6\pdl\drivers/peripheral/scb/cy_scb_i2c.h **** 
 461:Generated_Source\PSoC6\pdl\drivers/peripheral/scb/cy_scb_i2c.h **** /** I2C Operation Modes */
 462:Generated_Source\PSoC6\pdl\drivers/peripheral/scb/cy_scb_i2c.h **** typedef enum
 463:Generated_Source\PSoC6\pdl\drivers/peripheral/scb/cy_scb_i2c.h **** {
 464:Generated_Source\PSoC6\pdl\drivers/peripheral/scb/cy_scb_i2c.h ****     CY_SCB_I2C_SLAVE        = 1U,    /**< Configures SCB for I2C Slave operation */
 465:Generated_Source\PSoC6\pdl\drivers/peripheral/scb/cy_scb_i2c.h ****     CY_SCB_I2C_MASTER       = 2U,    /**< Configures SCB for I2C Master operation */
 466:Generated_Source\PSoC6\pdl\drivers/peripheral/scb/cy_scb_i2c.h ****     CY_SCB_I2C_MASTER_SLAVE = 3U,    /**< Configures SCB for I2C Master-Slave operation */
 467:Generated_Source\PSoC6\pdl\drivers/peripheral/scb/cy_scb_i2c.h **** } cy_en_scb_i2c_mode_t;
 468:Generated_Source\PSoC6\pdl\drivers/peripheral/scb/cy_scb_i2c.h **** 
 469:Generated_Source\PSoC6\pdl\drivers/peripheral/scb/cy_scb_i2c.h **** /** I2C Transaction Direction */
 470:Generated_Source\PSoC6\pdl\drivers/peripheral/scb/cy_scb_i2c.h **** typedef enum
 471:Generated_Source\PSoC6\pdl\drivers/peripheral/scb/cy_scb_i2c.h **** {
 472:Generated_Source\PSoC6\pdl\drivers/peripheral/scb/cy_scb_i2c.h ****     CY_SCB_I2C_WRITE_XFER = 0U,  /**< Current transaction is Write */
 473:Generated_Source\PSoC6\pdl\drivers/peripheral/scb/cy_scb_i2c.h ****     CY_SCB_I2C_READ_XFER  = 1U,  /**< Current transaction is Read */
 474:Generated_Source\PSoC6\pdl\drivers/peripheral/scb/cy_scb_i2c.h **** } cy_en_scb_i2c_direction_t;
 475:Generated_Source\PSoC6\pdl\drivers/peripheral/scb/cy_scb_i2c.h **** 
 476:Generated_Source\PSoC6\pdl\drivers/peripheral/scb/cy_scb_i2c.h **** /** I2C Command ACK / NAK */
 477:Generated_Source\PSoC6\pdl\drivers/peripheral/scb/cy_scb_i2c.h **** typedef enum
 478:Generated_Source\PSoC6\pdl\drivers/peripheral/scb/cy_scb_i2c.h **** {
 479:Generated_Source\PSoC6\pdl\drivers/peripheral/scb/cy_scb_i2c.h ****     CY_SCB_I2C_ACK,     /**< Send ACK to current byte */
 480:Generated_Source\PSoC6\pdl\drivers/peripheral/scb/cy_scb_i2c.h ****     CY_SCB_I2C_NAK,     /**< Send NAK to current byte */
 481:Generated_Source\PSoC6\pdl\drivers/peripheral/scb/cy_scb_i2c.h **** } cy_en_scb_i2c_command_t;
 482:Generated_Source\PSoC6\pdl\drivers/peripheral/scb/cy_scb_i2c.h **** /** \} group_scb_i2c_enums */
 483:Generated_Source\PSoC6\pdl\drivers/peripheral/scb/cy_scb_i2c.h **** 
 484:Generated_Source\PSoC6\pdl\drivers/peripheral/scb/cy_scb_i2c.h **** 
 485:Generated_Source\PSoC6\pdl\drivers/peripheral/scb/cy_scb_i2c.h **** /***************************************
 486:Generated_Source\PSoC6\pdl\drivers/peripheral/scb/cy_scb_i2c.h **** *       Type Definitions
 487:Generated_Source\PSoC6\pdl\drivers/peripheral/scb/cy_scb_i2c.h **** ***************************************/
 488:Generated_Source\PSoC6\pdl\drivers/peripheral/scb/cy_scb_i2c.h **** 
 489:Generated_Source\PSoC6\pdl\drivers/peripheral/scb/cy_scb_i2c.h **** /**
 490:Generated_Source\PSoC6\pdl\drivers/peripheral/scb/cy_scb_i2c.h **** * \addtogroup group_scb_i2c_data_structures
 491:Generated_Source\PSoC6\pdl\drivers/peripheral/scb/cy_scb_i2c.h **** * \{
 492:Generated_Source\PSoC6\pdl\drivers/peripheral/scb/cy_scb_i2c.h **** */
 493:Generated_Source\PSoC6\pdl\drivers/peripheral/scb/cy_scb_i2c.h **** 
 494:Generated_Source\PSoC6\pdl\drivers/peripheral/scb/cy_scb_i2c.h **** /**
 495:Generated_Source\PSoC6\pdl\drivers/peripheral/scb/cy_scb_i2c.h **** * Provides the typedef for the callback function called in the
 496:Generated_Source\PSoC6\pdl\drivers/peripheral/scb/cy_scb_i2c.h **** * \ref Cy_SCB_I2C_Interrupt to notify the user about occurrences of
 497:Generated_Source\PSoC6\pdl\drivers/peripheral/scb/cy_scb_i2c.h **** * \ref group_scb_i2c_macros_callback_events.
 498:Generated_Source\PSoC6\pdl\drivers/peripheral/scb/cy_scb_i2c.h **** */
 499:Generated_Source\PSoC6\pdl\drivers/peripheral/scb/cy_scb_i2c.h **** typedef void (* cy_cb_scb_i2c_handle_events_t)(uint32_t event);
 500:Generated_Source\PSoC6\pdl\drivers/peripheral/scb/cy_scb_i2c.h **** 
 501:Generated_Source\PSoC6\pdl\drivers/peripheral/scb/cy_scb_i2c.h **** /**
 502:Generated_Source\PSoC6\pdl\drivers/peripheral/scb/cy_scb_i2c.h **** * Provides the typedef for the callback function called in the
 503:Generated_Source\PSoC6\pdl\drivers/peripheral/scb/cy_scb_i2c.h **** * \ref Cy_SCB_I2C_Interrupt to notify the user about occurrences of
 504:Generated_Source\PSoC6\pdl\drivers/peripheral/scb/cy_scb_i2c.h **** * \ref group_scb_i2c_macros_addr_callback_events.
 505:Generated_Source\PSoC6\pdl\drivers/peripheral/scb/cy_scb_i2c.h **** * This callback must return a decision to ACK (continue transaction) or
 506:Generated_Source\PSoC6\pdl\drivers/peripheral/scb/cy_scb_i2c.h **** * NAK (end transaction) the received address.
 507:Generated_Source\PSoC6\pdl\drivers/peripheral/scb/cy_scb_i2c.h **** * Note if the slave is configured to accept an address in RX FIFO, it must read
 508:Generated_Source\PSoC6\pdl\drivers/peripheral/scb/cy_scb_i2c.h **** * from it using the \ref Cy_SCB_ReadRxFifo function.
ARM GAS  C:\Users\salaz\AppData\Local\Temp\ccKm0KhK.s 			page 21


 509:Generated_Source\PSoC6\pdl\drivers/peripheral/scb/cy_scb_i2c.h **** */
 510:Generated_Source\PSoC6\pdl\drivers/peripheral/scb/cy_scb_i2c.h **** typedef cy_en_scb_i2c_command_t (* cy_cb_scb_i2c_handle_addr_t)(uint32_t event);
 511:Generated_Source\PSoC6\pdl\drivers/peripheral/scb/cy_scb_i2c.h **** 
 512:Generated_Source\PSoC6\pdl\drivers/peripheral/scb/cy_scb_i2c.h **** /** I2C configuration structure */
 513:Generated_Source\PSoC6\pdl\drivers/peripheral/scb/cy_scb_i2c.h **** typedef struct cy_stc_scb_i2c_config
 514:Generated_Source\PSoC6\pdl\drivers/peripheral/scb/cy_scb_i2c.h **** {
 515:Generated_Source\PSoC6\pdl\drivers/peripheral/scb/cy_scb_i2c.h ****     /** Specifies the mode of operation */
 516:Generated_Source\PSoC6\pdl\drivers/peripheral/scb/cy_scb_i2c.h ****     cy_en_scb_i2c_mode_t i2cMode;
 517:Generated_Source\PSoC6\pdl\drivers/peripheral/scb/cy_scb_i2c.h **** 
 518:Generated_Source\PSoC6\pdl\drivers/peripheral/scb/cy_scb_i2c.h ****     /**
 519:Generated_Source\PSoC6\pdl\drivers/peripheral/scb/cy_scb_i2c.h ****     * The SCB provides an RX FIFO in hardware (consult the selected device
 520:Generated_Source\PSoC6\pdl\drivers/peripheral/scb/cy_scb_i2c.h ****     * datasheet to get the actual FIFO size). The useRxFifo field defines
 521:Generated_Source\PSoC6\pdl\drivers/peripheral/scb/cy_scb_i2c.h ****     * how the driver firmware reads data from the RX FIFO:
 522:Generated_Source\PSoC6\pdl\drivers/peripheral/scb/cy_scb_i2c.h ****     * * If this option is enabled, the hardware is configured to automatically
 523:Generated_Source\PSoC6\pdl\drivers/peripheral/scb/cy_scb_i2c.h ****     *   ACK incoming data, and interrupt is enabled to take data out of the RX
 524:Generated_Source\PSoC6\pdl\drivers/peripheral/scb/cy_scb_i2c.h ****     *   FIFO when it has some number of bytes (typically, when it is half full).
 525:Generated_Source\PSoC6\pdl\drivers/peripheral/scb/cy_scb_i2c.h ****     * * If this option is disabled, the interrupt is enabled to take data out of
 526:Generated_Source\PSoC6\pdl\drivers/peripheral/scb/cy_scb_i2c.h ****     *   the RX FIFO when a byte is available. Also, hardware does not
 527:Generated_Source\PSoC6\pdl\drivers/peripheral/scb/cy_scb_i2c.h ****     *   automatically ACK the data. Firmware must tell the hardware to ACK
 528:Generated_Source\PSoC6\pdl\drivers/peripheral/scb/cy_scb_i2c.h ****     *   the byte (so each byte requires interrupt processing).
 529:Generated_Source\PSoC6\pdl\drivers/peripheral/scb/cy_scb_i2c.h ****     * \n <b>Typically, this option should be enabled</b> to configure hardware to
 530:Generated_Source\PSoC6\pdl\drivers/peripheral/scb/cy_scb_i2c.h ****     * automatically ACK incoming data. Otherwise hardware might not get the command
 531:Generated_Source\PSoC6\pdl\drivers/peripheral/scb/cy_scb_i2c.h ****     * to ACK or NACK a byte fast enough, and clock stretching is applied
 532:Generated_Source\PSoC6\pdl\drivers/peripheral/scb/cy_scb_i2c.h ****     * (the transaction is delayed) until the command is set. When this option is
 533:Generated_Source\PSoC6\pdl\drivers/peripheral/scb/cy_scb_i2c.h ****     * enabled, the number of interrupts required to process the transaction
 534:Generated_Source\PSoC6\pdl\drivers/peripheral/scb/cy_scb_i2c.h ****     * is significantly reduced because several bytes are handled at once.
 535:Generated_Source\PSoC6\pdl\drivers/peripheral/scb/cy_scb_i2c.h ****     * \n <b>However, there is a side effect:</b>
 536:Generated_Source\PSoC6\pdl\drivers/peripheral/scb/cy_scb_i2c.h ****     * * For master mode, the drawback is that the master may receive more
 537:Generated_Source\PSoC6\pdl\drivers/peripheral/scb/cy_scb_i2c.h ****     *   data than desired due to the interrupt latency. An interrupt fires
 538:Generated_Source\PSoC6\pdl\drivers/peripheral/scb/cy_scb_i2c.h ****     *   when the second-to-last byte has been received. This interrupt tells
 539:Generated_Source\PSoC6\pdl\drivers/peripheral/scb/cy_scb_i2c.h ****     *   the hardware to stop receiving data. If the latency of this interrupt
 540:Generated_Source\PSoC6\pdl\drivers/peripheral/scb/cy_scb_i2c.h ****     *   is longer than one transaction of the byte on the I2C bus, then the
 541:Generated_Source\PSoC6\pdl\drivers/peripheral/scb/cy_scb_i2c.h ****     *   hardware automatically ACKs the following bytes until the interrupt
 542:Generated_Source\PSoC6\pdl\drivers/peripheral/scb/cy_scb_i2c.h ****     *   is serviced or the RX FIFO becomes full.
 543:Generated_Source\PSoC6\pdl\drivers/peripheral/scb/cy_scb_i2c.h ****     * * For slave mode, the drawback is that the slave only NACKs
 544:Generated_Source\PSoC6\pdl\drivers/peripheral/scb/cy_scb_i2c.h ****     *   the master when the RX FIFO becomes full, NOT when the slave write
 545:Generated_Source\PSoC6\pdl\drivers/peripheral/scb/cy_scb_i2c.h ****     *   firmware buffer becomes full.
 546:Generated_Source\PSoC6\pdl\drivers/peripheral/scb/cy_scb_i2c.h ****     * \n In either master or slave mode, all received extra bytes are dropped.
 547:Generated_Source\PSoC6\pdl\drivers/peripheral/scb/cy_scb_i2c.h ****     * \note The useRxFifo option is not available if acceptAddrInFifo is true.
 548:Generated_Source\PSoC6\pdl\drivers/peripheral/scb/cy_scb_i2c.h ****     */
 549:Generated_Source\PSoC6\pdl\drivers/peripheral/scb/cy_scb_i2c.h ****     bool useRxFifo;
 550:Generated_Source\PSoC6\pdl\drivers/peripheral/scb/cy_scb_i2c.h **** 
 551:Generated_Source\PSoC6\pdl\drivers/peripheral/scb/cy_scb_i2c.h ****     /**
 552:Generated_Source\PSoC6\pdl\drivers/peripheral/scb/cy_scb_i2c.h ****     * The SCB provides a TX FIFO in hardware (consult the selected device
 553:Generated_Source\PSoC6\pdl\drivers/peripheral/scb/cy_scb_i2c.h ****     * datasheet to get the actual FIFO size). The useTxFifo option defines how the
 554:Generated_Source\PSoC6\pdl\drivers/peripheral/scb/cy_scb_i2c.h ****     * driver firmware loads data into the TX FIFO:
 555:Generated_Source\PSoC6\pdl\drivers/peripheral/scb/cy_scb_i2c.h ****     * * If this option is enabled, the TX FIFO is fully loaded with data and the
 556:Generated_Source\PSoC6\pdl\drivers/peripheral/scb/cy_scb_i2c.h ****     *   interrupt is enabled to keep the TX FIFO loaded until the end of the transaction.
 557:Generated_Source\PSoC6\pdl\drivers/peripheral/scb/cy_scb_i2c.h ****     * * If this option is disabled, a single byte is loaded into the TX FIFO and
 558:Generated_Source\PSoC6\pdl\drivers/peripheral/scb/cy_scb_i2c.h ****     *   the interrupt enabled to load the next byte when the TX FIFO becomes empty
 559:Generated_Source\PSoC6\pdl\drivers/peripheral/scb/cy_scb_i2c.h ****     *   (so each byte requires interrupt processing).
 560:Generated_Source\PSoC6\pdl\drivers/peripheral/scb/cy_scb_i2c.h ****     * \n <b>Typically, this option should be enabled</b> to keep the TX FIFO loaded with
 561:Generated_Source\PSoC6\pdl\drivers/peripheral/scb/cy_scb_i2c.h ****     * data and reduce the probability of clock stretching. When there is no data
 562:Generated_Source\PSoC6\pdl\drivers/peripheral/scb/cy_scb_i2c.h ****     * to transaction, clock stretching is applied (the transaction is delayed) until
 563:Generated_Source\PSoC6\pdl\drivers/peripheral/scb/cy_scb_i2c.h ****     * the data is loaded. When this option is enabled, the number of interrupts required
 564:Generated_Source\PSoC6\pdl\drivers/peripheral/scb/cy_scb_i2c.h ****     * to process the transaction is significantly reduced because several
 565:Generated_Source\PSoC6\pdl\drivers/peripheral/scb/cy_scb_i2c.h ****     * bytes are handled at once.
ARM GAS  C:\Users\salaz\AppData\Local\Temp\ccKm0KhK.s 			page 22


 566:Generated_Source\PSoC6\pdl\drivers/peripheral/scb/cy_scb_i2c.h ****     * \n <b>The drawback of enabling useTxFifo</b> is that the abort operation clears
 567:Generated_Source\PSoC6\pdl\drivers/peripheral/scb/cy_scb_i2c.h ****     * the TX FIFO. The TX FIFO clear operation also clears the shift
 568:Generated_Source\PSoC6\pdl\drivers/peripheral/scb/cy_scb_i2c.h ****     * register. As a result the shifter may be cleared in the middle of a byte
 569:Generated_Source\PSoC6\pdl\drivers/peripheral/scb/cy_scb_i2c.h ****     * transaction, corrupting it. The remaining bits to transaction within the
 570:Generated_Source\PSoC6\pdl\drivers/peripheral/scb/cy_scb_i2c.h ****     * corrupted byte are complemented with 1s. If this is an issue,
 571:Generated_Source\PSoC6\pdl\drivers/peripheral/scb/cy_scb_i2c.h ****     * then do not enable this option.
 572:Generated_Source\PSoC6\pdl\drivers/peripheral/scb/cy_scb_i2c.h ****     */
 573:Generated_Source\PSoC6\pdl\drivers/peripheral/scb/cy_scb_i2c.h ****     bool useTxFifo;
 574:Generated_Source\PSoC6\pdl\drivers/peripheral/scb/cy_scb_i2c.h **** 
 575:Generated_Source\PSoC6\pdl\drivers/peripheral/scb/cy_scb_i2c.h ****     /**
 576:Generated_Source\PSoC6\pdl\drivers/peripheral/scb/cy_scb_i2c.h ****     * The 7-bit right justified slave address, used only for the slave mode
 577:Generated_Source\PSoC6\pdl\drivers/peripheral/scb/cy_scb_i2c.h ****     */
 578:Generated_Source\PSoC6\pdl\drivers/peripheral/scb/cy_scb_i2c.h ****     uint8_t slaveAddress;
 579:Generated_Source\PSoC6\pdl\drivers/peripheral/scb/cy_scb_i2c.h **** 
 580:Generated_Source\PSoC6\pdl\drivers/peripheral/scb/cy_scb_i2c.h ****     /**
 581:Generated_Source\PSoC6\pdl\drivers/peripheral/scb/cy_scb_i2c.h ****     * The slave address mask, bit 0, must always be 0. It is used only for the
 582:Generated_Source\PSoC6\pdl\drivers/peripheral/scb/cy_scb_i2c.h ****     * slave mode
 583:Generated_Source\PSoC6\pdl\drivers/peripheral/scb/cy_scb_i2c.h ****     */
 584:Generated_Source\PSoC6\pdl\drivers/peripheral/scb/cy_scb_i2c.h ****     uint8_t slaveAddressMask;
 585:Generated_Source\PSoC6\pdl\drivers/peripheral/scb/cy_scb_i2c.h **** 
 586:Generated_Source\PSoC6\pdl\drivers/peripheral/scb/cy_scb_i2c.h ****     /**
 587:Generated_Source\PSoC6\pdl\drivers/peripheral/scb/cy_scb_i2c.h ****     * True - the slave address is accepted in the RX FIFO, false - the slave
 588:Generated_Source\PSoC6\pdl\drivers/peripheral/scb/cy_scb_i2c.h ****     * addresses are not accepted in the RX FIFO
 589:Generated_Source\PSoC6\pdl\drivers/peripheral/scb/cy_scb_i2c.h ****     */
 590:Generated_Source\PSoC6\pdl\drivers/peripheral/scb/cy_scb_i2c.h ****     bool acceptAddrInFifo;
 591:Generated_Source\PSoC6\pdl\drivers/peripheral/scb/cy_scb_i2c.h **** 
 592:Generated_Source\PSoC6\pdl\drivers/peripheral/scb/cy_scb_i2c.h ****     /**
 593:Generated_Source\PSoC6\pdl\drivers/peripheral/scb/cy_scb_i2c.h ****     * True - accept the general call address; false - ignore the general
 594:Generated_Source\PSoC6\pdl\drivers/peripheral/scb/cy_scb_i2c.h ****     * call address.
 595:Generated_Source\PSoC6\pdl\drivers/peripheral/scb/cy_scb_i2c.h ****     */
 596:Generated_Source\PSoC6\pdl\drivers/peripheral/scb/cy_scb_i2c.h ****     bool ackGeneralAddr;
 597:Generated_Source\PSoC6\pdl\drivers/peripheral/scb/cy_scb_i2c.h **** 
 598:Generated_Source\PSoC6\pdl\drivers/peripheral/scb/cy_scb_i2c.h ****     /**
 599:Generated_Source\PSoC6\pdl\drivers/peripheral/scb/cy_scb_i2c.h ****     * When set, the slave will wake the device from Deep Sleep on an address
 600:Generated_Source\PSoC6\pdl\drivers/peripheral/scb/cy_scb_i2c.h ****     * match (the device datasheet must be consulted to determine which SCBs
 601:Generated_Source\PSoC6\pdl\drivers/peripheral/scb/cy_scb_i2c.h ****     * support this mode)
 602:Generated_Source\PSoC6\pdl\drivers/peripheral/scb/cy_scb_i2c.h ****     */
 603:Generated_Source\PSoC6\pdl\drivers/peripheral/scb/cy_scb_i2c.h ****     bool enableWakeFromSleep;
 604:Generated_Source\PSoC6\pdl\drivers/peripheral/scb/cy_scb_i2c.h **** } cy_stc_scb_i2c_config_t;
 605:Generated_Source\PSoC6\pdl\drivers/peripheral/scb/cy_scb_i2c.h **** 
 606:Generated_Source\PSoC6\pdl\drivers/peripheral/scb/cy_scb_i2c.h **** /** I2C context structure.
 607:Generated_Source\PSoC6\pdl\drivers/peripheral/scb/cy_scb_i2c.h **** * All fields for the context structure are internal. Firmware never reads or
 608:Generated_Source\PSoC6\pdl\drivers/peripheral/scb/cy_scb_i2c.h **** * writes these values. Firmware allocates the structure and provides the
 609:Generated_Source\PSoC6\pdl\drivers/peripheral/scb/cy_scb_i2c.h **** * address of the structure to the driver in function calls. Firmware must
 610:Generated_Source\PSoC6\pdl\drivers/peripheral/scb/cy_scb_i2c.h **** * ensure that the defined instance of this structure remains in scope
 611:Generated_Source\PSoC6\pdl\drivers/peripheral/scb/cy_scb_i2c.h **** * while the drive is in use.
 612:Generated_Source\PSoC6\pdl\drivers/peripheral/scb/cy_scb_i2c.h **** */
 613:Generated_Source\PSoC6\pdl\drivers/peripheral/scb/cy_scb_i2c.h **** typedef struct cy_stc_scb_i2c_context
 614:Generated_Source\PSoC6\pdl\drivers/peripheral/scb/cy_scb_i2c.h **** {
 615:Generated_Source\PSoC6\pdl\drivers/peripheral/scb/cy_scb_i2c.h ****     /** \cond INTERNAL */
 616:Generated_Source\PSoC6\pdl\drivers/peripheral/scb/cy_scb_i2c.h ****     bool useRxFifo;             /**< Stores RX FIFO configuration */
 617:Generated_Source\PSoC6\pdl\drivers/peripheral/scb/cy_scb_i2c.h ****     bool useTxFifo;             /**< Stores TX FIFO configuration */
 618:Generated_Source\PSoC6\pdl\drivers/peripheral/scb/cy_scb_i2c.h **** 
 619:Generated_Source\PSoC6\pdl\drivers/peripheral/scb/cy_scb_i2c.h ****     volatile uint32_t state;    /**< The driver state */
 620:Generated_Source\PSoC6\pdl\drivers/peripheral/scb/cy_scb_i2c.h **** 
 621:Generated_Source\PSoC6\pdl\drivers/peripheral/scb/cy_scb_i2c.h ****     volatile uint32_t masterStatus; /**< The master status */
 622:Generated_Source\PSoC6\pdl\drivers/peripheral/scb/cy_scb_i2c.h ****     bool     masterPause;           /**< Stores how the master ends the transaction */
ARM GAS  C:\Users\salaz\AppData\Local\Temp\ccKm0KhK.s 			page 23


 623:Generated_Source\PSoC6\pdl\drivers/peripheral/scb/cy_scb_i2c.h ****     bool     masterRdDir;           /**< The direction of the master transaction */
 624:Generated_Source\PSoC6\pdl\drivers/peripheral/scb/cy_scb_i2c.h **** 
 625:Generated_Source\PSoC6\pdl\drivers/peripheral/scb/cy_scb_i2c.h ****     uint8_t  *masterBuffer;     /**< The pointer to the master buffer (either for a transmit or a r
 626:Generated_Source\PSoC6\pdl\drivers/peripheral/scb/cy_scb_i2c.h ****     uint32_t  masterBufferSize;         /**< The current master buffer size */
 627:Generated_Source\PSoC6\pdl\drivers/peripheral/scb/cy_scb_i2c.h ****     volatile uint32_t masterBufferIdx;  /**< The current location in the master buffer */
 628:Generated_Source\PSoC6\pdl\drivers/peripheral/scb/cy_scb_i2c.h ****     volatile uint32_t masterNumBytes;   /**< The number of bytes to send or receive */
 629:Generated_Source\PSoC6\pdl\drivers/peripheral/scb/cy_scb_i2c.h **** 
 630:Generated_Source\PSoC6\pdl\drivers/peripheral/scb/cy_scb_i2c.h ****     volatile uint32_t slaveStatus;       /**< The slave status */
 631:Generated_Source\PSoC6\pdl\drivers/peripheral/scb/cy_scb_i2c.h ****     volatile bool     slaveRdBufEmpty;   /**< Tracks slave Read buffer empty event */
 632:Generated_Source\PSoC6\pdl\drivers/peripheral/scb/cy_scb_i2c.h **** 
 633:Generated_Source\PSoC6\pdl\drivers/peripheral/scb/cy_scb_i2c.h ****     uint8_t  *slaveTxBuffer;             /**< The pointer to the slave transmit buffer (a master re
 634:Generated_Source\PSoC6\pdl\drivers/peripheral/scb/cy_scb_i2c.h ****     uint32_t  slaveTxBufferSize;         /**< The current slave transmit buffer size */
 635:Generated_Source\PSoC6\pdl\drivers/peripheral/scb/cy_scb_i2c.h ****     volatile uint32_t slaveTxBufferIdx;  /**< The current location in the slave buffer */
 636:Generated_Source\PSoC6\pdl\drivers/peripheral/scb/cy_scb_i2c.h ****     volatile uint32_t slaveTxBufferCnt;  /**< The number of transferred bytes */
 637:Generated_Source\PSoC6\pdl\drivers/peripheral/scb/cy_scb_i2c.h **** 
 638:Generated_Source\PSoC6\pdl\drivers/peripheral/scb/cy_scb_i2c.h ****     uint8_t  *slaveRxBuffer;             /**< The pointer to the slave receive buffer (a master wri
 639:Generated_Source\PSoC6\pdl\drivers/peripheral/scb/cy_scb_i2c.h ****     uint32_t  slaveRxBufferSize;         /**< The current slave receive buffer size */
 640:Generated_Source\PSoC6\pdl\drivers/peripheral/scb/cy_scb_i2c.h ****     volatile uint32_t slaveRxBufferIdx;  /**< The current location in the slave buffer */
 641:Generated_Source\PSoC6\pdl\drivers/peripheral/scb/cy_scb_i2c.h **** 
 642:Generated_Source\PSoC6\pdl\drivers/peripheral/scb/cy_scb_i2c.h ****     /**
 643:Generated_Source\PSoC6\pdl\drivers/peripheral/scb/cy_scb_i2c.h ****     * The pointer to an event callback that is called when any of
 644:Generated_Source\PSoC6\pdl\drivers/peripheral/scb/cy_scb_i2c.h ****     * \ref group_scb_i2c_macros_callback_events occurs
 645:Generated_Source\PSoC6\pdl\drivers/peripheral/scb/cy_scb_i2c.h ****     */
 646:Generated_Source\PSoC6\pdl\drivers/peripheral/scb/cy_scb_i2c.h ****     cy_cb_scb_i2c_handle_events_t cbEvents;
 647:Generated_Source\PSoC6\pdl\drivers/peripheral/scb/cy_scb_i2c.h **** 
 648:Generated_Source\PSoC6\pdl\drivers/peripheral/scb/cy_scb_i2c.h ****     /**
 649:Generated_Source\PSoC6\pdl\drivers/peripheral/scb/cy_scb_i2c.h ****     * The pointer to an address callback that is called when any of
 650:Generated_Source\PSoC6\pdl\drivers/peripheral/scb/cy_scb_i2c.h ****     * \ref group_scb_i2c_macros_addr_callback_events occurs (applicable only
 651:Generated_Source\PSoC6\pdl\drivers/peripheral/scb/cy_scb_i2c.h ****     * for the slave)
 652:Generated_Source\PSoC6\pdl\drivers/peripheral/scb/cy_scb_i2c.h ****     */
 653:Generated_Source\PSoC6\pdl\drivers/peripheral/scb/cy_scb_i2c.h ****     cy_cb_scb_i2c_handle_addr_t   cbAddr;
 654:Generated_Source\PSoC6\pdl\drivers/peripheral/scb/cy_scb_i2c.h **** 
 655:Generated_Source\PSoC6\pdl\drivers/peripheral/scb/cy_scb_i2c.h ****     /** \endcond */
 656:Generated_Source\PSoC6\pdl\drivers/peripheral/scb/cy_scb_i2c.h **** } cy_stc_scb_i2c_context_t;
 657:Generated_Source\PSoC6\pdl\drivers/peripheral/scb/cy_scb_i2c.h **** 
 658:Generated_Source\PSoC6\pdl\drivers/peripheral/scb/cy_scb_i2c.h **** /** The I2C Master transfer structure */
 659:Generated_Source\PSoC6\pdl\drivers/peripheral/scb/cy_scb_i2c.h **** typedef struct cy_stc_scb_i2c_master_xfer_config
 660:Generated_Source\PSoC6\pdl\drivers/peripheral/scb/cy_scb_i2c.h **** {
 661:Generated_Source\PSoC6\pdl\drivers/peripheral/scb/cy_scb_i2c.h ****     /** The 7-bit right justified slave address to communicate with */
 662:Generated_Source\PSoC6\pdl\drivers/peripheral/scb/cy_scb_i2c.h ****     uint8_t  slaveAddress;
 663:Generated_Source\PSoC6\pdl\drivers/peripheral/scb/cy_scb_i2c.h **** 
 664:Generated_Source\PSoC6\pdl\drivers/peripheral/scb/cy_scb_i2c.h ****     /**
 665:Generated_Source\PSoC6\pdl\drivers/peripheral/scb/cy_scb_i2c.h ****     * The pointer to the buffer for data to read from the slave or with
 666:Generated_Source\PSoC6\pdl\drivers/peripheral/scb/cy_scb_i2c.h ****     * data to write into the slave
 667:Generated_Source\PSoC6\pdl\drivers/peripheral/scb/cy_scb_i2c.h ****     */
 668:Generated_Source\PSoC6\pdl\drivers/peripheral/scb/cy_scb_i2c.h ****     uint8_t  *buffer;
 669:Generated_Source\PSoC6\pdl\drivers/peripheral/scb/cy_scb_i2c.h **** 
 670:Generated_Source\PSoC6\pdl\drivers/peripheral/scb/cy_scb_i2c.h ****     /** The size of the buffer */
 671:Generated_Source\PSoC6\pdl\drivers/peripheral/scb/cy_scb_i2c.h ****     uint32_t bufferSize;
 672:Generated_Source\PSoC6\pdl\drivers/peripheral/scb/cy_scb_i2c.h **** 
 673:Generated_Source\PSoC6\pdl\drivers/peripheral/scb/cy_scb_i2c.h ****     /**
 674:Generated_Source\PSoC6\pdl\drivers/peripheral/scb/cy_scb_i2c.h ****     * The transfer operation is pending - the stop condition will not
 675:Generated_Source\PSoC6\pdl\drivers/peripheral/scb/cy_scb_i2c.h ****     * be generated
 676:Generated_Source\PSoC6\pdl\drivers/peripheral/scb/cy_scb_i2c.h ****     */
 677:Generated_Source\PSoC6\pdl\drivers/peripheral/scb/cy_scb_i2c.h ****     bool     xferPending;
 678:Generated_Source\PSoC6\pdl\drivers/peripheral/scb/cy_scb_i2c.h **** } cy_stc_scb_i2c_master_xfer_config_t;
 679:Generated_Source\PSoC6\pdl\drivers/peripheral/scb/cy_scb_i2c.h **** /** \} group_scb_i2c_data_structures */
ARM GAS  C:\Users\salaz\AppData\Local\Temp\ccKm0KhK.s 			page 24


 680:Generated_Source\PSoC6\pdl\drivers/peripheral/scb/cy_scb_i2c.h **** 
 681:Generated_Source\PSoC6\pdl\drivers/peripheral/scb/cy_scb_i2c.h **** 
 682:Generated_Source\PSoC6\pdl\drivers/peripheral/scb/cy_scb_i2c.h **** /***************************************
 683:Generated_Source\PSoC6\pdl\drivers/peripheral/scb/cy_scb_i2c.h **** *        Function Prototypes
 684:Generated_Source\PSoC6\pdl\drivers/peripheral/scb/cy_scb_i2c.h **** ***************************************/
 685:Generated_Source\PSoC6\pdl\drivers/peripheral/scb/cy_scb_i2c.h **** 
 686:Generated_Source\PSoC6\pdl\drivers/peripheral/scb/cy_scb_i2c.h **** /**
 687:Generated_Source\PSoC6\pdl\drivers/peripheral/scb/cy_scb_i2c.h **** * \addtogroup group_scb_i2c_general_functions
 688:Generated_Source\PSoC6\pdl\drivers/peripheral/scb/cy_scb_i2c.h **** * \{
 689:Generated_Source\PSoC6\pdl\drivers/peripheral/scb/cy_scb_i2c.h **** */
 690:Generated_Source\PSoC6\pdl\drivers/peripheral/scb/cy_scb_i2c.h **** cy_en_scb_i2c_status_t Cy_SCB_I2C_Init(CySCB_Type *base, cy_stc_scb_i2c_config_t const *config,
 691:Generated_Source\PSoC6\pdl\drivers/peripheral/scb/cy_scb_i2c.h ****                                        cy_stc_scb_i2c_context_t *context);
 692:Generated_Source\PSoC6\pdl\drivers/peripheral/scb/cy_scb_i2c.h **** void Cy_SCB_I2C_DeInit(CySCB_Type *base);
 693:Generated_Source\PSoC6\pdl\drivers/peripheral/scb/cy_scb_i2c.h **** __STATIC_INLINE void Cy_SCB_I2C_Enable(CySCB_Type *base);
 694:Generated_Source\PSoC6\pdl\drivers/peripheral/scb/cy_scb_i2c.h **** void Cy_SCB_I2C_Disable(CySCB_Type *base, cy_stc_scb_i2c_context_t *context);
 695:Generated_Source\PSoC6\pdl\drivers/peripheral/scb/cy_scb_i2c.h **** 
 696:Generated_Source\PSoC6\pdl\drivers/peripheral/scb/cy_scb_i2c.h **** uint32_t Cy_SCB_I2C_SetDataRate(CySCB_Type *base, uint32_t dataRateHz, uint32_t scbClockHz);
 697:Generated_Source\PSoC6\pdl\drivers/peripheral/scb/cy_scb_i2c.h **** uint32_t Cy_SCB_I2C_GetDataRate(CySCB_Type const *base, uint32_t scbClockHz);
 698:Generated_Source\PSoC6\pdl\drivers/peripheral/scb/cy_scb_i2c.h **** 
 699:Generated_Source\PSoC6\pdl\drivers/peripheral/scb/cy_scb_i2c.h **** __STATIC_INLINE void     Cy_SCB_I2C_SlaveSetAddress(CySCB_Type *base, uint8_t addr);
 700:Generated_Source\PSoC6\pdl\drivers/peripheral/scb/cy_scb_i2c.h **** __STATIC_INLINE uint32_t Cy_SCB_I2C_SlaveGetAddress(CySCB_Type const *base);
 701:Generated_Source\PSoC6\pdl\drivers/peripheral/scb/cy_scb_i2c.h **** __STATIC_INLINE void     Cy_SCB_I2C_SlaveSetAddressMask(CySCB_Type *base, uint8_t addrMask);
 702:Generated_Source\PSoC6\pdl\drivers/peripheral/scb/cy_scb_i2c.h **** __STATIC_INLINE uint32_t Cy_SCB_I2C_SlaveGetAddressMask(CySCB_Type const *base);
 703:Generated_Source\PSoC6\pdl\drivers/peripheral/scb/cy_scb_i2c.h **** 
 704:Generated_Source\PSoC6\pdl\drivers/peripheral/scb/cy_scb_i2c.h **** __STATIC_INLINE void Cy_SCB_I2C_MasterSetLowPhaseDutyCycle (CySCB_Type *base, uint32_t clockCycles)
 705:Generated_Source\PSoC6\pdl\drivers/peripheral/scb/cy_scb_i2c.h **** __STATIC_INLINE void Cy_SCB_I2C_MasterSetHighPhaseDutyCycle(CySCB_Type *base, uint32_t clockCycles)
 706:Generated_Source\PSoC6\pdl\drivers/peripheral/scb/cy_scb_i2c.h **** 
 707:Generated_Source\PSoC6\pdl\drivers/peripheral/scb/cy_scb_i2c.h **** __STATIC_INLINE bool Cy_SCB_I2C_IsBusBusy(CySCB_Type const *base);
 708:Generated_Source\PSoC6\pdl\drivers/peripheral/scb/cy_scb_i2c.h **** /** \} group_scb_i2c_general_functions */
 709:Generated_Source\PSoC6\pdl\drivers/peripheral/scb/cy_scb_i2c.h **** 
 710:Generated_Source\PSoC6\pdl\drivers/peripheral/scb/cy_scb_i2c.h **** /**
 711:Generated_Source\PSoC6\pdl\drivers/peripheral/scb/cy_scb_i2c.h **** * \addtogroup group_scb_i2c_slave_functions
 712:Generated_Source\PSoC6\pdl\drivers/peripheral/scb/cy_scb_i2c.h **** * \{
 713:Generated_Source\PSoC6\pdl\drivers/peripheral/scb/cy_scb_i2c.h **** */
 714:Generated_Source\PSoC6\pdl\drivers/peripheral/scb/cy_scb_i2c.h **** void Cy_SCB_I2C_SlaveConfigReadBuf (CySCB_Type const *base, uint8_t *buffer, uint32_t size,
 715:Generated_Source\PSoC6\pdl\drivers/peripheral/scb/cy_scb_i2c.h ****                                     cy_stc_scb_i2c_context_t *context);
 716:Generated_Source\PSoC6\pdl\drivers/peripheral/scb/cy_scb_i2c.h **** void Cy_SCB_I2C_SlaveAbortRead     (CySCB_Type *base, cy_stc_scb_i2c_context_t *context);
 717:Generated_Source\PSoC6\pdl\drivers/peripheral/scb/cy_scb_i2c.h **** void Cy_SCB_I2C_SlaveConfigWriteBuf(CySCB_Type const *base, uint8_t *buffer, uint32_t size,
 718:Generated_Source\PSoC6\pdl\drivers/peripheral/scb/cy_scb_i2c.h ****                                     cy_stc_scb_i2c_context_t *context);
 719:Generated_Source\PSoC6\pdl\drivers/peripheral/scb/cy_scb_i2c.h **** void Cy_SCB_I2C_SlaveAbortWrite    (CySCB_Type *base, cy_stc_scb_i2c_context_t *context);
 720:Generated_Source\PSoC6\pdl\drivers/peripheral/scb/cy_scb_i2c.h **** 
 721:Generated_Source\PSoC6\pdl\drivers/peripheral/scb/cy_scb_i2c.h **** uint32_t Cy_SCB_I2C_SlaveGetStatus       (CySCB_Type const *base, cy_stc_scb_i2c_context_t const *c
 722:Generated_Source\PSoC6\pdl\drivers/peripheral/scb/cy_scb_i2c.h **** uint32_t Cy_SCB_I2C_SlaveClearReadStatus (CySCB_Type const *base, cy_stc_scb_i2c_context_t *context
 723:Generated_Source\PSoC6\pdl\drivers/peripheral/scb/cy_scb_i2c.h **** uint32_t Cy_SCB_I2C_SlaveClearWriteStatus(CySCB_Type const *base, cy_stc_scb_i2c_context_t *context
 724:Generated_Source\PSoC6\pdl\drivers/peripheral/scb/cy_scb_i2c.h **** 
 725:Generated_Source\PSoC6\pdl\drivers/peripheral/scb/cy_scb_i2c.h **** uint32_t Cy_SCB_I2C_SlaveGetReadTransferCount (CySCB_Type const *base, cy_stc_scb_i2c_context_t con
 726:Generated_Source\PSoC6\pdl\drivers/peripheral/scb/cy_scb_i2c.h **** uint32_t Cy_SCB_I2C_SlaveGetWriteTransferCount(CySCB_Type const *base, cy_stc_scb_i2c_context_t con
 727:Generated_Source\PSoC6\pdl\drivers/peripheral/scb/cy_scb_i2c.h **** /** \} group_scb_i2c_slave_functions */
 728:Generated_Source\PSoC6\pdl\drivers/peripheral/scb/cy_scb_i2c.h **** 
 729:Generated_Source\PSoC6\pdl\drivers/peripheral/scb/cy_scb_i2c.h **** /**
 730:Generated_Source\PSoC6\pdl\drivers/peripheral/scb/cy_scb_i2c.h **** * \addtogroup group_scb_i2c_master_high_level_functions
 731:Generated_Source\PSoC6\pdl\drivers/peripheral/scb/cy_scb_i2c.h **** * \{
 732:Generated_Source\PSoC6\pdl\drivers/peripheral/scb/cy_scb_i2c.h **** */
 733:Generated_Source\PSoC6\pdl\drivers/peripheral/scb/cy_scb_i2c.h **** cy_en_scb_i2c_status_t Cy_SCB_I2C_MasterWrite(CySCB_Type *base, cy_stc_scb_i2c_master_xfer_config_t
 734:Generated_Source\PSoC6\pdl\drivers/peripheral/scb/cy_scb_i2c.h ****                                               cy_stc_scb_i2c_context_t *context);
 735:Generated_Source\PSoC6\pdl\drivers/peripheral/scb/cy_scb_i2c.h **** void     Cy_SCB_I2C_MasterAbortWrite         (CySCB_Type *base, cy_stc_scb_i2c_context_t *context);
 736:Generated_Source\PSoC6\pdl\drivers/peripheral/scb/cy_scb_i2c.h **** cy_en_scb_i2c_status_t Cy_SCB_I2C_MasterRead (CySCB_Type *base, cy_stc_scb_i2c_master_xfer_config_t
ARM GAS  C:\Users\salaz\AppData\Local\Temp\ccKm0KhK.s 			page 25


 737:Generated_Source\PSoC6\pdl\drivers/peripheral/scb/cy_scb_i2c.h ****                                               cy_stc_scb_i2c_context_t *context);
 738:Generated_Source\PSoC6\pdl\drivers/peripheral/scb/cy_scb_i2c.h **** void     Cy_SCB_I2C_MasterAbortRead          (CySCB_Type *base, cy_stc_scb_i2c_context_t *context);
 739:Generated_Source\PSoC6\pdl\drivers/peripheral/scb/cy_scb_i2c.h **** uint32_t Cy_SCB_I2C_MasterGetStatus          (CySCB_Type const *base, cy_stc_scb_i2c_context_t cons
 740:Generated_Source\PSoC6\pdl\drivers/peripheral/scb/cy_scb_i2c.h **** uint32_t Cy_SCB_I2C_MasterGetTransferCount   (CySCB_Type const *base, cy_stc_scb_i2c_context_t cons
 741:Generated_Source\PSoC6\pdl\drivers/peripheral/scb/cy_scb_i2c.h **** /** \} group_scb_i2c_master_low_high_functions */
 742:Generated_Source\PSoC6\pdl\drivers/peripheral/scb/cy_scb_i2c.h **** 
 743:Generated_Source\PSoC6\pdl\drivers/peripheral/scb/cy_scb_i2c.h **** /**
 744:Generated_Source\PSoC6\pdl\drivers/peripheral/scb/cy_scb_i2c.h **** * \addtogroup group_scb_i2c_master_low_level_functions
 745:Generated_Source\PSoC6\pdl\drivers/peripheral/scb/cy_scb_i2c.h **** * \{
 746:Generated_Source\PSoC6\pdl\drivers/peripheral/scb/cy_scb_i2c.h **** */
 747:Generated_Source\PSoC6\pdl\drivers/peripheral/scb/cy_scb_i2c.h **** cy_en_scb_i2c_status_t Cy_SCB_I2C_MasterSendStart  (CySCB_Type *base, uint32_t address, cy_en_scb_i
 748:Generated_Source\PSoC6\pdl\drivers/peripheral/scb/cy_scb_i2c.h ****                                                     uint32_t timeoutMs, cy_stc_scb_i2c_context_t *c
 749:Generated_Source\PSoC6\pdl\drivers/peripheral/scb/cy_scb_i2c.h **** cy_en_scb_i2c_status_t Cy_SCB_I2C_MasterSendReStart(CySCB_Type *base, uint32_t address, cy_en_scb_i
 750:Generated_Source\PSoC6\pdl\drivers/peripheral/scb/cy_scb_i2c.h ****                                                     uint32_t timeoutMs, cy_stc_scb_i2c_context_t *c
 751:Generated_Source\PSoC6\pdl\drivers/peripheral/scb/cy_scb_i2c.h **** cy_en_scb_i2c_status_t Cy_SCB_I2C_MasterSendStop   (CySCB_Type *base,uint32_t timeoutMs, cy_stc_scb
 752:Generated_Source\PSoC6\pdl\drivers/peripheral/scb/cy_scb_i2c.h **** cy_en_scb_i2c_status_t Cy_SCB_I2C_MasterReadByte   (CySCB_Type *base, cy_en_scb_i2c_command_t ackNa
 753:Generated_Source\PSoC6\pdl\drivers/peripheral/scb/cy_scb_i2c.h ****                                                     uint32_t timeoutMs, cy_stc_scb_i2c_context_t *c
 754:Generated_Source\PSoC6\pdl\drivers/peripheral/scb/cy_scb_i2c.h **** cy_en_scb_i2c_status_t Cy_SCB_I2C_MasterWriteByte  (CySCB_Type *base, uint8_t byte, uint32_t timeou
 755:Generated_Source\PSoC6\pdl\drivers/peripheral/scb/cy_scb_i2c.h ****                                                     cy_stc_scb_i2c_context_t *context);
 756:Generated_Source\PSoC6\pdl\drivers/peripheral/scb/cy_scb_i2c.h **** /** \} group_scb_i2c_master_low_level_functions */
 757:Generated_Source\PSoC6\pdl\drivers/peripheral/scb/cy_scb_i2c.h **** 
 758:Generated_Source\PSoC6\pdl\drivers/peripheral/scb/cy_scb_i2c.h **** /**
 759:Generated_Source\PSoC6\pdl\drivers/peripheral/scb/cy_scb_i2c.h **** * \addtogroup group_scb_i2c_interrupt_functions
 760:Generated_Source\PSoC6\pdl\drivers/peripheral/scb/cy_scb_i2c.h **** * \{
 761:Generated_Source\PSoC6\pdl\drivers/peripheral/scb/cy_scb_i2c.h **** */
 762:Generated_Source\PSoC6\pdl\drivers/peripheral/scb/cy_scb_i2c.h **** void Cy_SCB_I2C_Interrupt      (CySCB_Type *base, cy_stc_scb_i2c_context_t *context);
 763:Generated_Source\PSoC6\pdl\drivers/peripheral/scb/cy_scb_i2c.h **** void Cy_SCB_I2C_SlaveInterrupt (CySCB_Type *base, cy_stc_scb_i2c_context_t *context);
 764:Generated_Source\PSoC6\pdl\drivers/peripheral/scb/cy_scb_i2c.h **** void Cy_SCB_I2C_MasterInterrupt (CySCB_Type *base, cy_stc_scb_i2c_context_t *context);
 765:Generated_Source\PSoC6\pdl\drivers/peripheral/scb/cy_scb_i2c.h **** 
 766:Generated_Source\PSoC6\pdl\drivers/peripheral/scb/cy_scb_i2c.h **** __STATIC_INLINE void Cy_SCB_I2C_RegisterEventCallback(CySCB_Type const *base, cy_cb_scb_i2c_handle_
 767:Generated_Source\PSoC6\pdl\drivers/peripheral/scb/cy_scb_i2c.h ****                                                       cy_stc_scb_i2c_context_t *context);
 768:Generated_Source\PSoC6\pdl\drivers/peripheral/scb/cy_scb_i2c.h **** __STATIC_INLINE void Cy_SCB_I2C_RegisterAddrCallback (CySCB_Type const *base, cy_cb_scb_i2c_handle_
 769:Generated_Source\PSoC6\pdl\drivers/peripheral/scb/cy_scb_i2c.h ****                                                       cy_stc_scb_i2c_context_t *context);
 770:Generated_Source\PSoC6\pdl\drivers/peripheral/scb/cy_scb_i2c.h **** /** \} group_scb_i2c_interrupt_functions */
 771:Generated_Source\PSoC6\pdl\drivers/peripheral/scb/cy_scb_i2c.h **** 
 772:Generated_Source\PSoC6\pdl\drivers/peripheral/scb/cy_scb_i2c.h **** /**
 773:Generated_Source\PSoC6\pdl\drivers/peripheral/scb/cy_scb_i2c.h **** * \addtogroup group_scb_i2c_low_power_functions
 774:Generated_Source\PSoC6\pdl\drivers/peripheral/scb/cy_scb_i2c.h **** * \{
 775:Generated_Source\PSoC6\pdl\drivers/peripheral/scb/cy_scb_i2c.h **** */
 776:Generated_Source\PSoC6\pdl\drivers/peripheral/scb/cy_scb_i2c.h **** cy_en_syspm_status_t Cy_SCB_I2C_DeepSleepCallback(cy_stc_syspm_callback_params_t *callbackParams);
 777:Generated_Source\PSoC6\pdl\drivers/peripheral/scb/cy_scb_i2c.h **** cy_en_syspm_status_t Cy_SCB_I2C_HibernateCallback(cy_stc_syspm_callback_params_t *callbackParams);
 778:Generated_Source\PSoC6\pdl\drivers/peripheral/scb/cy_scb_i2c.h **** /** \} group_scb_i2c_low_power_functions */
 779:Generated_Source\PSoC6\pdl\drivers/peripheral/scb/cy_scb_i2c.h **** 
 780:Generated_Source\PSoC6\pdl\drivers/peripheral/scb/cy_scb_i2c.h **** 
 781:Generated_Source\PSoC6\pdl\drivers/peripheral/scb/cy_scb_i2c.h **** /***************************************
 782:Generated_Source\PSoC6\pdl\drivers/peripheral/scb/cy_scb_i2c.h **** *            API Constants
 783:Generated_Source\PSoC6\pdl\drivers/peripheral/scb/cy_scb_i2c.h **** ***************************************/
 784:Generated_Source\PSoC6\pdl\drivers/peripheral/scb/cy_scb_i2c.h **** 
 785:Generated_Source\PSoC6\pdl\drivers/peripheral/scb/cy_scb_i2c.h **** /**
 786:Generated_Source\PSoC6\pdl\drivers/peripheral/scb/cy_scb_i2c.h **** * \addtogroup group_scb_i2c_macros
 787:Generated_Source\PSoC6\pdl\drivers/peripheral/scb/cy_scb_i2c.h **** * \{
 788:Generated_Source\PSoC6\pdl\drivers/peripheral/scb/cy_scb_i2c.h **** */
 789:Generated_Source\PSoC6\pdl\drivers/peripheral/scb/cy_scb_i2c.h **** 
 790:Generated_Source\PSoC6\pdl\drivers/peripheral/scb/cy_scb_i2c.h **** /**
 791:Generated_Source\PSoC6\pdl\drivers/peripheral/scb/cy_scb_i2c.h **** * \defgroup group_scb_i2c_macros_slave_status I2C Slave Status
 792:Generated_Source\PSoC6\pdl\drivers/peripheral/scb/cy_scb_i2c.h **** * Each I2C slave status is encoded in a separate bit, therefore multiple bits
 793:Generated_Source\PSoC6\pdl\drivers/peripheral/scb/cy_scb_i2c.h **** * may be set to indicate the current status.
ARM GAS  C:\Users\salaz\AppData\Local\Temp\ccKm0KhK.s 			page 26


 794:Generated_Source\PSoC6\pdl\drivers/peripheral/scb/cy_scb_i2c.h **** * \{
 795:Generated_Source\PSoC6\pdl\drivers/peripheral/scb/cy_scb_i2c.h **** */
 796:Generated_Source\PSoC6\pdl\drivers/peripheral/scb/cy_scb_i2c.h **** /** There is a read transaction in progress */
 797:Generated_Source\PSoC6\pdl\drivers/peripheral/scb/cy_scb_i2c.h **** #define CY_SCB_I2C_SLAVE_RD_BUSY       (0x00000001UL)
 798:Generated_Source\PSoC6\pdl\drivers/peripheral/scb/cy_scb_i2c.h **** 
 799:Generated_Source\PSoC6\pdl\drivers/peripheral/scb/cy_scb_i2c.h **** /**
 800:Generated_Source\PSoC6\pdl\drivers/peripheral/scb/cy_scb_i2c.h **** * All read data has been loaded into the TX FIFO, applicable only if
 801:Generated_Source\PSoC6\pdl\drivers/peripheral/scb/cy_scb_i2c.h **** * the TX FIFO is used
 802:Generated_Source\PSoC6\pdl\drivers/peripheral/scb/cy_scb_i2c.h **** */
 803:Generated_Source\PSoC6\pdl\drivers/peripheral/scb/cy_scb_i2c.h **** #define CY_SCB_I2C_SLAVE_RD_IN_FIFO    (0x00000002UL)
 804:Generated_Source\PSoC6\pdl\drivers/peripheral/scb/cy_scb_i2c.h **** 
 805:Generated_Source\PSoC6\pdl\drivers/peripheral/scb/cy_scb_i2c.h **** /**
 806:Generated_Source\PSoC6\pdl\drivers/peripheral/scb/cy_scb_i2c.h **** * The master has finished reading data from the slave
 807:Generated_Source\PSoC6\pdl\drivers/peripheral/scb/cy_scb_i2c.h **** */
 808:Generated_Source\PSoC6\pdl\drivers/peripheral/scb/cy_scb_i2c.h **** #define CY_SCB_I2C_SLAVE_RD_CMPLT      (0x00000004UL)
 809:Generated_Source\PSoC6\pdl\drivers/peripheral/scb/cy_scb_i2c.h **** 
 810:Generated_Source\PSoC6\pdl\drivers/peripheral/scb/cy_scb_i2c.h **** /**
 811:Generated_Source\PSoC6\pdl\drivers/peripheral/scb/cy_scb_i2c.h **** * Set when the master tried to read more bytes than available in the configured
 812:Generated_Source\PSoC6\pdl\drivers/peripheral/scb/cy_scb_i2c.h **** * read buffer. The slave is not able to finish the transaction and sends
 813:Generated_Source\PSoC6\pdl\drivers/peripheral/scb/cy_scb_i2c.h **** * \ref CY_SCB_I2C_DEFAULT_TX.
 814:Generated_Source\PSoC6\pdl\drivers/peripheral/scb/cy_scb_i2c.h **** */
 815:Generated_Source\PSoC6\pdl\drivers/peripheral/scb/cy_scb_i2c.h **** #define CY_SCB_I2C_SLAVE_RD_UNDRFL     (0x00000008UL)
 816:Generated_Source\PSoC6\pdl\drivers/peripheral/scb/cy_scb_i2c.h **** 
 817:Generated_Source\PSoC6\pdl\drivers/peripheral/scb/cy_scb_i2c.h **** /** There is a write transaction in progress */
 818:Generated_Source\PSoC6\pdl\drivers/peripheral/scb/cy_scb_i2c.h **** #define CY_SCB_I2C_SLAVE_WR_BUSY       (0x00000010UL)
 819:Generated_Source\PSoC6\pdl\drivers/peripheral/scb/cy_scb_i2c.h **** 
 820:Generated_Source\PSoC6\pdl\drivers/peripheral/scb/cy_scb_i2c.h **** /**
 821:Generated_Source\PSoC6\pdl\drivers/peripheral/scb/cy_scb_i2c.h **** * The master has finished writing data into the slave
 822:Generated_Source\PSoC6\pdl\drivers/peripheral/scb/cy_scb_i2c.h **** */
 823:Generated_Source\PSoC6\pdl\drivers/peripheral/scb/cy_scb_i2c.h **** #define CY_SCB_I2C_SLAVE_WR_CMPLT      (0x00000020UL)
 824:Generated_Source\PSoC6\pdl\drivers/peripheral/scb/cy_scb_i2c.h **** 
 825:Generated_Source\PSoC6\pdl\drivers/peripheral/scb/cy_scb_i2c.h **** /**
 826:Generated_Source\PSoC6\pdl\drivers/peripheral/scb/cy_scb_i2c.h **** * The master attempted to write more bytes than space available in the
 827:Generated_Source\PSoC6\pdl\drivers/peripheral/scb/cy_scb_i2c.h **** * configured Write buffer. Note that all subsequent bytes are dropped.
 828:Generated_Source\PSoC6\pdl\drivers/peripheral/scb/cy_scb_i2c.h **** */
 829:Generated_Source\PSoC6\pdl\drivers/peripheral/scb/cy_scb_i2c.h **** #define CY_SCB_I2C_SLAVE_WR_OVRFL      (0x00000040UL)
 830:Generated_Source\PSoC6\pdl\drivers/peripheral/scb/cy_scb_i2c.h **** 
 831:Generated_Source\PSoC6\pdl\drivers/peripheral/scb/cy_scb_i2c.h **** /** The slave lost arbitration, and the transaction was aborted */
 832:Generated_Source\PSoC6\pdl\drivers/peripheral/scb/cy_scb_i2c.h **** #define CY_SCB_I2C_SLAVE_ARB_LOST      (0x00000080UL)
 833:Generated_Source\PSoC6\pdl\drivers/peripheral/scb/cy_scb_i2c.h **** 
 834:Generated_Source\PSoC6\pdl\drivers/peripheral/scb/cy_scb_i2c.h **** /**
 835:Generated_Source\PSoC6\pdl\drivers/peripheral/scb/cy_scb_i2c.h **** * The slave captured an error on the bus during a master transaction (source
 836:Generated_Source\PSoC6\pdl\drivers/peripheral/scb/cy_scb_i2c.h **** * of error is misplaced Start or Stop).
 837:Generated_Source\PSoC6\pdl\drivers/peripheral/scb/cy_scb_i2c.h **** */
 838:Generated_Source\PSoC6\pdl\drivers/peripheral/scb/cy_scb_i2c.h **** #define CY_SCB_I2C_SLAVE_BUS_ERR       (0x00000100UL)
 839:Generated_Source\PSoC6\pdl\drivers/peripheral/scb/cy_scb_i2c.h **** /** \} group_scb_i2c_macros_slave_status */
 840:Generated_Source\PSoC6\pdl\drivers/peripheral/scb/cy_scb_i2c.h **** 
 841:Generated_Source\PSoC6\pdl\drivers/peripheral/scb/cy_scb_i2c.h **** /**
 842:Generated_Source\PSoC6\pdl\drivers/peripheral/scb/cy_scb_i2c.h **** * \defgroup group_scb_i2c_macros_master_status I2C Master Status
 843:Generated_Source\PSoC6\pdl\drivers/peripheral/scb/cy_scb_i2c.h **** * Each I2C master status is encoded in a separate bit, therefore multiple
 844:Generated_Source\PSoC6\pdl\drivers/peripheral/scb/cy_scb_i2c.h **** * bits may be set to indicate the current status.
 845:Generated_Source\PSoC6\pdl\drivers/peripheral/scb/cy_scb_i2c.h **** * \{
 846:Generated_Source\PSoC6\pdl\drivers/peripheral/scb/cy_scb_i2c.h **** */
 847:Generated_Source\PSoC6\pdl\drivers/peripheral/scb/cy_scb_i2c.h **** 
 848:Generated_Source\PSoC6\pdl\drivers/peripheral/scb/cy_scb_i2c.h **** /**
 849:Generated_Source\PSoC6\pdl\drivers/peripheral/scb/cy_scb_i2c.h **** * The master is busy executing operation started by \ref Cy_SCB_I2C_MasterRead
 850:Generated_Source\PSoC6\pdl\drivers/peripheral/scb/cy_scb_i2c.h **** * or \ref Cy_SCB_I2C_MasterWrite
ARM GAS  C:\Users\salaz\AppData\Local\Temp\ccKm0KhK.s 			page 27


 851:Generated_Source\PSoC6\pdl\drivers/peripheral/scb/cy_scb_i2c.h **** */
 852:Generated_Source\PSoC6\pdl\drivers/peripheral/scb/cy_scb_i2c.h **** #define CY_SCB_I2C_MASTER_BUSY         (0x00010000UL)
 853:Generated_Source\PSoC6\pdl\drivers/peripheral/scb/cy_scb_i2c.h **** 
 854:Generated_Source\PSoC6\pdl\drivers/peripheral/scb/cy_scb_i2c.h **** /**
 855:Generated_Source\PSoC6\pdl\drivers/peripheral/scb/cy_scb_i2c.h **** * All Write data has been loaded into the TX FIFO
 856:Generated_Source\PSoC6\pdl\drivers/peripheral/scb/cy_scb_i2c.h **** */
 857:Generated_Source\PSoC6\pdl\drivers/peripheral/scb/cy_scb_i2c.h **** #define CY_SCB_I2C_MASTER_WR_IN_FIFO   (0x00020000UL)
 858:Generated_Source\PSoC6\pdl\drivers/peripheral/scb/cy_scb_i2c.h **** 
 859:Generated_Source\PSoC6\pdl\drivers/peripheral/scb/cy_scb_i2c.h **** /** The slave NACKed the address. */
 860:Generated_Source\PSoC6\pdl\drivers/peripheral/scb/cy_scb_i2c.h **** #define CY_SCB_I2C_MASTER_ADDR_NAK     (0x00100000UL)
 861:Generated_Source\PSoC6\pdl\drivers/peripheral/scb/cy_scb_i2c.h **** 
 862:Generated_Source\PSoC6\pdl\drivers/peripheral/scb/cy_scb_i2c.h **** /** Write completed before all bytes were sent (last byte was NAKed)
 863:Generated_Source\PSoC6\pdl\drivers/peripheral/scb/cy_scb_i2c.h **** */
 864:Generated_Source\PSoC6\pdl\drivers/peripheral/scb/cy_scb_i2c.h **** #define CY_SCB_I2C_MASTER_DATA_NAK     (0x00200000UL)
 865:Generated_Source\PSoC6\pdl\drivers/peripheral/scb/cy_scb_i2c.h **** 
 866:Generated_Source\PSoC6\pdl\drivers/peripheral/scb/cy_scb_i2c.h **** /** The master lost arbitration, the transaction was aborted */
 867:Generated_Source\PSoC6\pdl\drivers/peripheral/scb/cy_scb_i2c.h **** #define CY_SCB_I2C_MASTER_ARB_LOST     (0x00400000UL)
 868:Generated_Source\PSoC6\pdl\drivers/peripheral/scb/cy_scb_i2c.h **** 
 869:Generated_Source\PSoC6\pdl\drivers/peripheral/scb/cy_scb_i2c.h **** /**
 870:Generated_Source\PSoC6\pdl\drivers/peripheral/scb/cy_scb_i2c.h **** * The master detected an erroneous start or stop, the transaction was aborted
 871:Generated_Source\PSoC6\pdl\drivers/peripheral/scb/cy_scb_i2c.h **** */
 872:Generated_Source\PSoC6\pdl\drivers/peripheral/scb/cy_scb_i2c.h **** #define CY_SCB_I2C_MASTER_BUS_ERR      (0x00800000UL)
 873:Generated_Source\PSoC6\pdl\drivers/peripheral/scb/cy_scb_i2c.h **** 
 874:Generated_Source\PSoC6\pdl\drivers/peripheral/scb/cy_scb_i2c.h **** /**
 875:Generated_Source\PSoC6\pdl\drivers/peripheral/scb/cy_scb_i2c.h **** * The master transaction was aborted and the slave transaction is on-going
 876:Generated_Source\PSoC6\pdl\drivers/peripheral/scb/cy_scb_i2c.h **** * because the slave was addressed before the master generated a start
 877:Generated_Source\PSoC6\pdl\drivers/peripheral/scb/cy_scb_i2c.h **** */
 878:Generated_Source\PSoC6\pdl\drivers/peripheral/scb/cy_scb_i2c.h **** #define CY_SCB_I2C_MASTER_ABORT_START  (0x01000000UL)
 879:Generated_Source\PSoC6\pdl\drivers/peripheral/scb/cy_scb_i2c.h **** /** \} group_scb_i2c_macros_master_status */
 880:Generated_Source\PSoC6\pdl\drivers/peripheral/scb/cy_scb_i2c.h **** 
 881:Generated_Source\PSoC6\pdl\drivers/peripheral/scb/cy_scb_i2c.h **** /**
 882:Generated_Source\PSoC6\pdl\drivers/peripheral/scb/cy_scb_i2c.h **** * \defgroup group_scb_i2c_macros_callback_events I2C Callback Events
 883:Generated_Source\PSoC6\pdl\drivers/peripheral/scb/cy_scb_i2c.h **** * \{
 884:Generated_Source\PSoC6\pdl\drivers/peripheral/scb/cy_scb_i2c.h **** * Each event is encoded in a separate bit, and therefore it is possible to
 885:Generated_Source\PSoC6\pdl\drivers/peripheral/scb/cy_scb_i2c.h **** * notify about multiple events.
 886:Generated_Source\PSoC6\pdl\drivers/peripheral/scb/cy_scb_i2c.h **** */
 887:Generated_Source\PSoC6\pdl\drivers/peripheral/scb/cy_scb_i2c.h **** /**
 888:Generated_Source\PSoC6\pdl\drivers/peripheral/scb/cy_scb_i2c.h **** * Indicates that the slave was addressed and the master wants to read data.
 889:Generated_Source\PSoC6\pdl\drivers/peripheral/scb/cy_scb_i2c.h **** * This event can be used to configure the slave Read buffer.
 890:Generated_Source\PSoC6\pdl\drivers/peripheral/scb/cy_scb_i2c.h **** */
 891:Generated_Source\PSoC6\pdl\drivers/peripheral/scb/cy_scb_i2c.h **** #define CY_SCB_I2C_SLAVE_READ_EVENT            (0x00000001UL)
 892:Generated_Source\PSoC6\pdl\drivers/peripheral/scb/cy_scb_i2c.h **** 
 893:Generated_Source\PSoC6\pdl\drivers/peripheral/scb/cy_scb_i2c.h **** /**
 894:Generated_Source\PSoC6\pdl\drivers/peripheral/scb/cy_scb_i2c.h **** * Indicates that the slave was addressed and the master wants to write data.
 895:Generated_Source\PSoC6\pdl\drivers/peripheral/scb/cy_scb_i2c.h **** * This event can be used to configure the slave Write buffer.
 896:Generated_Source\PSoC6\pdl\drivers/peripheral/scb/cy_scb_i2c.h **** */
 897:Generated_Source\PSoC6\pdl\drivers/peripheral/scb/cy_scb_i2c.h **** #define CY_SCB_I2C_SLAVE_WRITE_EVENT           (0x00000002UL)
 898:Generated_Source\PSoC6\pdl\drivers/peripheral/scb/cy_scb_i2c.h **** 
 899:Generated_Source\PSoC6\pdl\drivers/peripheral/scb/cy_scb_i2c.h **** /**
 900:Generated_Source\PSoC6\pdl\drivers/peripheral/scb/cy_scb_i2c.h **** * All slave data from the configured Read buffer has been loaded into the
 901:Generated_Source\PSoC6\pdl\drivers/peripheral/scb/cy_scb_i2c.h **** * TX FIFO. The content of the Read buffer can be modified. Applicable only
 902:Generated_Source\PSoC6\pdl\drivers/peripheral/scb/cy_scb_i2c.h **** * if the TX FIFO is used.
 903:Generated_Source\PSoC6\pdl\drivers/peripheral/scb/cy_scb_i2c.h **** */
 904:Generated_Source\PSoC6\pdl\drivers/peripheral/scb/cy_scb_i2c.h **** #define CY_SCB_I2C_SLAVE_RD_IN_FIFO_EVENT      (0x00000004UL)
 905:Generated_Source\PSoC6\pdl\drivers/peripheral/scb/cy_scb_i2c.h **** 
 906:Generated_Source\PSoC6\pdl\drivers/peripheral/scb/cy_scb_i2c.h **** /**
 907:Generated_Source\PSoC6\pdl\drivers/peripheral/scb/cy_scb_i2c.h **** * The master has read all data out of the configured Read buffer.
ARM GAS  C:\Users\salaz\AppData\Local\Temp\ccKm0KhK.s 			page 28


 908:Generated_Source\PSoC6\pdl\drivers/peripheral/scb/cy_scb_i2c.h **** * This event can be used to configure the next Read buffer. If the buffer
 909:Generated_Source\PSoC6\pdl\drivers/peripheral/scb/cy_scb_i2c.h **** * remains empty, the \ref CY_SCB_I2C_DEFAULT_TX bytes are returned to the master.
 910:Generated_Source\PSoC6\pdl\drivers/peripheral/scb/cy_scb_i2c.h **** */
 911:Generated_Source\PSoC6\pdl\drivers/peripheral/scb/cy_scb_i2c.h **** #define CY_SCB_I2C_SLAVE_RD_BUF_EMPTY_EVENT    (0x00000008UL)
 912:Generated_Source\PSoC6\pdl\drivers/peripheral/scb/cy_scb_i2c.h **** 
 913:Generated_Source\PSoC6\pdl\drivers/peripheral/scb/cy_scb_i2c.h **** /**
 914:Generated_Source\PSoC6\pdl\drivers/peripheral/scb/cy_scb_i2c.h **** * Indicates the master completed reading from the slave (set by the master NAK
 915:Generated_Source\PSoC6\pdl\drivers/peripheral/scb/cy_scb_i2c.h **** * or Stop)
 916:Generated_Source\PSoC6\pdl\drivers/peripheral/scb/cy_scb_i2c.h **** */
 917:Generated_Source\PSoC6\pdl\drivers/peripheral/scb/cy_scb_i2c.h **** #define CY_SCB_I2C_SLAVE_RD_CMPLT_EVENT        (0x00000010UL)
 918:Generated_Source\PSoC6\pdl\drivers/peripheral/scb/cy_scb_i2c.h **** 
 919:Generated_Source\PSoC6\pdl\drivers/peripheral/scb/cy_scb_i2c.h **** /**
 920:Generated_Source\PSoC6\pdl\drivers/peripheral/scb/cy_scb_i2c.h **** * Indicates the master completed writing to the slave (set by the master Stop
 921:Generated_Source\PSoC6\pdl\drivers/peripheral/scb/cy_scb_i2c.h **** * or Restart)
 922:Generated_Source\PSoC6\pdl\drivers/peripheral/scb/cy_scb_i2c.h **** */
 923:Generated_Source\PSoC6\pdl\drivers/peripheral/scb/cy_scb_i2c.h **** #define CY_SCB_I2C_SLAVE_WR_CMPLT_EVENT        (0x00000020UL)
 924:Generated_Source\PSoC6\pdl\drivers/peripheral/scb/cy_scb_i2c.h **** 
 925:Generated_Source\PSoC6\pdl\drivers/peripheral/scb/cy_scb_i2c.h **** /**
 926:Generated_Source\PSoC6\pdl\drivers/peripheral/scb/cy_scb_i2c.h **** * Indicates the I2C hardware detected an error.
 927:Generated_Source\PSoC6\pdl\drivers/peripheral/scb/cy_scb_i2c.h **** * Check \ref Cy_SCB_I2C_SlaveGetStatus to determine the source of the error.
 928:Generated_Source\PSoC6\pdl\drivers/peripheral/scb/cy_scb_i2c.h **** */
 929:Generated_Source\PSoC6\pdl\drivers/peripheral/scb/cy_scb_i2c.h **** #define CY_SCB_I2C_SLAVE_ERR_EVENT             (0x00000040UL)
 930:Generated_Source\PSoC6\pdl\drivers/peripheral/scb/cy_scb_i2c.h **** 
 931:Generated_Source\PSoC6\pdl\drivers/peripheral/scb/cy_scb_i2c.h **** /**
 932:Generated_Source\PSoC6\pdl\drivers/peripheral/scb/cy_scb_i2c.h **** * All data specified by \ref Cy_SCB_I2C_MasterWrite have been loaded
 933:Generated_Source\PSoC6\pdl\drivers/peripheral/scb/cy_scb_i2c.h **** * into the TX FIFO. The content of the master buffer can be modified.
 934:Generated_Source\PSoC6\pdl\drivers/peripheral/scb/cy_scb_i2c.h **** * Applicable only if the TX FIFO is used.
 935:Generated_Source\PSoC6\pdl\drivers/peripheral/scb/cy_scb_i2c.h **** */
 936:Generated_Source\PSoC6\pdl\drivers/peripheral/scb/cy_scb_i2c.h **** #define CY_SCB_I2C_MASTER_WR_IN_FIFO_EVENT     (0x00010000UL)
 937:Generated_Source\PSoC6\pdl\drivers/peripheral/scb/cy_scb_i2c.h **** 
 938:Generated_Source\PSoC6\pdl\drivers/peripheral/scb/cy_scb_i2c.h **** /** The master write started by \ref Cy_SCB_I2C_MasterWrite is complete */
 939:Generated_Source\PSoC6\pdl\drivers/peripheral/scb/cy_scb_i2c.h **** #define CY_SCB_I2C_MASTER_WR_CMPLT_EVENT       (0x00020000UL)
 940:Generated_Source\PSoC6\pdl\drivers/peripheral/scb/cy_scb_i2c.h **** 
 941:Generated_Source\PSoC6\pdl\drivers/peripheral/scb/cy_scb_i2c.h **** /** The master read started by \ref Cy_SCB_I2C_MasterRead is complete */
 942:Generated_Source\PSoC6\pdl\drivers/peripheral/scb/cy_scb_i2c.h **** #define CY_SCB_I2C_MASTER_RD_CMPLT_EVENT       (0x00040000UL)
 943:Generated_Source\PSoC6\pdl\drivers/peripheral/scb/cy_scb_i2c.h **** 
 944:Generated_Source\PSoC6\pdl\drivers/peripheral/scb/cy_scb_i2c.h **** /**
 945:Generated_Source\PSoC6\pdl\drivers/peripheral/scb/cy_scb_i2c.h **** * Indicates the I2C hardware has detected an error. It occurs together with
 946:Generated_Source\PSoC6\pdl\drivers/peripheral/scb/cy_scb_i2c.h **** * \ref CY_SCB_I2C_MASTER_RD_CMPLT_EVENT or \ref CY_SCB_I2C_MASTER_WR_CMPLT_EVENT
 947:Generated_Source\PSoC6\pdl\drivers/peripheral/scb/cy_scb_i2c.h **** * depends on the direction of the transfer.
 948:Generated_Source\PSoC6\pdl\drivers/peripheral/scb/cy_scb_i2c.h **** * Check \ref Cy_SCB_I2C_MasterGetStatus to determine the source of the error.
 949:Generated_Source\PSoC6\pdl\drivers/peripheral/scb/cy_scb_i2c.h **** */
 950:Generated_Source\PSoC6\pdl\drivers/peripheral/scb/cy_scb_i2c.h **** #define CY_SCB_I2C_MASTER_ERR_EVENT            (0x00080000UL)
 951:Generated_Source\PSoC6\pdl\drivers/peripheral/scb/cy_scb_i2c.h **** /** \} group_scb_i2c_macros_callback_events */
 952:Generated_Source\PSoC6\pdl\drivers/peripheral/scb/cy_scb_i2c.h **** 
 953:Generated_Source\PSoC6\pdl\drivers/peripheral/scb/cy_scb_i2c.h **** /**
 954:Generated_Source\PSoC6\pdl\drivers/peripheral/scb/cy_scb_i2c.h **** * \defgroup group_scb_i2c_macros_addr_callback_events I2C Address Callback Events
 955:Generated_Source\PSoC6\pdl\drivers/peripheral/scb/cy_scb_i2c.h **** * Each event is encoded in a separate bit and therefore it is possible to
 956:Generated_Source\PSoC6\pdl\drivers/peripheral/scb/cy_scb_i2c.h **** * notify about multiple events.
 957:Generated_Source\PSoC6\pdl\drivers/peripheral/scb/cy_scb_i2c.h **** * \{
 958:Generated_Source\PSoC6\pdl\drivers/peripheral/scb/cy_scb_i2c.h **** */
 959:Generated_Source\PSoC6\pdl\drivers/peripheral/scb/cy_scb_i2c.h **** /**
 960:Generated_Source\PSoC6\pdl\drivers/peripheral/scb/cy_scb_i2c.h **** * Indicates the slave was addressed by the general call address
 961:Generated_Source\PSoC6\pdl\drivers/peripheral/scb/cy_scb_i2c.h **** */
 962:Generated_Source\PSoC6\pdl\drivers/peripheral/scb/cy_scb_i2c.h **** #define CY_SCB_I2C_GENERAL_CALL_EVENT      (0x01UL)
 963:Generated_Source\PSoC6\pdl\drivers/peripheral/scb/cy_scb_i2c.h **** 
 964:Generated_Source\PSoC6\pdl\drivers/peripheral/scb/cy_scb_i2c.h **** /**
ARM GAS  C:\Users\salaz\AppData\Local\Temp\ccKm0KhK.s 			page 29


 965:Generated_Source\PSoC6\pdl\drivers/peripheral/scb/cy_scb_i2c.h **** * The slave address is in the RX FIFO.
 966:Generated_Source\PSoC6\pdl\drivers/peripheral/scb/cy_scb_i2c.h **** * Note that the address must be read from the RX FIFO using the
 967:Generated_Source\PSoC6\pdl\drivers/peripheral/scb/cy_scb_i2c.h **** * \ref Cy_SCB_ReadRxFifo function.
 968:Generated_Source\PSoC6\pdl\drivers/peripheral/scb/cy_scb_i2c.h **** */
 969:Generated_Source\PSoC6\pdl\drivers/peripheral/scb/cy_scb_i2c.h **** #define CY_SCB_I2C_ADDR_IN_FIFO_EVENT      (0x02UL)
 970:Generated_Source\PSoC6\pdl\drivers/peripheral/scb/cy_scb_i2c.h **** /** \} group_scb_i2c_macros_addr_callback_events */
 971:Generated_Source\PSoC6\pdl\drivers/peripheral/scb/cy_scb_i2c.h **** 
 972:Generated_Source\PSoC6\pdl\drivers/peripheral/scb/cy_scb_i2c.h **** /**
 973:Generated_Source\PSoC6\pdl\drivers/peripheral/scb/cy_scb_i2c.h **** * This value is returned by the slave when there is no data in the
 974:Generated_Source\PSoC6\pdl\drivers/peripheral/scb/cy_scb_i2c.h **** * Read buffer
 975:Generated_Source\PSoC6\pdl\drivers/peripheral/scb/cy_scb_i2c.h **** */
 976:Generated_Source\PSoC6\pdl\drivers/peripheral/scb/cy_scb_i2c.h **** #define CY_SCB_I2C_DEFAULT_TX  (0xFFUL)
 977:Generated_Source\PSoC6\pdl\drivers/peripheral/scb/cy_scb_i2c.h **** 
 978:Generated_Source\PSoC6\pdl\drivers/peripheral/scb/cy_scb_i2c.h **** 
 979:Generated_Source\PSoC6\pdl\drivers/peripheral/scb/cy_scb_i2c.h **** /***************************************
 980:Generated_Source\PSoC6\pdl\drivers/peripheral/scb/cy_scb_i2c.h **** *         Internal Constants
 981:Generated_Source\PSoC6\pdl\drivers/peripheral/scb/cy_scb_i2c.h **** ***************************************/
 982:Generated_Source\PSoC6\pdl\drivers/peripheral/scb/cy_scb_i2c.h **** 
 983:Generated_Source\PSoC6\pdl\drivers/peripheral/scb/cy_scb_i2c.h **** /** \cond INTERNAL */
 984:Generated_Source\PSoC6\pdl\drivers/peripheral/scb/cy_scb_i2c.h **** 
 985:Generated_Source\PSoC6\pdl\drivers/peripheral/scb/cy_scb_i2c.h **** /* Slave statuses */
 986:Generated_Source\PSoC6\pdl\drivers/peripheral/scb/cy_scb_i2c.h **** #define CY_SCB_I2C_SLAVE_RD_CLEAR  (CY_SCB_I2C_SLAVE_RD_CMPLT  | CY_SCB_I2C_SLAVE_RD_IN_FIFO | \
 987:Generated_Source\PSoC6\pdl\drivers/peripheral/scb/cy_scb_i2c.h ****                                     CY_SCB_I2C_SLAVE_RD_UNDRFL | CY_SCB_I2C_SLAVE_ARB_LOST   | \
 988:Generated_Source\PSoC6\pdl\drivers/peripheral/scb/cy_scb_i2c.h ****                                     CY_SCB_I2C_SLAVE_BUS_ERR)
 989:Generated_Source\PSoC6\pdl\drivers/peripheral/scb/cy_scb_i2c.h **** 
 990:Generated_Source\PSoC6\pdl\drivers/peripheral/scb/cy_scb_i2c.h **** #define CY_SCB_I2C_SLAVE_WR_CLEAR  (CY_SCB_I2C_SLAVE_WR_CMPLT | CY_SCB_I2C_SLAVE_WR_OVRFL | \
 991:Generated_Source\PSoC6\pdl\drivers/peripheral/scb/cy_scb_i2c.h ****                                     CY_SCB_I2C_SLAVE_ARB_LOST | CY_SCB_I2C_SLAVE_BUS_ERR)
 992:Generated_Source\PSoC6\pdl\drivers/peripheral/scb/cy_scb_i2c.h **** 
 993:Generated_Source\PSoC6\pdl\drivers/peripheral/scb/cy_scb_i2c.h **** /* Master error statuses */
 994:Generated_Source\PSoC6\pdl\drivers/peripheral/scb/cy_scb_i2c.h **** #define CY_SCB_I2C_MASTER_ERR (CY_SCB_I2C_MASTER_ABORT_START | CY_SCB_I2C_MASTER_ADDR_NAK | \
 995:Generated_Source\PSoC6\pdl\drivers/peripheral/scb/cy_scb_i2c.h ****                                CY_SCB_I2C_MASTER_DATA_NAK    | CY_SCB_I2C_MASTER_BUS_ERR  | \
 996:Generated_Source\PSoC6\pdl\drivers/peripheral/scb/cy_scb_i2c.h ****                                CY_SCB_I2C_MASTER_ARB_LOST)
 997:Generated_Source\PSoC6\pdl\drivers/peripheral/scb/cy_scb_i2c.h **** 
 998:Generated_Source\PSoC6\pdl\drivers/peripheral/scb/cy_scb_i2c.h **** /* Master interrupt masks */
 999:Generated_Source\PSoC6\pdl\drivers/peripheral/scb/cy_scb_i2c.h **** #define CY_SCB_I2C_MASTER_INTR     (CY_SCB_MASTER_INTR_I2C_ARB_LOST | CY_SCB_MASTER_INTR_I2C_BUS_ER
1000:Generated_Source\PSoC6\pdl\drivers/peripheral/scb/cy_scb_i2c.h ****                                     CY_SCB_MASTER_INTR_I2C_NACK     | CY_SCB_MASTER_INTR_I2C_STOP)
1001:Generated_Source\PSoC6\pdl\drivers/peripheral/scb/cy_scb_i2c.h **** 
1002:Generated_Source\PSoC6\pdl\drivers/peripheral/scb/cy_scb_i2c.h **** #define CY_SCB_I2C_MASTER_INTR_ALL   (CY_SCB_I2C_MASTER_INTR | CY_SCB_MASTER_INTR_I2C_ACK)
1003:Generated_Source\PSoC6\pdl\drivers/peripheral/scb/cy_scb_i2c.h **** 
1004:Generated_Source\PSoC6\pdl\drivers/peripheral/scb/cy_scb_i2c.h **** #define CY_SCB_I2C_MASTER_INTR_ERR   (CY_SCB_MASTER_INTR_I2C_BUS_ERROR | CY_SCB_MASTER_INTR_I2C_ARB
1005:Generated_Source\PSoC6\pdl\drivers/peripheral/scb/cy_scb_i2c.h **** 
1006:Generated_Source\PSoC6\pdl\drivers/peripheral/scb/cy_scb_i2c.h **** #define CY_SCB_I2C_MASTER_INTR_CMPLT (CY_SCB_I2C_MASTER_INTR_ERR | CY_SCB_MASTER_INTR_I2C_STOP)
1007:Generated_Source\PSoC6\pdl\drivers/peripheral/scb/cy_scb_i2c.h **** 
1008:Generated_Source\PSoC6\pdl\drivers/peripheral/scb/cy_scb_i2c.h **** /* Master statuses. */
1009:Generated_Source\PSoC6\pdl\drivers/peripheral/scb/cy_scb_i2c.h **** #define CY_SCB_I2C_MASTER_TX_BYTE_DONE (CY_SCB_MASTER_INTR_I2C_ACK       | CY_SCB_MASTER_INTR_I2C_N
1010:Generated_Source\PSoC6\pdl\drivers/peripheral/scb/cy_scb_i2c.h ****                                         CY_SCB_MASTER_INTR_I2C_BUS_ERROR | CY_SCB_MASTER_INTR_I2C_A
1011:Generated_Source\PSoC6\pdl\drivers/peripheral/scb/cy_scb_i2c.h **** 
1012:Generated_Source\PSoC6\pdl\drivers/peripheral/scb/cy_scb_i2c.h **** #define CY_SCB_I2C_MASTER_RX_BYTE_DONE (CY_SCB_MASTER_INTR_I2C_BUS_ERROR | CY_SCB_MASTER_INTR_I2C_A
1013:Generated_Source\PSoC6\pdl\drivers/peripheral/scb/cy_scb_i2c.h **** 
1014:Generated_Source\PSoC6\pdl\drivers/peripheral/scb/cy_scb_i2c.h **** #define CY_SCB_I2C_MASTER_STOP_DONE    (CY_SCB_MASTER_INTR_I2C_STOP      | \
1015:Generated_Source\PSoC6\pdl\drivers/peripheral/scb/cy_scb_i2c.h ****                                         CY_SCB_MASTER_INTR_I2C_BUS_ERROR | CY_SCB_MASTER_INTR_I2C_A
1016:Generated_Source\PSoC6\pdl\drivers/peripheral/scb/cy_scb_i2c.h **** 
1017:Generated_Source\PSoC6\pdl\drivers/peripheral/scb/cy_scb_i2c.h **** #define CY_SCB_I2C_MASTER_TIMEOUT_DONE (0x80000000UL)
1018:Generated_Source\PSoC6\pdl\drivers/peripheral/scb/cy_scb_i2c.h **** 
1019:Generated_Source\PSoC6\pdl\drivers/peripheral/scb/cy_scb_i2c.h **** /* The slave interrupt mask */
1020:Generated_Source\PSoC6\pdl\drivers/peripheral/scb/cy_scb_i2c.h **** #define CY_SCB_I2C_SLAVE_INTR      (CY_SCB_SLAVE_INTR_I2C_ADDR_MATCH | CY_SCB_SLAVE_INTR_I2C_GENERA
1021:Generated_Source\PSoC6\pdl\drivers/peripheral/scb/cy_scb_i2c.h ****                                     CY_SCB_SLAVE_INTR_I2C_STOP       | CY_SCB_SLAVE_INTR_I2C_BUS_ER
ARM GAS  C:\Users\salaz\AppData\Local\Temp\ccKm0KhK.s 			page 30


1022:Generated_Source\PSoC6\pdl\drivers/peripheral/scb/cy_scb_i2c.h ****                                     CY_SCB_SLAVE_INTR_I2C_ARB_LOST)
1023:Generated_Source\PSoC6\pdl\drivers/peripheral/scb/cy_scb_i2c.h **** 
1024:Generated_Source\PSoC6\pdl\drivers/peripheral/scb/cy_scb_i2c.h **** #define CY_SCB_I2C_SLAVE_INTR_NO_STOP   (CY_SCB_I2C_SLAVE_INTR & (uint32_t) ~CY_SCB_SLAVE_INTR_I2C_
1025:Generated_Source\PSoC6\pdl\drivers/peripheral/scb/cy_scb_i2c.h **** 
1026:Generated_Source\PSoC6\pdl\drivers/peripheral/scb/cy_scb_i2c.h **** #define CY_SCB_I2C_SLAVE_INTR_ADDR      (CY_SCB_SLAVE_INTR_I2C_ADDR_MATCH | CY_SCB_SLAVE_INTR_I2C_G
1027:Generated_Source\PSoC6\pdl\drivers/peripheral/scb/cy_scb_i2c.h **** 
1028:Generated_Source\PSoC6\pdl\drivers/peripheral/scb/cy_scb_i2c.h **** #define CY_SCB_I2C_SLAVE_ADDR_DONE      (CY_SCB_I2C_SLAVE_INTR_ADDR)
1029:Generated_Source\PSoC6\pdl\drivers/peripheral/scb/cy_scb_i2c.h **** 
1030:Generated_Source\PSoC6\pdl\drivers/peripheral/scb/cy_scb_i2c.h **** #define CY_SCB_I2C_SLAVE_INTR_NO_ADDR   (CY_SCB_I2C_SLAVE_INTR & (uint32_t) ~CY_SCB_I2C_SLAVE_INTR_
1031:Generated_Source\PSoC6\pdl\drivers/peripheral/scb/cy_scb_i2c.h **** 
1032:Generated_Source\PSoC6\pdl\drivers/peripheral/scb/cy_scb_i2c.h **** #define CY_SCB_I2C_SLAVE_INTR_TX        (CY_SCB_TX_INTR_LEVEL | CY_SCB_TX_INTR_UNDERFLOW)
1033:Generated_Source\PSoC6\pdl\drivers/peripheral/scb/cy_scb_i2c.h **** 
1034:Generated_Source\PSoC6\pdl\drivers/peripheral/scb/cy_scb_i2c.h **** #define CY_SCB_I2C_SLAVE_INTR_ERROR     (CY_SCB_SLAVE_INTR_I2C_BUS_ERROR | CY_SCB_SLAVE_INTR_I2C_AR
1035:Generated_Source\PSoC6\pdl\drivers/peripheral/scb/cy_scb_i2c.h **** 
1036:Generated_Source\PSoC6\pdl\drivers/peripheral/scb/cy_scb_i2c.h **** /* I2C states */
1037:Generated_Source\PSoC6\pdl\drivers/peripheral/scb/cy_scb_i2c.h **** #define CY_SCB_I2C_IDLE              (0x10000000UL)
1038:Generated_Source\PSoC6\pdl\drivers/peripheral/scb/cy_scb_i2c.h **** #define CY_SCB_I2C_IDLE_MASK         (0x10000000UL)
1039:Generated_Source\PSoC6\pdl\drivers/peripheral/scb/cy_scb_i2c.h **** 
1040:Generated_Source\PSoC6\pdl\drivers/peripheral/scb/cy_scb_i2c.h **** /* Master states */
1041:Generated_Source\PSoC6\pdl\drivers/peripheral/scb/cy_scb_i2c.h **** #define CY_SCB_I2C_MASTER_ACTIVE     (0x00100000UL)
1042:Generated_Source\PSoC6\pdl\drivers/peripheral/scb/cy_scb_i2c.h **** #define CY_SCB_I2C_MASTER_WAIT       (0x10100000UL)
1043:Generated_Source\PSoC6\pdl\drivers/peripheral/scb/cy_scb_i2c.h **** #define CY_SCB_I2C_MASTER_RX0        (0x00110000UL)
1044:Generated_Source\PSoC6\pdl\drivers/peripheral/scb/cy_scb_i2c.h **** #define CY_SCB_I2C_MASTER_RX1        (0x00120000UL)
1045:Generated_Source\PSoC6\pdl\drivers/peripheral/scb/cy_scb_i2c.h **** #define CY_SCB_I2C_MASTER_ADDR       (0x10130000UL)
1046:Generated_Source\PSoC6\pdl\drivers/peripheral/scb/cy_scb_i2c.h **** #define CY_SCB_I2C_MASTER_TX         (0x00140000UL)
1047:Generated_Source\PSoC6\pdl\drivers/peripheral/scb/cy_scb_i2c.h **** #define CY_SCB_I2C_MASTER_TX_DONE    (0x00150000UL)
1048:Generated_Source\PSoC6\pdl\drivers/peripheral/scb/cy_scb_i2c.h **** #define CY_SCB_I2C_MASTER_STOP       (0x00160000UL)
1049:Generated_Source\PSoC6\pdl\drivers/peripheral/scb/cy_scb_i2c.h **** #define CY_SCB_I2C_MASTER_WAIT_STOP  (0x00170000UL)
1050:Generated_Source\PSoC6\pdl\drivers/peripheral/scb/cy_scb_i2c.h **** #define CY_SCB_I2C_MASTER_CMPLT      (0x00180000UL)
1051:Generated_Source\PSoC6\pdl\drivers/peripheral/scb/cy_scb_i2c.h **** 
1052:Generated_Source\PSoC6\pdl\drivers/peripheral/scb/cy_scb_i2c.h **** /* Slave states */
1053:Generated_Source\PSoC6\pdl\drivers/peripheral/scb/cy_scb_i2c.h **** #define CY_SCB_I2C_SLAVE_ACTIVE      (0x00001000UL)
1054:Generated_Source\PSoC6\pdl\drivers/peripheral/scb/cy_scb_i2c.h **** #define CY_SCB_I2C_SLAVE_RX_MASK     (0x00001001UL)
1055:Generated_Source\PSoC6\pdl\drivers/peripheral/scb/cy_scb_i2c.h **** #define CY_SCB_I2C_SLAVE_RX          (0x00001001UL)
1056:Generated_Source\PSoC6\pdl\drivers/peripheral/scb/cy_scb_i2c.h **** #define CY_SCB_I2C_SLAVE_TX          (0x00001002UL)
1057:Generated_Source\PSoC6\pdl\drivers/peripheral/scb/cy_scb_i2c.h **** 
1058:Generated_Source\PSoC6\pdl\drivers/peripheral/scb/cy_scb_i2c.h **** /* FIFO size */
1059:Generated_Source\PSoC6\pdl\drivers/peripheral/scb/cy_scb_i2c.h **** #define CY_SCB_I2C_FIFO_SIZE(base)           CY_SCB_FIFO_SIZE(base)
1060:Generated_Source\PSoC6\pdl\drivers/peripheral/scb/cy_scb_i2c.h **** #define CY_SCB_I2C_HALF_FIFO_SIZE(base)     (CY_SCB_FIFO_SIZE(base) / 2UL)
1061:Generated_Source\PSoC6\pdl\drivers/peripheral/scb/cy_scb_i2c.h **** 
1062:Generated_Source\PSoC6\pdl\drivers/peripheral/scb/cy_scb_i2c.h **** #define CY_SCB_I2C_DEFAULT_RETURN    (0xFFUL)
1063:Generated_Source\PSoC6\pdl\drivers/peripheral/scb/cy_scb_i2c.h **** 
1064:Generated_Source\PSoC6\pdl\drivers/peripheral/scb/cy_scb_i2c.h **** /* Convert the timeout in milliseconds to microseconds */
1065:Generated_Source\PSoC6\pdl\drivers/peripheral/scb/cy_scb_i2c.h **** #define CY_SCB_I2C_CONVERT_TIMEOUT_TO_US(timeoutMs)     ((timeoutMs) * 1000UL)
1066:Generated_Source\PSoC6\pdl\drivers/peripheral/scb/cy_scb_i2c.h **** 
1067:Generated_Source\PSoC6\pdl\drivers/peripheral/scb/cy_scb_i2c.h **** /* I2C data rates max (Hz): standard, fast and fast plus modes */
1068:Generated_Source\PSoC6\pdl\drivers/peripheral/scb/cy_scb_i2c.h **** #define CY_SCB_I2C_STD_DATA_RATE    (100000U)
1069:Generated_Source\PSoC6\pdl\drivers/peripheral/scb/cy_scb_i2c.h **** #define CY_SCB_I2C_FST_DATA_RATE    (400000U)
1070:Generated_Source\PSoC6\pdl\drivers/peripheral/scb/cy_scb_i2c.h **** #define CY_SCB_I2C_FSTP_DATA_RATE  (1000000U)
1071:Generated_Source\PSoC6\pdl\drivers/peripheral/scb/cy_scb_i2c.h **** 
1072:Generated_Source\PSoC6\pdl\drivers/peripheral/scb/cy_scb_i2c.h **** /* Slave clock limits */
1073:Generated_Source\PSoC6\pdl\drivers/peripheral/scb/cy_scb_i2c.h **** #define CY_SCB_I2C_SLAVE_STD_CLK_MIN    (1550000U)
1074:Generated_Source\PSoC6\pdl\drivers/peripheral/scb/cy_scb_i2c.h **** #define CY_SCB_I2C_SLAVE_STD_CLK_MAX   (12800000U)
1075:Generated_Source\PSoC6\pdl\drivers/peripheral/scb/cy_scb_i2c.h **** #define CY_SCB_I2C_SLAVE_FST_CLK_MIN    (7820000U)
1076:Generated_Source\PSoC6\pdl\drivers/peripheral/scb/cy_scb_i2c.h **** #define CY_SCB_I2C_SLAVE_FST_CLK_MAX   (15380000U)
1077:Generated_Source\PSoC6\pdl\drivers/peripheral/scb/cy_scb_i2c.h **** #define CY_SCB_I2C_SLAVE_FSTP_CLK_MIN  (15840000U)
1078:Generated_Source\PSoC6\pdl\drivers/peripheral/scb/cy_scb_i2c.h **** #define CY_SCB_I2C_SLAVE_FSTP_CLK_MAX  (89000000U)
ARM GAS  C:\Users\salaz\AppData\Local\Temp\ccKm0KhK.s 			page 31


1079:Generated_Source\PSoC6\pdl\drivers/peripheral/scb/cy_scb_i2c.h **** 
1080:Generated_Source\PSoC6\pdl\drivers/peripheral/scb/cy_scb_i2c.h **** /* Master clock (Hz) and duty cycle limits for standard mode */
1081:Generated_Source\PSoC6\pdl\drivers/peripheral/scb/cy_scb_i2c.h **** #define CY_SCB_I2C_MASTER_STD_CLK_MIN           (1550000U)
1082:Generated_Source\PSoC6\pdl\drivers/peripheral/scb/cy_scb_i2c.h **** #define CY_SCB_I2C_MASTER_STD_CLK_MAX           (3200000U)
1083:Generated_Source\PSoC6\pdl\drivers/peripheral/scb/cy_scb_i2c.h **** #define CY_SCB_I2C_MASTER_STD_LOW_PHASE_MIN     (8U)
1084:Generated_Source\PSoC6\pdl\drivers/peripheral/scb/cy_scb_i2c.h **** #define CY_SCB_I2C_MASTER_STD_HIGH_PHASE_MIN    (8U)
1085:Generated_Source\PSoC6\pdl\drivers/peripheral/scb/cy_scb_i2c.h **** 
1086:Generated_Source\PSoC6\pdl\drivers/peripheral/scb/cy_scb_i2c.h **** /* Master clock (Hz) and duty cycle limits for fast mode */
1087:Generated_Source\PSoC6\pdl\drivers/peripheral/scb/cy_scb_i2c.h **** #define CY_SCB_I2C_MASTER_FST_CLK_MIN            (7820000U)
1088:Generated_Source\PSoC6\pdl\drivers/peripheral/scb/cy_scb_i2c.h **** #define CY_SCB_I2C_MASTER_FST_CLK_MAX           (10000000U)
1089:Generated_Source\PSoC6\pdl\drivers/peripheral/scb/cy_scb_i2c.h **** #define CY_SCB_I2C_MASTER_FST_LOW_PHASE_MIN     (13U)
1090:Generated_Source\PSoC6\pdl\drivers/peripheral/scb/cy_scb_i2c.h **** #define CY_SCB_I2C_MASTER_FST_HIGH_PHASE_MIN    (8U)
1091:Generated_Source\PSoC6\pdl\drivers/peripheral/scb/cy_scb_i2c.h **** 
1092:Generated_Source\PSoC6\pdl\drivers/peripheral/scb/cy_scb_i2c.h **** /* Master clock (Hz) and duty cycle limits for fast plus mode */
1093:Generated_Source\PSoC6\pdl\drivers/peripheral/scb/cy_scb_i2c.h **** #define CY_SCB_I2C_MASTER_FSTP_CLK_MIN          (14320000U)
1094:Generated_Source\PSoC6\pdl\drivers/peripheral/scb/cy_scb_i2c.h **** #define CY_SCB_I2C_MASTER_FSTP_CLK_MAX          (25800000U)
1095:Generated_Source\PSoC6\pdl\drivers/peripheral/scb/cy_scb_i2c.h **** #define CY_SCB_I2C_MASTER_FSTP_LOW_PHASE_MIN    (9U)
1096:Generated_Source\PSoC6\pdl\drivers/peripheral/scb/cy_scb_i2c.h **** #define CY_SCB_I2C_MASTER_FSTP_HIGH_PHASE_MIN   (6U)
1097:Generated_Source\PSoC6\pdl\drivers/peripheral/scb/cy_scb_i2c.h **** 
1098:Generated_Source\PSoC6\pdl\drivers/peripheral/scb/cy_scb_i2c.h **** /* SCL low and high time in ns. Takes into account tF and tR */
1099:Generated_Source\PSoC6\pdl\drivers/peripheral/scb/cy_scb_i2c.h **** #define CY_SCB_I2C_MASTER_STD_SCL_LOW   (5000U) /* tLOW  + tF = 4700 + 300  */
1100:Generated_Source\PSoC6\pdl\drivers/peripheral/scb/cy_scb_i2c.h **** #define CY_SCB_I2C_MASTER_STD_SCL_HIGH  (5000U) /* tHIGH + tR = 4000 + 1000 */
1101:Generated_Source\PSoC6\pdl\drivers/peripheral/scb/cy_scb_i2c.h **** #define CY_SCB_I2C_MASTER_FST_SCL_LOW   (1600U) /* tLOW  + tF = 1300 + 300  */
1102:Generated_Source\PSoC6\pdl\drivers/peripheral/scb/cy_scb_i2c.h **** #define CY_SCB_I2C_MASTER_FST_SCL_HIGH   (900U) /* tHIGH + tR = 600 + 300   */
1103:Generated_Source\PSoC6\pdl\drivers/peripheral/scb/cy_scb_i2c.h **** #define CY_SCB_I2C_MASTER_FSTP_SCL_LOW   (620U) /* tLOW  + tF = 500 + 120   */
1104:Generated_Source\PSoC6\pdl\drivers/peripheral/scb/cy_scb_i2c.h **** #define CY_SCB_I2C_MASTER_FSTP_SCL_HIGH  (380U) /* tHIGH + tR = 260 + 120   */
1105:Generated_Source\PSoC6\pdl\drivers/peripheral/scb/cy_scb_i2c.h **** 
1106:Generated_Source\PSoC6\pdl\drivers/peripheral/scb/cy_scb_i2c.h **** /* Master duty cycle limits */
1107:Generated_Source\PSoC6\pdl\drivers/peripheral/scb/cy_scb_i2c.h **** #define CY_SCB_I2C_LOW_PHASE_MAX    (16U)
1108:Generated_Source\PSoC6\pdl\drivers/peripheral/scb/cy_scb_i2c.h **** #define CY_SCB_I2C_HIGH_PHASE_MAX   (16U)
1109:Generated_Source\PSoC6\pdl\drivers/peripheral/scb/cy_scb_i2c.h **** #define CY_SCB_I2C_DUTY_CYCLE_MAX   (CY_SCB_I2C_LOW_PHASE_MAX + CY_SCB_I2C_HIGH_PHASE_MAX)
1110:Generated_Source\PSoC6\pdl\drivers/peripheral/scb/cy_scb_i2c.h **** 
1111:Generated_Source\PSoC6\pdl\drivers/peripheral/scb/cy_scb_i2c.h **** /* Analog filter settings. */
1112:Generated_Source\PSoC6\pdl\drivers/peripheral/scb/cy_scb_i2c.h **** #define CY_SCB_I2C_ENABLE_ANALOG_FITLER    (CY_SCB_I2C_CFG_DEF_VAL)
1113:Generated_Source\PSoC6\pdl\drivers/peripheral/scb/cy_scb_i2c.h **** #define CY_SCB_I2C_DISABLE_ANALOG_FITLER   (CY_SCB_I2C_CFG_DEF_VAL & \
1114:Generated_Source\PSoC6\pdl\drivers/peripheral/scb/cy_scb_i2c.h ****                                             (uint32_t) ~(SCB_I2C_CFG_SDA_IN_FILT_SEL_Msk | \
1115:Generated_Source\PSoC6\pdl\drivers/peripheral/scb/cy_scb_i2c.h ****                                                          SCB_I2C_CFG_SCL_IN_FILT_SEL_Msk))
1116:Generated_Source\PSoC6\pdl\drivers/peripheral/scb/cy_scb_i2c.h **** 
1117:Generated_Source\PSoC6\pdl\drivers/peripheral/scb/cy_scb_i2c.h **** #define CY_SCB_I2C_IS_MODE_VALID(mode)      ( (CY_SCB_I2C_SLAVE  == (mode)) || \
1118:Generated_Source\PSoC6\pdl\drivers/peripheral/scb/cy_scb_i2c.h ****                                               (CY_SCB_I2C_MASTER == (mode)) || \
1119:Generated_Source\PSoC6\pdl\drivers/peripheral/scb/cy_scb_i2c.h ****                                               (CY_SCB_I2C_MASTER_SLAVE == (mode)) )
1120:Generated_Source\PSoC6\pdl\drivers/peripheral/scb/cy_scb_i2c.h **** 
1121:Generated_Source\PSoC6\pdl\drivers/peripheral/scb/cy_scb_i2c.h **** #define CY_SCB_I2C_IS_RW_BIT_VALID(dir)     ( (CY_SCB_I2C_WRITE_XFER == (dir)) || \
1122:Generated_Source\PSoC6\pdl\drivers/peripheral/scb/cy_scb_i2c.h ****                                               (CY_SCB_I2C_READ_XFER  == (dir)) )
1123:Generated_Source\PSoC6\pdl\drivers/peripheral/scb/cy_scb_i2c.h **** 
1124:Generated_Source\PSoC6\pdl\drivers/peripheral/scb/cy_scb_i2c.h **** #define CY_SCB_I2C_IS_RESPONSE_VALID(cmd)   ( (CY_SCB_I2C_ACK == (cmd))  || \
1125:Generated_Source\PSoC6\pdl\drivers/peripheral/scb/cy_scb_i2c.h ****                                               (CY_SCB_I2C_NAK == (cmd)) )
1126:Generated_Source\PSoC6\pdl\drivers/peripheral/scb/cy_scb_i2c.h **** 
1127:Generated_Source\PSoC6\pdl\drivers/peripheral/scb/cy_scb_i2c.h **** #define CY_SCB_I2C_IS_ADDR_MASK_VALID(mask)         ( (0U == ((mask) & 0x01U)) )
1128:Generated_Source\PSoC6\pdl\drivers/peripheral/scb/cy_scb_i2c.h **** 
1129:Generated_Source\PSoC6\pdl\drivers/peripheral/scb/cy_scb_i2c.h **** #define CY_SCB_I2C_IS_DATA_RATE_VALID(dataRateHz)   ( ((dataRateHz) > 0UL) && \
1130:Generated_Source\PSoC6\pdl\drivers/peripheral/scb/cy_scb_i2c.h ****                                                       ((dataRateHz) <= CY_SCB_I2C_FSTP_DATA_RATE) )
1131:Generated_Source\PSoC6\pdl\drivers/peripheral/scb/cy_scb_i2c.h **** 
1132:Generated_Source\PSoC6\pdl\drivers/peripheral/scb/cy_scb_i2c.h **** #define CY_SCB_I2C_IS_TIMEOUT_VALID(timeoutMs)              ( (timeoutMs) <= (0xFFFFFFFFUL / 1000UL
1133:Generated_Source\PSoC6\pdl\drivers/peripheral/scb/cy_scb_i2c.h **** #define CY_SCB_I2C_IS_LOW_PHASE_CYCLES_VALID(clockCycles)   ( ((clockCycles) >= 7UL) && ((clockCycl
1134:Generated_Source\PSoC6\pdl\drivers/peripheral/scb/cy_scb_i2c.h **** #define CY_SCB_I2C_IS_HIGH_PHASE_CYCLES_VALID(clockCycles)  ( ((clockCycles) >= 5UL) && ((clockCycl
1135:Generated_Source\PSoC6\pdl\drivers/peripheral/scb/cy_scb_i2c.h **** 
ARM GAS  C:\Users\salaz\AppData\Local\Temp\ccKm0KhK.s 			page 32


1136:Generated_Source\PSoC6\pdl\drivers/peripheral/scb/cy_scb_i2c.h **** /** \endcond */
1137:Generated_Source\PSoC6\pdl\drivers/peripheral/scb/cy_scb_i2c.h **** 
1138:Generated_Source\PSoC6\pdl\drivers/peripheral/scb/cy_scb_i2c.h **** /** \} group_scb_i2c_macros */
1139:Generated_Source\PSoC6\pdl\drivers/peripheral/scb/cy_scb_i2c.h **** 
1140:Generated_Source\PSoC6\pdl\drivers/peripheral/scb/cy_scb_i2c.h **** 
1141:Generated_Source\PSoC6\pdl\drivers/peripheral/scb/cy_scb_i2c.h **** /***************************************
1142:Generated_Source\PSoC6\pdl\drivers/peripheral/scb/cy_scb_i2c.h **** *    In-line Function Implementation
1143:Generated_Source\PSoC6\pdl\drivers/peripheral/scb/cy_scb_i2c.h **** ***************************************/
1144:Generated_Source\PSoC6\pdl\drivers/peripheral/scb/cy_scb_i2c.h **** 
1145:Generated_Source\PSoC6\pdl\drivers/peripheral/scb/cy_scb_i2c.h **** /**
1146:Generated_Source\PSoC6\pdl\drivers/peripheral/scb/cy_scb_i2c.h **** * \addtogroup group_scb_i2c_general_functions
1147:Generated_Source\PSoC6\pdl\drivers/peripheral/scb/cy_scb_i2c.h **** * \{
1148:Generated_Source\PSoC6\pdl\drivers/peripheral/scb/cy_scb_i2c.h **** */
1149:Generated_Source\PSoC6\pdl\drivers/peripheral/scb/cy_scb_i2c.h **** 
1150:Generated_Source\PSoC6\pdl\drivers/peripheral/scb/cy_scb_i2c.h **** /*******************************************************************************
1151:Generated_Source\PSoC6\pdl\drivers/peripheral/scb/cy_scb_i2c.h **** * Function Name: Cy_SCB_I2C_Enable
1152:Generated_Source\PSoC6\pdl\drivers/peripheral/scb/cy_scb_i2c.h **** ****************************************************************************//**
1153:Generated_Source\PSoC6\pdl\drivers/peripheral/scb/cy_scb_i2c.h **** *
1154:Generated_Source\PSoC6\pdl\drivers/peripheral/scb/cy_scb_i2c.h **** * Enables the SCB block for the I2C operation
1155:Generated_Source\PSoC6\pdl\drivers/peripheral/scb/cy_scb_i2c.h **** *
1156:Generated_Source\PSoC6\pdl\drivers/peripheral/scb/cy_scb_i2c.h **** * \param base
1157:Generated_Source\PSoC6\pdl\drivers/peripheral/scb/cy_scb_i2c.h **** * The pointer to the I2C SCB instance.
1158:Generated_Source\PSoC6\pdl\drivers/peripheral/scb/cy_scb_i2c.h **** *
1159:Generated_Source\PSoC6\pdl\drivers/peripheral/scb/cy_scb_i2c.h **** *******************************************************************************/
1160:Generated_Source\PSoC6\pdl\drivers/peripheral/scb/cy_scb_i2c.h **** __STATIC_INLINE void Cy_SCB_I2C_Enable(CySCB_Type *base)
1161:Generated_Source\PSoC6\pdl\drivers/peripheral/scb/cy_scb_i2c.h **** {
1162:Generated_Source\PSoC6\pdl\drivers/peripheral/scb/cy_scb_i2c.h ****     base->CTRL |= SCB_CTRL_ENABLED_Msk;
 104              		.loc 3 1162 0 is_stmt 1 discriminator 1
 105 0020 184A     		ldr	r2, .L10+4
 106 0022 1368     		ldr	r3, [r2]
 107 0024 8021     		movs	r1, #128
 108 0026 0906     		lsls	r1, r1, #24
 109 0028 0B43     		orrs	r3, r1
 110 002a 1360     		str	r3, [r2]
 111              	.LVL3:
 112              	.L6:
 113              	.LBE28:
 114              	.LBE27:
 115              	.LBE26:
  38:BusManager.c  ****         
  39:BusManager.c  ****     switch(operation_fifo[tail])
 116              		.loc 1 39 0
 117 002c 144A     		ldr	r2, .L10
 118 002e D37B     		ldrb	r3, [r2, #15]
 119 0030 D318     		adds	r3, r2, r3
 120 0032 1B79     		ldrb	r3, [r3, #4]
 121 0034 012B     		cmp	r3, #1
 122 0036 02D0     		beq	.L8
 123 0038 062B     		cmp	r3, #6
 124 003a 05D0     		beq	.L9
 125 003c 08E0     		b	.L7
 126              	.L8:
  40:BusManager.c  ****     {
  41:BusManager.c  ****         case ACC:
  42:BusManager.c  ****         {
  43:BusManager.c  ****             if(!AccDriver_OperationDone()) return;
 127              		.loc 1 43 0
ARM GAS  C:\Users\salaz\AppData\Local\Temp\ccKm0KhK.s 			page 33


 128 003e FFF7FEFF 		bl	AccDriver_OperationDone
 129              	.LVL4:
 130 0042 0028     		cmp	r0, #0
 131 0044 04D1     		bne	.L7
 132 0046 1AE0     		b	.L4
 133              	.L9:
  44:BusManager.c  ****             break;
  45:BusManager.c  ****         }
  46:BusManager.c  ****         case GYR:
  47:BusManager.c  ****         {
  48:BusManager.c  ****             if(!GyrDriver_OperationDone()) return;
 134              		.loc 1 48 0
 135 0048 FFF7FEFF 		bl	GyrDriver_OperationDone
 136              	.LVL5:
 137 004c 0028     		cmp	r0, #0
 138 004e 16D0     		beq	.L4
 139              	.L7:
  49:BusManager.c  ****             break;
  50:BusManager.c  ****         }
  51:BusManager.c  ****         case NONE:
  52:BusManager.c  ****         {
  53:BusManager.c  ****             break;
  54:BusManager.c  ****         }
  55:BusManager.c  ****     }
  56:BusManager.c  ****     
  57:BusManager.c  ****     operation_fifo[tail] = NONE;
 140              		.loc 1 57 0
 141 0050 0B4C     		ldr	r4, .L10
 142 0052 E07B     		ldrb	r0, [r4, #15]
 143 0054 2318     		adds	r3, r4, r0
 144 0056 0022     		movs	r2, #0
 145 0058 1A71     		strb	r2, [r3, #4]
  58:BusManager.c  ****     tail = (tail+1) % NUM_OPERATIONS;
 146              		.loc 1 58 0
 147 005a 0130     		adds	r0, r0, #1
 148 005c 0B21     		movs	r1, #11
 149 005e FFF7FEFF 		bl	__aeabi_idivmod
 150              	.LVL6:
 151 0062 E173     		strb	r1, [r4, #15]
  59:BusManager.c  ****     size = size - 1;
 152              		.loc 1 59 0
 153 0064 2378     		ldrb	r3, [r4]
 154 0066 013B     		subs	r3, r3, #1
 155 0068 2370     		strb	r3, [r4]
  60:BusManager.c  **** 
  61:BusManager.c  ****     if(local_bus_busy) {SensorBus_Disable(); local_bus_busy = false;}
 156              		.loc 1 61 0
 157 006a 6378     		ldrb	r3, [r4, #1]
 158 006c 002B     		cmp	r3, #0
 159 006e 06D0     		beq	.L4
 160              	.LBB29:
 161              	.LBB30:
 211:Generated_Source\PSoC6/SensorBus.h **** }
 162              		.loc 2 211 0
 163 0070 0549     		ldr	r1, .L10+8
 164 0072 0448     		ldr	r0, .L10+4
 165 0074 FFF7FEFF 		bl	Cy_SCB_I2C_Disable
ARM GAS  C:\Users\salaz\AppData\Local\Temp\ccKm0KhK.s 			page 34


 166              	.LVL7:
 167              	.LBE30:
 168              	.LBE29:
 169              		.loc 1 61 0
 170 0078 0022     		movs	r2, #0
 171 007a 014B     		ldr	r3, .L10
 172 007c 5A70     		strb	r2, [r3, #1]
 173              	.L4:
  62:BusManager.c  **** }
 174              		.loc 1 62 0
 175              		@ sp needed
 176 007e 10BD     		pop	{r4, pc}
 177              	.L11:
 178              		.align	2
 179              	.L10:
 180 0080 00000000 		.word	.LANCHOR0
 181 0084 00006440 		.word	1080295424
 182 0088 00000000 		.word	SensorBus_context
 183              		.cfi_endproc
 184              	.LFE799:
 185              		.size	LaunchPending, .-LaunchPending
 186              		.section	.text.SensorBus_ExitCallback,"ax",%progbits
 187              		.align	2
 188              		.code	16
 189              		.thumb_func
 190              		.type	SensorBus_ExitCallback, %function
 191              	SensorBus_ExitCallback:
 192              	.LFB802:
  63:BusManager.c  **** bool BusManager_UpdateSetting(uint8 sensor_type, uint8 setting_type, int32 setting_value)
  64:BusManager.c  **** {
  65:BusManager.c  ****     int32 period_ms = -1;
  66:BusManager.c  ****     
  67:BusManager.c  ****     switch(sensor_type)
  68:BusManager.c  ****     {
  69:BusManager.c  ****         case ACC: period_ms = AccDriver_UpdateSetting(setting_type,setting_value); break;
  70:BusManager.c  ****         case GYR: period_ms = GyrDriver_UpdateSetting(setting_type,setting_value); break;
  71:BusManager.c  ****     }
  72:BusManager.c  ****     if(period_ms == -1)
  73:BusManager.c  ****     {
  74:BusManager.c  ****         return false;
  75:BusManager.c  ****     }
  76:BusManager.c  ****     else
  77:BusManager.c  ****     {
  78:BusManager.c  ****         SystemCore_SetBusManagerTimer(sensor_type, period_ms);
  79:BusManager.c  ****         return true;
  80:BusManager.c  ****     }
  81:BusManager.c  **** }
  82:BusManager.c  **** 
  83:BusManager.c  **** //-------------------------------------------------------------//
  84:BusManager.c  **** //--------------------TIMING-AND-TRIGGERING--------------------//
  85:BusManager.c  **** //-------------------------------------------------------------//
  86:BusManager.c  **** 
  87:BusManager.c  **** void BusManager_Tick(uint8 sensor_type)
  88:BusManager.c  **** {
  89:BusManager.c  ****     if(size < NUM_OPERATIONS)
  90:BusManager.c  ****     {
  91:BusManager.c  ****         operation_fifo[head] = sensor_type;
ARM GAS  C:\Users\salaz\AppData\Local\Temp\ccKm0KhK.s 			page 35


  92:BusManager.c  ****         head = (head+1) % NUM_OPERATIONS;
  93:BusManager.c  ****         size = size + 1;
  94:BusManager.c  ****         LaunchPending();
  95:BusManager.c  ****     }
  96:BusManager.c  **** }
  97:BusManager.c  **** //-------------------------------------------------------------//
  98:BusManager.c  **** //----------------------SENSOR-ARBITRATION---------------------//
  99:BusManager.c  **** //-------------------------------------------------------------//
 100:BusManager.c  **** 
 101:BusManager.c  **** static void SensorBus_ExitCallback(uint32_t event)
 102:BusManager.c  **** {
 193              		.loc 1 102 0
 194              		.cfi_startproc
 195              		@ args = 0, pretend = 0, frame = 0
 196              		@ frame_needed = 0, uses_anonymous_args = 0
 197              	.LVL8:
 198 0000 10B5     		push	{r4, lr}
 199              		.cfi_def_cfa_offset 8
 200              		.cfi_offset 4, -8
 201              		.cfi_offset 14, -4
 103:BusManager.c  ****     if (0UL != (CY_SCB_I2C_MASTER_WR_CMPLT_EVENT & event) | 0UL != (CY_SCB_I2C_MASTER_RD_CMPLT_EVEN
 202              		.loc 1 103 0
 203 0002 C023     		movs	r3, #192
 204 0004 DB02     		lsls	r3, r3, #11
 205 0006 1842     		tst	r0, r3
 206 0008 05D0     		beq	.L12
 104:BusManager.c  ****     {        
 105:BusManager.c  ****         if(SensorBusBusy() == false)
 207              		.loc 1 105 0
 208 000a FFF7FEFF 		bl	SensorBusBusy
 209              	.LVL9:
 210 000e 0028     		cmp	r0, #0
 211 0010 01D1     		bne	.L12
 106:BusManager.c  ****         {
 107:BusManager.c  ****             LaunchPending();
 212              		.loc 1 107 0
 213 0012 FFF7FEFF 		bl	LaunchPending
 214              	.LVL10:
 215              	.L12:
 108:BusManager.c  ****         }
 109:BusManager.c  ****     }
 110:BusManager.c  **** }
 216              		.loc 1 110 0
 217              		@ sp needed
 218 0016 10BD     		pop	{r4, pc}
 219              		.cfi_endproc
 220              	.LFE802:
 221              		.size	SensorBus_ExitCallback, .-SensorBus_ExitCallback
 222              		.section	.text.BusManager_UpdateSetting,"ax",%progbits
 223              		.align	2
 224              		.global	BusManager_UpdateSetting
 225              		.code	16
 226              		.thumb_func
 227              		.type	BusManager_UpdateSetting, %function
 228              	BusManager_UpdateSetting:
 229              	.LFB800:
  64:BusManager.c  ****     int32 period_ms = -1;
ARM GAS  C:\Users\salaz\AppData\Local\Temp\ccKm0KhK.s 			page 36


 230              		.loc 1 64 0
 231              		.cfi_startproc
 232              		@ args = 0, pretend = 0, frame = 0
 233              		@ frame_needed = 0, uses_anonymous_args = 0
 234              	.LVL11:
 235 0000 10B5     		push	{r4, lr}
 236              		.cfi_def_cfa_offset 8
 237              		.cfi_offset 4, -8
 238              		.cfi_offset 14, -4
 239 0002 0400     		movs	r4, r0
 240 0004 0800     		movs	r0, r1
 241              	.LVL12:
  67:BusManager.c  ****     {
 242              		.loc 1 67 0
 243 0006 012C     		cmp	r4, #1
 244 0008 02D0     		beq	.L16
 245 000a 062C     		cmp	r4, #6
 246 000c 04D0     		beq	.L17
 247 000e 07E0     		b	.L21
 248              	.L16:
  69:BusManager.c  ****         case GYR: period_ms = GyrDriver_UpdateSetting(setting_type,setting_value); break;
 249              		.loc 1 69 0
 250 0010 1100     		movs	r1, r2
 251              	.LVL13:
 252 0012 FFF7FEFF 		bl	AccDriver_UpdateSetting
 253              	.LVL14:
 254 0016 05E0     		b	.L15
 255              	.LVL15:
 256              	.L17:
  70:BusManager.c  ****     }
 257              		.loc 1 70 0
 258 0018 1100     		movs	r1, r2
 259              	.LVL16:
 260 001a FFF7FEFF 		bl	GyrDriver_UpdateSetting
 261              	.LVL17:
 262 001e 01E0     		b	.L15
 263              	.LVL18:
 264              	.L21:
  65:BusManager.c  ****     
 265              		.loc 1 65 0
 266 0020 0120     		movs	r0, #1
 267 0022 4042     		rsbs	r0, r0, #0
 268              	.LVL19:
 269              	.L15:
  72:BusManager.c  ****     {
 270              		.loc 1 72 0
 271 0024 431C     		adds	r3, r0, #1
 272 0026 05D0     		beq	.L20
  78:BusManager.c  ****         return true;
 273              		.loc 1 78 0
 274 0028 0100     		movs	r1, r0
 275 002a 2000     		movs	r0, r4
 276              	.LVL20:
 277 002c FFF7FEFF 		bl	SystemCore_SetBusManagerTimer
 278              	.LVL21:
  79:BusManager.c  ****     }
 279              		.loc 1 79 0
ARM GAS  C:\Users\salaz\AppData\Local\Temp\ccKm0KhK.s 			page 37


 280 0030 0120     		movs	r0, #1
 281 0032 00E0     		b	.L18
 282              	.LVL22:
 283              	.L20:
  74:BusManager.c  ****     }
 284              		.loc 1 74 0
 285 0034 0020     		movs	r0, #0
 286              	.LVL23:
 287              	.L18:
  81:BusManager.c  **** 
 288              		.loc 1 81 0
 289              		@ sp needed
 290 0036 10BD     		pop	{r4, pc}
 291              		.cfi_endproc
 292              	.LFE800:
 293              		.size	BusManager_UpdateSetting, .-BusManager_UpdateSetting
 294              		.section	.text.BusManager_Tick,"ax",%progbits
 295              		.align	2
 296              		.global	BusManager_Tick
 297              		.code	16
 298              		.thumb_func
 299              		.type	BusManager_Tick, %function
 300              	BusManager_Tick:
 301              	.LFB801:
  88:BusManager.c  ****     if(size < NUM_OPERATIONS)
 302              		.loc 1 88 0
 303              		.cfi_startproc
 304              		@ args = 0, pretend = 0, frame = 0
 305              		@ frame_needed = 0, uses_anonymous_args = 0
 306              	.LVL24:
 307 0000 70B5     		push	{r4, r5, r6, lr}
 308              		.cfi_def_cfa_offset 16
 309              		.cfi_offset 4, -16
 310              		.cfi_offset 5, -12
 311              		.cfi_offset 6, -8
 312              		.cfi_offset 14, -4
  89:BusManager.c  ****     {
 313              		.loc 1 89 0
 314 0002 094B     		ldr	r3, .L24
 315 0004 1C78     		ldrb	r4, [r3]
 316 0006 0A2C     		cmp	r4, #10
 317 0008 0CD8     		bhi	.L22
  91:BusManager.c  ****         head = (head+1) % NUM_OPERATIONS;
 318              		.loc 1 91 0
 319 000a 1D00     		movs	r5, r3
 320 000c 1B7C     		ldrb	r3, [r3, #16]
 321 000e EA18     		adds	r2, r5, r3
 322 0010 1071     		strb	r0, [r2, #4]
  92:BusManager.c  ****         size = size + 1;
 323              		.loc 1 92 0
 324 0012 581C     		adds	r0, r3, #1
 325              	.LVL25:
 326 0014 0B21     		movs	r1, #11
 327 0016 FFF7FEFF 		bl	__aeabi_idivmod
 328              	.LVL26:
 329 001a 2974     		strb	r1, [r5, #16]
  93:BusManager.c  ****         LaunchPending();
ARM GAS  C:\Users\salaz\AppData\Local\Temp\ccKm0KhK.s 			page 38


 330              		.loc 1 93 0
 331 001c 0134     		adds	r4, r4, #1
 332 001e 2C70     		strb	r4, [r5]
  94:BusManager.c  ****     }
 333              		.loc 1 94 0
 334 0020 FFF7FEFF 		bl	LaunchPending
 335              	.LVL27:
 336              	.L22:
  96:BusManager.c  **** //-------------------------------------------------------------//
 337              		.loc 1 96 0
 338              		@ sp needed
 339 0024 70BD     		pop	{r4, r5, r6, pc}
 340              	.L25:
 341 0026 C046     		.align	2
 342              	.L24:
 343 0028 00000000 		.word	.LANCHOR0
 344              		.cfi_endproc
 345              	.LFE801:
 346              		.size	BusManager_Tick, .-BusManager_Tick
 347              		.section	.text.BusManager_Init,"ax",%progbits
 348              		.align	2
 349              		.global	BusManager_Init
 350              		.code	16
 351              		.thumb_func
 352              		.type	BusManager_Init, %function
 353              	BusManager_Init:
 354              	.LFB803:
 111:BusManager.c  **** //-------------------------------------------------------------//
 112:BusManager.c  **** //------------------------INITIALIZATION-----------------------//
 113:BusManager.c  **** //-------------------------------------------------------------//
 114:BusManager.c  **** 
 115:BusManager.c  **** void BusManager_Init()
 116:BusManager.c  **** {
 355              		.loc 1 116 0
 356              		.cfi_startproc
 357              		@ args = 0, pretend = 0, frame = 0
 358              		@ frame_needed = 0, uses_anonymous_args = 0
 359 0000 70B5     		push	{r4, r5, r6, lr}
 360              		.cfi_def_cfa_offset 16
 361              		.cfi_offset 4, -16
 362              		.cfi_offset 5, -12
 363              		.cfi_offset 6, -8
 364              		.cfi_offset 14, -4
 117:BusManager.c  ****     DataBuffer_Init();
 365              		.loc 1 117 0
 366 0002 FFF7FEFF 		bl	DataBuffer_Init
 367              	.LVL28:
 118:BusManager.c  ****     
 119:BusManager.c  ****     local_bus_busy = true; SensorBus_Start();
 368              		.loc 1 119 0
 369 0006 134C     		ldr	r4, .L28
 370 0008 0123     		movs	r3, #1
 371 000a 6370     		strb	r3, [r4, #1]
 372 000c FFF7FEFF 		bl	SensorBus_Start
 373              	.LVL29:
 374              	.LBB31:
 375              	.LBB32:
ARM GAS  C:\Users\salaz\AppData\Local\Temp\ccKm0KhK.s 			page 39


 376              	.LBB33:
1163:Generated_Source\PSoC6\pdl\drivers/peripheral/scb/cy_scb_i2c.h **** }
1164:Generated_Source\PSoC6\pdl\drivers/peripheral/scb/cy_scb_i2c.h **** 
1165:Generated_Source\PSoC6\pdl\drivers/peripheral/scb/cy_scb_i2c.h **** 
1166:Generated_Source\PSoC6\pdl\drivers/peripheral/scb/cy_scb_i2c.h **** /*******************************************************************************
1167:Generated_Source\PSoC6\pdl\drivers/peripheral/scb/cy_scb_i2c.h **** * Function Name: Cy_SCB_I2C_IsBusBusy
1168:Generated_Source\PSoC6\pdl\drivers/peripheral/scb/cy_scb_i2c.h **** ****************************************************************************//**
1169:Generated_Source\PSoC6\pdl\drivers/peripheral/scb/cy_scb_i2c.h **** *
1170:Generated_Source\PSoC6\pdl\drivers/peripheral/scb/cy_scb_i2c.h **** * Checks whether the I2C bus is busy.
1171:Generated_Source\PSoC6\pdl\drivers/peripheral/scb/cy_scb_i2c.h **** *
1172:Generated_Source\PSoC6\pdl\drivers/peripheral/scb/cy_scb_i2c.h **** * \param base
1173:Generated_Source\PSoC6\pdl\drivers/peripheral/scb/cy_scb_i2c.h **** * The pointer to the I2C SCB instance.
1174:Generated_Source\PSoC6\pdl\drivers/peripheral/scb/cy_scb_i2c.h **** *
1175:Generated_Source\PSoC6\pdl\drivers/peripheral/scb/cy_scb_i2c.h **** * \return
1176:Generated_Source\PSoC6\pdl\drivers/peripheral/scb/cy_scb_i2c.h **** * A bus status: busy or not busy.
1177:Generated_Source\PSoC6\pdl\drivers/peripheral/scb/cy_scb_i2c.h **** *
1178:Generated_Source\PSoC6\pdl\drivers/peripheral/scb/cy_scb_i2c.h **** * \note
1179:Generated_Source\PSoC6\pdl\drivers/peripheral/scb/cy_scb_i2c.h **** * After the SCB block is enabled or reset, the valid bus busy-status returns
1180:Generated_Source\PSoC6\pdl\drivers/peripheral/scb/cy_scb_i2c.h **** * after half of the SCL period.
1181:Generated_Source\PSoC6\pdl\drivers/peripheral/scb/cy_scb_i2c.h **** *
1182:Generated_Source\PSoC6\pdl\drivers/peripheral/scb/cy_scb_i2c.h **** *******************************************************************************/
1183:Generated_Source\PSoC6\pdl\drivers/peripheral/scb/cy_scb_i2c.h **** __STATIC_INLINE bool Cy_SCB_I2C_IsBusBusy(CySCB_Type const *base)
1184:Generated_Source\PSoC6\pdl\drivers/peripheral/scb/cy_scb_i2c.h **** {
1185:Generated_Source\PSoC6\pdl\drivers/peripheral/scb/cy_scb_i2c.h ****     return _FLD2BOOL(SCB_I2C_STATUS_BUS_BUSY, base->I2C_STATUS);
1186:Generated_Source\PSoC6\pdl\drivers/peripheral/scb/cy_scb_i2c.h **** }
1187:Generated_Source\PSoC6\pdl\drivers/peripheral/scb/cy_scb_i2c.h **** 
1188:Generated_Source\PSoC6\pdl\drivers/peripheral/scb/cy_scb_i2c.h **** 
1189:Generated_Source\PSoC6\pdl\drivers/peripheral/scb/cy_scb_i2c.h **** /*******************************************************************************
1190:Generated_Source\PSoC6\pdl\drivers/peripheral/scb/cy_scb_i2c.h **** * Function Name: Cy_SCB_I2C_SlaveSetAddress
1191:Generated_Source\PSoC6\pdl\drivers/peripheral/scb/cy_scb_i2c.h **** ****************************************************************************//**
1192:Generated_Source\PSoC6\pdl\drivers/peripheral/scb/cy_scb_i2c.h **** *
1193:Generated_Source\PSoC6\pdl\drivers/peripheral/scb/cy_scb_i2c.h **** * Sets the slave address for the I2C slave.
1194:Generated_Source\PSoC6\pdl\drivers/peripheral/scb/cy_scb_i2c.h **** *
1195:Generated_Source\PSoC6\pdl\drivers/peripheral/scb/cy_scb_i2c.h **** * \param base
1196:Generated_Source\PSoC6\pdl\drivers/peripheral/scb/cy_scb_i2c.h **** * The pointer to the I2C SCB instance.
1197:Generated_Source\PSoC6\pdl\drivers/peripheral/scb/cy_scb_i2c.h **** *
1198:Generated_Source\PSoC6\pdl\drivers/peripheral/scb/cy_scb_i2c.h **** * \param addr
1199:Generated_Source\PSoC6\pdl\drivers/peripheral/scb/cy_scb_i2c.h **** * The 7-bit right justified slave address.
1200:Generated_Source\PSoC6\pdl\drivers/peripheral/scb/cy_scb_i2c.h **** *
1201:Generated_Source\PSoC6\pdl\drivers/peripheral/scb/cy_scb_i2c.h **** *******************************************************************************/
1202:Generated_Source\PSoC6\pdl\drivers/peripheral/scb/cy_scb_i2c.h **** __STATIC_INLINE void Cy_SCB_I2C_SlaveSetAddress(CySCB_Type *base, uint8_t addr)
1203:Generated_Source\PSoC6\pdl\drivers/peripheral/scb/cy_scb_i2c.h **** {
1204:Generated_Source\PSoC6\pdl\drivers/peripheral/scb/cy_scb_i2c.h ****     CY_ASSERT_L2(CY_SCB_IS_I2C_ADDR_VALID(addr));
1205:Generated_Source\PSoC6\pdl\drivers/peripheral/scb/cy_scb_i2c.h **** 
1206:Generated_Source\PSoC6\pdl\drivers/peripheral/scb/cy_scb_i2c.h ****     base->RX_MATCH = _CLR_SET_FLD32U(base->RX_MATCH, SCB_RX_MATCH_ADDR, ((uint32_t)((uint32_t) addr
1207:Generated_Source\PSoC6\pdl\drivers/peripheral/scb/cy_scb_i2c.h **** }
1208:Generated_Source\PSoC6\pdl\drivers/peripheral/scb/cy_scb_i2c.h **** 
1209:Generated_Source\PSoC6\pdl\drivers/peripheral/scb/cy_scb_i2c.h **** 
1210:Generated_Source\PSoC6\pdl\drivers/peripheral/scb/cy_scb_i2c.h **** /*******************************************************************************
1211:Generated_Source\PSoC6\pdl\drivers/peripheral/scb/cy_scb_i2c.h **** * Function Name: Cy_SCB_I2C_SlaveGetAddress
1212:Generated_Source\PSoC6\pdl\drivers/peripheral/scb/cy_scb_i2c.h **** ****************************************************************************//**
1213:Generated_Source\PSoC6\pdl\drivers/peripheral/scb/cy_scb_i2c.h **** *
1214:Generated_Source\PSoC6\pdl\drivers/peripheral/scb/cy_scb_i2c.h **** * Returns the slave address of the I2C slave.
1215:Generated_Source\PSoC6\pdl\drivers/peripheral/scb/cy_scb_i2c.h **** *
1216:Generated_Source\PSoC6\pdl\drivers/peripheral/scb/cy_scb_i2c.h **** * \param base
1217:Generated_Source\PSoC6\pdl\drivers/peripheral/scb/cy_scb_i2c.h **** * The pointer to the I2C SCB instance.
1218:Generated_Source\PSoC6\pdl\drivers/peripheral/scb/cy_scb_i2c.h **** *
ARM GAS  C:\Users\salaz\AppData\Local\Temp\ccKm0KhK.s 			page 40


1219:Generated_Source\PSoC6\pdl\drivers/peripheral/scb/cy_scb_i2c.h **** * \return
1220:Generated_Source\PSoC6\pdl\drivers/peripheral/scb/cy_scb_i2c.h **** * The 7-bit right justified slave address.
1221:Generated_Source\PSoC6\pdl\drivers/peripheral/scb/cy_scb_i2c.h **** *
1222:Generated_Source\PSoC6\pdl\drivers/peripheral/scb/cy_scb_i2c.h **** *******************************************************************************/
1223:Generated_Source\PSoC6\pdl\drivers/peripheral/scb/cy_scb_i2c.h **** __STATIC_INLINE uint32_t Cy_SCB_I2C_SlaveGetAddress(CySCB_Type const *base)
1224:Generated_Source\PSoC6\pdl\drivers/peripheral/scb/cy_scb_i2c.h **** {
1225:Generated_Source\PSoC6\pdl\drivers/peripheral/scb/cy_scb_i2c.h ****     return (_FLD2VAL(SCB_RX_MATCH_ADDR, base->RX_MATCH) >> 1UL);
1226:Generated_Source\PSoC6\pdl\drivers/peripheral/scb/cy_scb_i2c.h **** }
1227:Generated_Source\PSoC6\pdl\drivers/peripheral/scb/cy_scb_i2c.h **** 
1228:Generated_Source\PSoC6\pdl\drivers/peripheral/scb/cy_scb_i2c.h **** 
1229:Generated_Source\PSoC6\pdl\drivers/peripheral/scb/cy_scb_i2c.h **** /*******************************************************************************
1230:Generated_Source\PSoC6\pdl\drivers/peripheral/scb/cy_scb_i2c.h **** * Function Name: Cy_SCB_I2C_SlaveSetAddressMask
1231:Generated_Source\PSoC6\pdl\drivers/peripheral/scb/cy_scb_i2c.h **** ****************************************************************************//**
1232:Generated_Source\PSoC6\pdl\drivers/peripheral/scb/cy_scb_i2c.h **** *
1233:Generated_Source\PSoC6\pdl\drivers/peripheral/scb/cy_scb_i2c.h **** * Sets the slave address mask for the I2C slave. The LSBit must always be 0.
1234:Generated_Source\PSoC6\pdl\drivers/peripheral/scb/cy_scb_i2c.h **** * In all other bit positions a 1 indicates that the incoming address must match
1235:Generated_Source\PSoC6\pdl\drivers/peripheral/scb/cy_scb_i2c.h **** * the corresponding bit in the slave address. A 0 in the mask means that the
1236:Generated_Source\PSoC6\pdl\drivers/peripheral/scb/cy_scb_i2c.h **** * incoming address does not need to match.
1237:Generated_Source\PSoC6\pdl\drivers/peripheral/scb/cy_scb_i2c.h **** * Example Slave Address = 0x0C. Slave Address Mask = 0x08. This means that the
1238:Generated_Source\PSoC6\pdl\drivers/peripheral/scb/cy_scb_i2c.h **** * hardware will accept both 0x08 and 0x0C as valid addresses.
1239:Generated_Source\PSoC6\pdl\drivers/peripheral/scb/cy_scb_i2c.h **** *
1240:Generated_Source\PSoC6\pdl\drivers/peripheral/scb/cy_scb_i2c.h **** * \param base
1241:Generated_Source\PSoC6\pdl\drivers/peripheral/scb/cy_scb_i2c.h **** * The pointer to the I2C SCB instance.
1242:Generated_Source\PSoC6\pdl\drivers/peripheral/scb/cy_scb_i2c.h **** *
1243:Generated_Source\PSoC6\pdl\drivers/peripheral/scb/cy_scb_i2c.h **** * \param addrMask
1244:Generated_Source\PSoC6\pdl\drivers/peripheral/scb/cy_scb_i2c.h **** * The 8-bit address mask, the upper 7 bits correspond to the slave address.
1245:Generated_Source\PSoC6\pdl\drivers/peripheral/scb/cy_scb_i2c.h **** * LSBit must always be 0.
1246:Generated_Source\PSoC6\pdl\drivers/peripheral/scb/cy_scb_i2c.h **** *
1247:Generated_Source\PSoC6\pdl\drivers/peripheral/scb/cy_scb_i2c.h **** *******************************************************************************/
1248:Generated_Source\PSoC6\pdl\drivers/peripheral/scb/cy_scb_i2c.h **** __STATIC_INLINE void Cy_SCB_I2C_SlaveSetAddressMask(CySCB_Type *base, uint8_t addrMask)
1249:Generated_Source\PSoC6\pdl\drivers/peripheral/scb/cy_scb_i2c.h **** {
1250:Generated_Source\PSoC6\pdl\drivers/peripheral/scb/cy_scb_i2c.h ****     CY_ASSERT_L2(CY_SCB_I2C_IS_ADDR_MASK_VALID(addrMask));
1251:Generated_Source\PSoC6\pdl\drivers/peripheral/scb/cy_scb_i2c.h **** 
1252:Generated_Source\PSoC6\pdl\drivers/peripheral/scb/cy_scb_i2c.h ****     base->RX_MATCH = _CLR_SET_FLD32U(base->RX_MATCH, SCB_RX_MATCH_MASK, ((uint32_t) addrMask));
1253:Generated_Source\PSoC6\pdl\drivers/peripheral/scb/cy_scb_i2c.h **** }
1254:Generated_Source\PSoC6\pdl\drivers/peripheral/scb/cy_scb_i2c.h **** 
1255:Generated_Source\PSoC6\pdl\drivers/peripheral/scb/cy_scb_i2c.h **** 
1256:Generated_Source\PSoC6\pdl\drivers/peripheral/scb/cy_scb_i2c.h **** /*******************************************************************************
1257:Generated_Source\PSoC6\pdl\drivers/peripheral/scb/cy_scb_i2c.h **** * Function Name: Cy_SCB_I2C_SlaveGetAddressMask
1258:Generated_Source\PSoC6\pdl\drivers/peripheral/scb/cy_scb_i2c.h **** ****************************************************************************//**
1259:Generated_Source\PSoC6\pdl\drivers/peripheral/scb/cy_scb_i2c.h **** *
1260:Generated_Source\PSoC6\pdl\drivers/peripheral/scb/cy_scb_i2c.h **** * Returns the slave address mask.
1261:Generated_Source\PSoC6\pdl\drivers/peripheral/scb/cy_scb_i2c.h **** *
1262:Generated_Source\PSoC6\pdl\drivers/peripheral/scb/cy_scb_i2c.h **** * \param base
1263:Generated_Source\PSoC6\pdl\drivers/peripheral/scb/cy_scb_i2c.h **** * The pointer to the I2C SCB instance.
1264:Generated_Source\PSoC6\pdl\drivers/peripheral/scb/cy_scb_i2c.h **** *
1265:Generated_Source\PSoC6\pdl\drivers/peripheral/scb/cy_scb_i2c.h **** * \return
1266:Generated_Source\PSoC6\pdl\drivers/peripheral/scb/cy_scb_i2c.h **** * The 8-bit address mask, the upper 7 bits correspond to the slave address.
1267:Generated_Source\PSoC6\pdl\drivers/peripheral/scb/cy_scb_i2c.h **** * LSBit must always be 0.
1268:Generated_Source\PSoC6\pdl\drivers/peripheral/scb/cy_scb_i2c.h **** *
1269:Generated_Source\PSoC6\pdl\drivers/peripheral/scb/cy_scb_i2c.h **** *******************************************************************************/
1270:Generated_Source\PSoC6\pdl\drivers/peripheral/scb/cy_scb_i2c.h **** __STATIC_INLINE uint32_t Cy_SCB_I2C_SlaveGetAddressMask(CySCB_Type const *base)
1271:Generated_Source\PSoC6\pdl\drivers/peripheral/scb/cy_scb_i2c.h **** {
1272:Generated_Source\PSoC6\pdl\drivers/peripheral/scb/cy_scb_i2c.h ****     return _FLD2VAL(SCB_RX_MATCH_MASK, base->RX_MATCH);
1273:Generated_Source\PSoC6\pdl\drivers/peripheral/scb/cy_scb_i2c.h **** }
1274:Generated_Source\PSoC6\pdl\drivers/peripheral/scb/cy_scb_i2c.h **** 
1275:Generated_Source\PSoC6\pdl\drivers/peripheral/scb/cy_scb_i2c.h **** 
ARM GAS  C:\Users\salaz\AppData\Local\Temp\ccKm0KhK.s 			page 41


1276:Generated_Source\PSoC6\pdl\drivers/peripheral/scb/cy_scb_i2c.h **** /*******************************************************************************
1277:Generated_Source\PSoC6\pdl\drivers/peripheral/scb/cy_scb_i2c.h **** * Function Name: Cy_SCB_I2C_MasterSetLowPhaseDutyCycle
1278:Generated_Source\PSoC6\pdl\drivers/peripheral/scb/cy_scb_i2c.h **** ****************************************************************************//**
1279:Generated_Source\PSoC6\pdl\drivers/peripheral/scb/cy_scb_i2c.h **** *
1280:Generated_Source\PSoC6\pdl\drivers/peripheral/scb/cy_scb_i2c.h **** * This function sets the number of SCB clock cycles in the low phase of SCL.
1281:Generated_Source\PSoC6\pdl\drivers/peripheral/scb/cy_scb_i2c.h **** * If \ref Cy_SCB_I2C_SetDataRate is called after this function, the values
1282:Generated_Source\PSoC6\pdl\drivers/peripheral/scb/cy_scb_i2c.h **** * specified in this function are overwritten.
1283:Generated_Source\PSoC6\pdl\drivers/peripheral/scb/cy_scb_i2c.h **** *
1284:Generated_Source\PSoC6\pdl\drivers/peripheral/scb/cy_scb_i2c.h **** * \param base
1285:Generated_Source\PSoC6\pdl\drivers/peripheral/scb/cy_scb_i2c.h **** * The pointer to the I2C SCB instance.
1286:Generated_Source\PSoC6\pdl\drivers/peripheral/scb/cy_scb_i2c.h **** *
1287:Generated_Source\PSoC6\pdl\drivers/peripheral/scb/cy_scb_i2c.h **** * \param clockCycles
1288:Generated_Source\PSoC6\pdl\drivers/peripheral/scb/cy_scb_i2c.h **** * The number of SCB clock cycles in the low phase of SCL.
1289:Generated_Source\PSoC6\pdl\drivers/peripheral/scb/cy_scb_i2c.h **** * The valid range is 7 to 16.
1290:Generated_Source\PSoC6\pdl\drivers/peripheral/scb/cy_scb_i2c.h **** *
1291:Generated_Source\PSoC6\pdl\drivers/peripheral/scb/cy_scb_i2c.h **** * \note
1292:Generated_Source\PSoC6\pdl\drivers/peripheral/scb/cy_scb_i2c.h **** * This function should be used at your own risk. Changing the number of clock
1293:Generated_Source\PSoC6\pdl\drivers/peripheral/scb/cy_scb_i2c.h **** * cycles in a phase of SCL may violate the I2C specification. Make this
1294:Generated_Source\PSoC6\pdl\drivers/peripheral/scb/cy_scb_i2c.h **** * change only while the block is disabled.
1295:Generated_Source\PSoC6\pdl\drivers/peripheral/scb/cy_scb_i2c.h **** *
1296:Generated_Source\PSoC6\pdl\drivers/peripheral/scb/cy_scb_i2c.h **** *******************************************************************************/
1297:Generated_Source\PSoC6\pdl\drivers/peripheral/scb/cy_scb_i2c.h **** __STATIC_INLINE void Cy_SCB_I2C_MasterSetLowPhaseDutyCycle(CySCB_Type *base, uint32_t clockCycles)
1298:Generated_Source\PSoC6\pdl\drivers/peripheral/scb/cy_scb_i2c.h **** {
1299:Generated_Source\PSoC6\pdl\drivers/peripheral/scb/cy_scb_i2c.h ****     CY_ASSERT_L2(CY_SCB_I2C_IS_LOW_PHASE_CYCLES_VALID(clockCycles));
1300:Generated_Source\PSoC6\pdl\drivers/peripheral/scb/cy_scb_i2c.h **** 
1301:Generated_Source\PSoC6\pdl\drivers/peripheral/scb/cy_scb_i2c.h ****     base->I2C_CTRL = _CLR_SET_FLD32U(base->I2C_CTRL, SCB_I2C_CTRL_LOW_PHASE_OVS, (clockCycles - 1UL
1302:Generated_Source\PSoC6\pdl\drivers/peripheral/scb/cy_scb_i2c.h **** }
1303:Generated_Source\PSoC6\pdl\drivers/peripheral/scb/cy_scb_i2c.h **** 
1304:Generated_Source\PSoC6\pdl\drivers/peripheral/scb/cy_scb_i2c.h **** 
1305:Generated_Source\PSoC6\pdl\drivers/peripheral/scb/cy_scb_i2c.h **** /*******************************************************************************
1306:Generated_Source\PSoC6\pdl\drivers/peripheral/scb/cy_scb_i2c.h **** * Function Name: Cy_SCB_I2C_MasterSetHighPhaseDutyCycle
1307:Generated_Source\PSoC6\pdl\drivers/peripheral/scb/cy_scb_i2c.h **** ****************************************************************************//**
1308:Generated_Source\PSoC6\pdl\drivers/peripheral/scb/cy_scb_i2c.h **** *
1309:Generated_Source\PSoC6\pdl\drivers/peripheral/scb/cy_scb_i2c.h **** * This function sets the number of SCB clock cycles in the high phase of SCL.
1310:Generated_Source\PSoC6\pdl\drivers/peripheral/scb/cy_scb_i2c.h **** * If \ref Cy_SCB_I2C_SetDataRate is called after this function, the values
1311:Generated_Source\PSoC6\pdl\drivers/peripheral/scb/cy_scb_i2c.h **** * specified in this function get overwritten.
1312:Generated_Source\PSoC6\pdl\drivers/peripheral/scb/cy_scb_i2c.h **** *
1313:Generated_Source\PSoC6\pdl\drivers/peripheral/scb/cy_scb_i2c.h **** * \param base
1314:Generated_Source\PSoC6\pdl\drivers/peripheral/scb/cy_scb_i2c.h **** * The pointer to the I2C SCB instance.
1315:Generated_Source\PSoC6\pdl\drivers/peripheral/scb/cy_scb_i2c.h **** *
1316:Generated_Source\PSoC6\pdl\drivers/peripheral/scb/cy_scb_i2c.h **** * \param clockCycles
1317:Generated_Source\PSoC6\pdl\drivers/peripheral/scb/cy_scb_i2c.h **** * The number of SCB clock cycles in the high phase of SCL.
1318:Generated_Source\PSoC6\pdl\drivers/peripheral/scb/cy_scb_i2c.h **** * The valid range is 5 to 16.
1319:Generated_Source\PSoC6\pdl\drivers/peripheral/scb/cy_scb_i2c.h **** *
1320:Generated_Source\PSoC6\pdl\drivers/peripheral/scb/cy_scb_i2c.h **** * \note
1321:Generated_Source\PSoC6\pdl\drivers/peripheral/scb/cy_scb_i2c.h **** * This function should be used at your own risk. Changing the number of clock
1322:Generated_Source\PSoC6\pdl\drivers/peripheral/scb/cy_scb_i2c.h **** * cycles in a phase of SCL may violate the I2C specification. Make this
1323:Generated_Source\PSoC6\pdl\drivers/peripheral/scb/cy_scb_i2c.h **** * change only while the block is disabled.
1324:Generated_Source\PSoC6\pdl\drivers/peripheral/scb/cy_scb_i2c.h **** *
1325:Generated_Source\PSoC6\pdl\drivers/peripheral/scb/cy_scb_i2c.h **** *******************************************************************************/
1326:Generated_Source\PSoC6\pdl\drivers/peripheral/scb/cy_scb_i2c.h **** __STATIC_INLINE void Cy_SCB_I2C_MasterSetHighPhaseDutyCycle(CySCB_Type *base, uint32_t clockCycles)
1327:Generated_Source\PSoC6\pdl\drivers/peripheral/scb/cy_scb_i2c.h **** {
1328:Generated_Source\PSoC6\pdl\drivers/peripheral/scb/cy_scb_i2c.h ****     CY_ASSERT_L2(CY_SCB_I2C_IS_HIGH_PHASE_CYCLES_VALID(clockCycles));
1329:Generated_Source\PSoC6\pdl\drivers/peripheral/scb/cy_scb_i2c.h **** 
1330:Generated_Source\PSoC6\pdl\drivers/peripheral/scb/cy_scb_i2c.h ****     base->I2C_CTRL = _CLR_SET_FLD32U(base->I2C_CTRL, SCB_I2C_CTRL_HIGH_PHASE_OVS, (clockCycles - 1U
1331:Generated_Source\PSoC6\pdl\drivers/peripheral/scb/cy_scb_i2c.h **** }
1332:Generated_Source\PSoC6\pdl\drivers/peripheral/scb/cy_scb_i2c.h **** /** \} group_scb_i2c_general_functions */
ARM GAS  C:\Users\salaz\AppData\Local\Temp\ccKm0KhK.s 			page 42


1333:Generated_Source\PSoC6\pdl\drivers/peripheral/scb/cy_scb_i2c.h **** 
1334:Generated_Source\PSoC6\pdl\drivers/peripheral/scb/cy_scb_i2c.h **** /**
1335:Generated_Source\PSoC6\pdl\drivers/peripheral/scb/cy_scb_i2c.h **** * \addtogroup group_scb_i2c_interrupt_functions
1336:Generated_Source\PSoC6\pdl\drivers/peripheral/scb/cy_scb_i2c.h **** * \{
1337:Generated_Source\PSoC6\pdl\drivers/peripheral/scb/cy_scb_i2c.h **** */
1338:Generated_Source\PSoC6\pdl\drivers/peripheral/scb/cy_scb_i2c.h **** 
1339:Generated_Source\PSoC6\pdl\drivers/peripheral/scb/cy_scb_i2c.h **** /*******************************************************************************
1340:Generated_Source\PSoC6\pdl\drivers/peripheral/scb/cy_scb_i2c.h **** * Function Name: Cy_SCB_I2C_RegisterEventCallback
1341:Generated_Source\PSoC6\pdl\drivers/peripheral/scb/cy_scb_i2c.h **** ****************************************************************************//**
1342:Generated_Source\PSoC6\pdl\drivers/peripheral/scb/cy_scb_i2c.h **** *
1343:Generated_Source\PSoC6\pdl\drivers/peripheral/scb/cy_scb_i2c.h **** * Registers a callback function that notifies that
1344:Generated_Source\PSoC6\pdl\drivers/peripheral/scb/cy_scb_i2c.h **** * \ref group_scb_i2c_macros_callback_events occurred in the
1345:Generated_Source\PSoC6\pdl\drivers/peripheral/scb/cy_scb_i2c.h **** * \ref Cy_SCB_I2C_Interrupt.
1346:Generated_Source\PSoC6\pdl\drivers/peripheral/scb/cy_scb_i2c.h **** *
1347:Generated_Source\PSoC6\pdl\drivers/peripheral/scb/cy_scb_i2c.h **** * \param base
1348:Generated_Source\PSoC6\pdl\drivers/peripheral/scb/cy_scb_i2c.h **** * The pointer to the I2C SCB instance.
1349:Generated_Source\PSoC6\pdl\drivers/peripheral/scb/cy_scb_i2c.h **** *
1350:Generated_Source\PSoC6\pdl\drivers/peripheral/scb/cy_scb_i2c.h **** * \param callback
1351:Generated_Source\PSoC6\pdl\drivers/peripheral/scb/cy_scb_i2c.h **** * The pointer to a callback function.
1352:Generated_Source\PSoC6\pdl\drivers/peripheral/scb/cy_scb_i2c.h **** * See \ref cy_cb_scb_i2c_handle_events_t for the function prototype.
1353:Generated_Source\PSoC6\pdl\drivers/peripheral/scb/cy_scb_i2c.h **** *
1354:Generated_Source\PSoC6\pdl\drivers/peripheral/scb/cy_scb_i2c.h **** * \param context
1355:Generated_Source\PSoC6\pdl\drivers/peripheral/scb/cy_scb_i2c.h **** * The pointer to context structure \ref cy_stc_scb_i2c_context_t allocated by
1356:Generated_Source\PSoC6\pdl\drivers/peripheral/scb/cy_scb_i2c.h **** * the user. The structure is used while the I2C operation for internal
1357:Generated_Source\PSoC6\pdl\drivers/peripheral/scb/cy_scb_i2c.h **** * configuration and data retention. The user should not modify anything in
1358:Generated_Source\PSoC6\pdl\drivers/peripheral/scb/cy_scb_i2c.h **** * this structure.
1359:Generated_Source\PSoC6\pdl\drivers/peripheral/scb/cy_scb_i2c.h **** *
1360:Generated_Source\PSoC6\pdl\drivers/peripheral/scb/cy_scb_i2c.h **** * \note
1361:Generated_Source\PSoC6\pdl\drivers/peripheral/scb/cy_scb_i2c.h **** * To remove the callback, pass NULL as the pointer to the callback function.
1362:Generated_Source\PSoC6\pdl\drivers/peripheral/scb/cy_scb_i2c.h **** *
1363:Generated_Source\PSoC6\pdl\drivers/peripheral/scb/cy_scb_i2c.h **** *******************************************************************************/
1364:Generated_Source\PSoC6\pdl\drivers/peripheral/scb/cy_scb_i2c.h **** __STATIC_INLINE void Cy_SCB_I2C_RegisterEventCallback(CySCB_Type const *base,
1365:Generated_Source\PSoC6\pdl\drivers/peripheral/scb/cy_scb_i2c.h ****             cy_cb_scb_i2c_handle_events_t callback, cy_stc_scb_i2c_context_t *context)
1366:Generated_Source\PSoC6\pdl\drivers/peripheral/scb/cy_scb_i2c.h **** {
1367:Generated_Source\PSoC6\pdl\drivers/peripheral/scb/cy_scb_i2c.h ****     /* Suppress a compiler warning about unused variables */
1368:Generated_Source\PSoC6\pdl\drivers/peripheral/scb/cy_scb_i2c.h ****     (void) base;
1369:Generated_Source\PSoC6\pdl\drivers/peripheral/scb/cy_scb_i2c.h **** 
1370:Generated_Source\PSoC6\pdl\drivers/peripheral/scb/cy_scb_i2c.h ****     context->cbEvents = callback;
 377              		.loc 3 1370 0
 378 0010 114D     		ldr	r5, .L28+4
 379 0012 124B     		ldr	r3, .L28+8
 380 0014 6B64     		str	r3, [r5, #68]
 381              	.LVL30:
 382              	.LBE33:
 383              	.LBE32:
 384              	.LBE31:
 120:BusManager.c  ****     
 121:BusManager.c  ****     SensorBus_RegisterEventCallback((cy_cb_scb_i2c_handle_events_t) SensorBus_ExitCallback);
 122:BusManager.c  ****     
 123:BusManager.c  ****     AccDriver_Init();
 385              		.loc 1 123 0
 386 0016 FFF7FEFF 		bl	AccDriver_Init
 387              	.LVL31:
 124:BusManager.c  ****     
 125:BusManager.c  ****     GyrDriver_Init();
 388              		.loc 1 125 0
 389 001a FFF7FEFF 		bl	GyrDriver_Init
ARM GAS  C:\Users\salaz\AppData\Local\Temp\ccKm0KhK.s 			page 43


 390              	.LVL32:
 391              	.LBB34:
 392              	.LBB35:
 211:Generated_Source\PSoC6/SensorBus.h **** }
 393              		.loc 2 211 0
 394 001e 2900     		movs	r1, r5
 395 0020 0F48     		ldr	r0, .L28+12
 396 0022 FFF7FEFF 		bl	Cy_SCB_I2C_Disable
 397              	.LVL33:
 398              	.LBE35:
 399              	.LBE34:
 126:BusManager.c  ****     
 127:BusManager.c  ****     SensorBus_Disable(); local_bus_busy = false;
 400              		.loc 1 127 0
 401 0026 0023     		movs	r3, #0
 402 0028 6370     		strb	r3, [r4, #1]
 128:BusManager.c  ****     
 129:BusManager.c  ****     CyDelay(10); // Sensor boot delay
 403              		.loc 1 129 0
 404 002a 0A20     		movs	r0, #10
 405 002c FFF7FEFF 		bl	Cy_SysLib_Delay
 406              	.LVL34:
 130:BusManager.c  ****     
 131:BusManager.c  ****     DEBUG_PRINTF("BusManager_Init 1\r\n");
 407              		.loc 1 131 0
 408 0030 0C48     		ldr	r0, .L28+16
 409 0032 FFF7FEFF 		bl	puts
 410              	.LVL35:
 411              	.L27:
 412              	.LBB36:
 413              	.LBB37:
 414              		.file 4 "Generated_Source\\PSoC6\\pdl\\drivers/peripheral/scb/cy_scb_common.h"
   1:Generated_Source\PSoC6\pdl\drivers/peripheral/scb/cy_scb_common.h **** /***************************************************************************//**
   2:Generated_Source\PSoC6\pdl\drivers/peripheral/scb/cy_scb_common.h **** * \file cy_scb_common.h
   3:Generated_Source\PSoC6\pdl\drivers/peripheral/scb/cy_scb_common.h **** * \version 2.10
   4:Generated_Source\PSoC6\pdl\drivers/peripheral/scb/cy_scb_common.h **** *
   5:Generated_Source\PSoC6\pdl\drivers/peripheral/scb/cy_scb_common.h **** * Provides common API declarations of the SCB driver.
   6:Generated_Source\PSoC6\pdl\drivers/peripheral/scb/cy_scb_common.h **** *
   7:Generated_Source\PSoC6\pdl\drivers/peripheral/scb/cy_scb_common.h **** ********************************************************************************
   8:Generated_Source\PSoC6\pdl\drivers/peripheral/scb/cy_scb_common.h **** * \copyright
   9:Generated_Source\PSoC6\pdl\drivers/peripheral/scb/cy_scb_common.h **** * Copyright 2016-2018, Cypress Semiconductor Corporation.  All rights reserved.
  10:Generated_Source\PSoC6\pdl\drivers/peripheral/scb/cy_scb_common.h **** * You may use this file only in accordance with the license, terms, conditions,
  11:Generated_Source\PSoC6\pdl\drivers/peripheral/scb/cy_scb_common.h **** * disclaimers, and limitations in the end user license agreement accompanying
  12:Generated_Source\PSoC6\pdl\drivers/peripheral/scb/cy_scb_common.h **** * the software package with which this file was provided.
  13:Generated_Source\PSoC6\pdl\drivers/peripheral/scb/cy_scb_common.h **** *******************************************************************************/
  14:Generated_Source\PSoC6\pdl\drivers/peripheral/scb/cy_scb_common.h **** 
  15:Generated_Source\PSoC6\pdl\drivers/peripheral/scb/cy_scb_common.h **** /**
  16:Generated_Source\PSoC6\pdl\drivers/peripheral/scb/cy_scb_common.h **** * \defgroup group_scb Serial Communication Block (SCB)
  17:Generated_Source\PSoC6\pdl\drivers/peripheral/scb/cy_scb_common.h **** * \{
  18:Generated_Source\PSoC6\pdl\drivers/peripheral/scb/cy_scb_common.h **** * \defgroup group_scb_common Common
  19:Generated_Source\PSoC6\pdl\drivers/peripheral/scb/cy_scb_common.h **** * \defgroup group_scb_ezi2c  EZI2C (SCB)
  20:Generated_Source\PSoC6\pdl\drivers/peripheral/scb/cy_scb_common.h **** * \defgroup group_scb_i2c    I2C (SCB)
  21:Generated_Source\PSoC6\pdl\drivers/peripheral/scb/cy_scb_common.h **** * \defgroup group_scb_spi    SPI (SCB)
  22:Generated_Source\PSoC6\pdl\drivers/peripheral/scb/cy_scb_common.h **** * \defgroup group_scb_uart   UART (SCB)
  23:Generated_Source\PSoC6\pdl\drivers/peripheral/scb/cy_scb_common.h **** * \} */
  24:Generated_Source\PSoC6\pdl\drivers/peripheral/scb/cy_scb_common.h **** 
  25:Generated_Source\PSoC6\pdl\drivers/peripheral/scb/cy_scb_common.h **** /**
ARM GAS  C:\Users\salaz\AppData\Local\Temp\ccKm0KhK.s 			page 44


  26:Generated_Source\PSoC6\pdl\drivers/peripheral/scb/cy_scb_common.h **** * \addtogroup group_scb_common
  27:Generated_Source\PSoC6\pdl\drivers/peripheral/scb/cy_scb_common.h **** * \{
  28:Generated_Source\PSoC6\pdl\drivers/peripheral/scb/cy_scb_common.h **** *
  29:Generated_Source\PSoC6\pdl\drivers/peripheral/scb/cy_scb_common.h **** * Common API for the Serial Communication Block.
  30:Generated_Source\PSoC6\pdl\drivers/peripheral/scb/cy_scb_common.h **** *
  31:Generated_Source\PSoC6\pdl\drivers/peripheral/scb/cy_scb_common.h **** * This is the common API that provides an interface to the SCB hardware.
  32:Generated_Source\PSoC6\pdl\drivers/peripheral/scb/cy_scb_common.h **** * The I2C, SPI, and UART drivers use this common API.
  33:Generated_Source\PSoC6\pdl\drivers/peripheral/scb/cy_scb_common.h **** * Most users will use individual drivers and do not need to use the common
  34:Generated_Source\PSoC6\pdl\drivers/peripheral/scb/cy_scb_common.h **** * API for the SCB. However, you can use the common SCB API to implement
  35:Generated_Source\PSoC6\pdl\drivers/peripheral/scb/cy_scb_common.h **** * a custom driver based on the SCB hardware.
  36:Generated_Source\PSoC6\pdl\drivers/peripheral/scb/cy_scb_common.h **** *
  37:Generated_Source\PSoC6\pdl\drivers/peripheral/scb/cy_scb_common.h **** * \section group_scb_common_configuration Configuration Considerations
  38:Generated_Source\PSoC6\pdl\drivers/peripheral/scb/cy_scb_common.h **** *
  39:Generated_Source\PSoC6\pdl\drivers/peripheral/scb/cy_scb_common.h **** * This is not a driver and it does not require configuration.
  40:Generated_Source\PSoC6\pdl\drivers/peripheral/scb/cy_scb_common.h **** *
  41:Generated_Source\PSoC6\pdl\drivers/peripheral/scb/cy_scb_common.h **** * \section group_scb_common_more_information More Information
  42:Generated_Source\PSoC6\pdl\drivers/peripheral/scb/cy_scb_common.h **** *
  43:Generated_Source\PSoC6\pdl\drivers/peripheral/scb/cy_scb_common.h **** * Refer to the SCB chapter of the technical reference manual (TRM).
  44:Generated_Source\PSoC6\pdl\drivers/peripheral/scb/cy_scb_common.h **** *
  45:Generated_Source\PSoC6\pdl\drivers/peripheral/scb/cy_scb_common.h **** * \section group_scb_common_MISRA MISRA-C Compliance
  46:Generated_Source\PSoC6\pdl\drivers/peripheral/scb/cy_scb_common.h **** * <table class="doxtable">
  47:Generated_Source\PSoC6\pdl\drivers/peripheral/scb/cy_scb_common.h **** *   <tr>
  48:Generated_Source\PSoC6\pdl\drivers/peripheral/scb/cy_scb_common.h **** *     <th>MISRA rule</th>
  49:Generated_Source\PSoC6\pdl\drivers/peripheral/scb/cy_scb_common.h **** *     <th>Rule Class (Required/Advisory)</th>
  50:Generated_Source\PSoC6\pdl\drivers/peripheral/scb/cy_scb_common.h **** *     <th>Rule Description</th>
  51:Generated_Source\PSoC6\pdl\drivers/peripheral/scb/cy_scb_common.h **** *     <th>Description of Deviation(s)</th>
  52:Generated_Source\PSoC6\pdl\drivers/peripheral/scb/cy_scb_common.h **** *   </tr>
  53:Generated_Source\PSoC6\pdl\drivers/peripheral/scb/cy_scb_common.h **** *   <tr>
  54:Generated_Source\PSoC6\pdl\drivers/peripheral/scb/cy_scb_common.h **** *     <td>11.4</td>
  55:Generated_Source\PSoC6\pdl\drivers/peripheral/scb/cy_scb_common.h **** *     <td>A</td>
  56:Generated_Source\PSoC6\pdl\drivers/peripheral/scb/cy_scb_common.h **** *     <td>A cast should not be performed between a pointer to object type and
  57:Generated_Source\PSoC6\pdl\drivers/peripheral/scb/cy_scb_common.h **** *         a different pointer to object type.</td>
  58:Generated_Source\PSoC6\pdl\drivers/peripheral/scb/cy_scb_common.h **** *     <td>The pointer to the buffer memory is void to allow handling of
  59:Generated_Source\PSoC6\pdl\drivers/peripheral/scb/cy_scb_common.h **** *         different data types: uint8_t (4-8 bits) or uint16_t (9-16 bits).
  60:Generated_Source\PSoC6\pdl\drivers/peripheral/scb/cy_scb_common.h **** *         The cast operation is safe because the configuration is verified
  61:Generated_Source\PSoC6\pdl\drivers/peripheral/scb/cy_scb_common.h **** *         before operation is performed.
  62:Generated_Source\PSoC6\pdl\drivers/peripheral/scb/cy_scb_common.h **** *         </td>
  63:Generated_Source\PSoC6\pdl\drivers/peripheral/scb/cy_scb_common.h **** *   </tr>
  64:Generated_Source\PSoC6\pdl\drivers/peripheral/scb/cy_scb_common.h **** * </table>
  65:Generated_Source\PSoC6\pdl\drivers/peripheral/scb/cy_scb_common.h **** *
  66:Generated_Source\PSoC6\pdl\drivers/peripheral/scb/cy_scb_common.h **** * \section group_scb_common_changelog Changelog
  67:Generated_Source\PSoC6\pdl\drivers/peripheral/scb/cy_scb_common.h **** * <table class="doxtable">
  68:Generated_Source\PSoC6\pdl\drivers/peripheral/scb/cy_scb_common.h **** *   <tr><th>Version</th><th>Changes</th><th>Reason for Change</th></tr>
  69:Generated_Source\PSoC6\pdl\drivers/peripheral/scb/cy_scb_common.h **** *   <tr>
  70:Generated_Source\PSoC6\pdl\drivers/peripheral/scb/cy_scb_common.h **** *     <td>2.10</td>
  71:Generated_Source\PSoC6\pdl\drivers/peripheral/scb/cy_scb_common.h **** *     <td>None.</td>
  72:Generated_Source\PSoC6\pdl\drivers/peripheral/scb/cy_scb_common.h **** *     <td>SCB I2C driver updated.</td>
  73:Generated_Source\PSoC6\pdl\drivers/peripheral/scb/cy_scb_common.h **** *   </tr>
  74:Generated_Source\PSoC6\pdl\drivers/peripheral/scb/cy_scb_common.h **** *   <tr>
  75:Generated_Source\PSoC6\pdl\drivers/peripheral/scb/cy_scb_common.h **** *     <td rowspan="2"> 2.0</td>
  76:Generated_Source\PSoC6\pdl\drivers/peripheral/scb/cy_scb_common.h **** *     <td>Added parameters validation for public API.
  77:Generated_Source\PSoC6\pdl\drivers/peripheral/scb/cy_scb_common.h **** *     <td></td>
  78:Generated_Source\PSoC6\pdl\drivers/peripheral/scb/cy_scb_common.h **** *   </tr>
  79:Generated_Source\PSoC6\pdl\drivers/peripheral/scb/cy_scb_common.h **** *   <tr>
  80:Generated_Source\PSoC6\pdl\drivers/peripheral/scb/cy_scb_common.h **** *     <td>Fixed functions which return interrupt status to return only defined
  81:Generated_Source\PSoC6\pdl\drivers/peripheral/scb/cy_scb_common.h **** *         set of interrupt statuses.</td>
  82:Generated_Source\PSoC6\pdl\drivers/peripheral/scb/cy_scb_common.h **** *     <td></td>
ARM GAS  C:\Users\salaz\AppData\Local\Temp\ccKm0KhK.s 			page 45


  83:Generated_Source\PSoC6\pdl\drivers/peripheral/scb/cy_scb_common.h **** *   </tr>
  84:Generated_Source\PSoC6\pdl\drivers/peripheral/scb/cy_scb_common.h **** *   <tr>
  85:Generated_Source\PSoC6\pdl\drivers/peripheral/scb/cy_scb_common.h **** *     <td>1.0</td>
  86:Generated_Source\PSoC6\pdl\drivers/peripheral/scb/cy_scb_common.h **** *     <td>Initial version.</td>
  87:Generated_Source\PSoC6\pdl\drivers/peripheral/scb/cy_scb_common.h **** *     <td></td>
  88:Generated_Source\PSoC6\pdl\drivers/peripheral/scb/cy_scb_common.h **** *   </tr>
  89:Generated_Source\PSoC6\pdl\drivers/peripheral/scb/cy_scb_common.h **** * </table>
  90:Generated_Source\PSoC6\pdl\drivers/peripheral/scb/cy_scb_common.h **** *
  91:Generated_Source\PSoC6\pdl\drivers/peripheral/scb/cy_scb_common.h **** * \defgroup group_scb_common_macros Macros
  92:Generated_Source\PSoC6\pdl\drivers/peripheral/scb/cy_scb_common.h **** * \defgroup group_scb_common_functions Functions
  93:Generated_Source\PSoC6\pdl\drivers/peripheral/scb/cy_scb_common.h **** * \defgroup group_scb_common_data_structures Data Structures
  94:Generated_Source\PSoC6\pdl\drivers/peripheral/scb/cy_scb_common.h **** *
  95:Generated_Source\PSoC6\pdl\drivers/peripheral/scb/cy_scb_common.h **** */
  96:Generated_Source\PSoC6\pdl\drivers/peripheral/scb/cy_scb_common.h **** 
  97:Generated_Source\PSoC6\pdl\drivers/peripheral/scb/cy_scb_common.h **** #if !defined(CY_SCB_COMMON_H)
  98:Generated_Source\PSoC6\pdl\drivers/peripheral/scb/cy_scb_common.h **** #define CY_SCB_COMMON_H
  99:Generated_Source\PSoC6\pdl\drivers/peripheral/scb/cy_scb_common.h **** 
 100:Generated_Source\PSoC6\pdl\drivers/peripheral/scb/cy_scb_common.h **** #include <stdint.h>
 101:Generated_Source\PSoC6\pdl\drivers/peripheral/scb/cy_scb_common.h **** #include <stddef.h>
 102:Generated_Source\PSoC6\pdl\drivers/peripheral/scb/cy_scb_common.h **** #include <stdbool.h>
 103:Generated_Source\PSoC6\pdl\drivers/peripheral/scb/cy_scb_common.h **** #include "cy_device_headers.h"
 104:Generated_Source\PSoC6\pdl\drivers/peripheral/scb/cy_scb_common.h **** #include "syslib/cy_syslib.h"
 105:Generated_Source\PSoC6\pdl\drivers/peripheral/scb/cy_scb_common.h **** #include "syspm/cy_syspm.h"
 106:Generated_Source\PSoC6\pdl\drivers/peripheral/scb/cy_scb_common.h **** 
 107:Generated_Source\PSoC6\pdl\drivers/peripheral/scb/cy_scb_common.h **** #ifndef CY_IP_MXSCB
 108:Generated_Source\PSoC6\pdl\drivers/peripheral/scb/cy_scb_common.h ****     #error "The SCB driver is not supported on this device"
 109:Generated_Source\PSoC6\pdl\drivers/peripheral/scb/cy_scb_common.h **** #endif
 110:Generated_Source\PSoC6\pdl\drivers/peripheral/scb/cy_scb_common.h **** 
 111:Generated_Source\PSoC6\pdl\drivers/peripheral/scb/cy_scb_common.h **** #if defined(__cplusplus)
 112:Generated_Source\PSoC6\pdl\drivers/peripheral/scb/cy_scb_common.h **** extern "C" {
 113:Generated_Source\PSoC6\pdl\drivers/peripheral/scb/cy_scb_common.h **** #endif
 114:Generated_Source\PSoC6\pdl\drivers/peripheral/scb/cy_scb_common.h **** 
 115:Generated_Source\PSoC6\pdl\drivers/peripheral/scb/cy_scb_common.h **** 
 116:Generated_Source\PSoC6\pdl\drivers/peripheral/scb/cy_scb_common.h **** /***************************************
 117:Generated_Source\PSoC6\pdl\drivers/peripheral/scb/cy_scb_common.h **** *        Function Prototypes
 118:Generated_Source\PSoC6\pdl\drivers/peripheral/scb/cy_scb_common.h **** ***************************************/
 119:Generated_Source\PSoC6\pdl\drivers/peripheral/scb/cy_scb_common.h **** 
 120:Generated_Source\PSoC6\pdl\drivers/peripheral/scb/cy_scb_common.h **** /**
 121:Generated_Source\PSoC6\pdl\drivers/peripheral/scb/cy_scb_common.h **** * \addtogroup group_scb_common_functions
 122:Generated_Source\PSoC6\pdl\drivers/peripheral/scb/cy_scb_common.h **** * \{
 123:Generated_Source\PSoC6\pdl\drivers/peripheral/scb/cy_scb_common.h **** */
 124:Generated_Source\PSoC6\pdl\drivers/peripheral/scb/cy_scb_common.h **** __STATIC_INLINE uint32_t Cy_SCB_ReadRxFifo    (CySCB_Type const *base);
 125:Generated_Source\PSoC6\pdl\drivers/peripheral/scb/cy_scb_common.h **** __STATIC_INLINE void     Cy_SCB_SetRxFifoLevel(CySCB_Type *base, uint32_t level);
 126:Generated_Source\PSoC6\pdl\drivers/peripheral/scb/cy_scb_common.h **** __STATIC_INLINE uint32_t Cy_SCB_GetNumInRxFifo(CySCB_Type const *base);
 127:Generated_Source\PSoC6\pdl\drivers/peripheral/scb/cy_scb_common.h **** __STATIC_INLINE uint32_t Cy_SCB_GetRxSrValid  (CySCB_Type const *base);
 128:Generated_Source\PSoC6\pdl\drivers/peripheral/scb/cy_scb_common.h **** __STATIC_INLINE void     Cy_SCB_ClearRxFifo   (CySCB_Type *base);
 129:Generated_Source\PSoC6\pdl\drivers/peripheral/scb/cy_scb_common.h **** 
 130:Generated_Source\PSoC6\pdl\drivers/peripheral/scb/cy_scb_common.h **** __STATIC_INLINE void     Cy_SCB_WriteTxFifo   (CySCB_Type *base, uint32_t data);
 131:Generated_Source\PSoC6\pdl\drivers/peripheral/scb/cy_scb_common.h **** __STATIC_INLINE void     Cy_SCB_SetTxFifoLevel(CySCB_Type *base, uint32_t level);
 132:Generated_Source\PSoC6\pdl\drivers/peripheral/scb/cy_scb_common.h **** __STATIC_INLINE uint32_t Cy_SCB_GetNumInTxFifo(CySCB_Type const *base);
 133:Generated_Source\PSoC6\pdl\drivers/peripheral/scb/cy_scb_common.h **** __STATIC_INLINE uint32_t Cy_SCB_GetTxSrValid  (CySCB_Type const *base);
 134:Generated_Source\PSoC6\pdl\drivers/peripheral/scb/cy_scb_common.h **** __STATIC_INLINE bool     Cy_SCB_IsTxComplete  (CySCB_Type const *base);
 135:Generated_Source\PSoC6\pdl\drivers/peripheral/scb/cy_scb_common.h **** __STATIC_INLINE void     Cy_SCB_ClearTxFifo   (CySCB_Type *base);
 136:Generated_Source\PSoC6\pdl\drivers/peripheral/scb/cy_scb_common.h **** 
 137:Generated_Source\PSoC6\pdl\drivers/peripheral/scb/cy_scb_common.h **** __STATIC_INLINE void     Cy_SCB_SetByteMode(CySCB_Type *base, bool byteMode);
 138:Generated_Source\PSoC6\pdl\drivers/peripheral/scb/cy_scb_common.h **** 
 139:Generated_Source\PSoC6\pdl\drivers/peripheral/scb/cy_scb_common.h **** __STATIC_INLINE uint32_t Cy_SCB_GetInterruptCause(CySCB_Type const *base);
ARM GAS  C:\Users\salaz\AppData\Local\Temp\ccKm0KhK.s 			page 46


 140:Generated_Source\PSoC6\pdl\drivers/peripheral/scb/cy_scb_common.h **** 
 141:Generated_Source\PSoC6\pdl\drivers/peripheral/scb/cy_scb_common.h **** __STATIC_INLINE uint32_t Cy_SCB_GetRxInterruptStatus(CySCB_Type const *base);
 142:Generated_Source\PSoC6\pdl\drivers/peripheral/scb/cy_scb_common.h **** __STATIC_INLINE void     Cy_SCB_SetRxInterruptMask  (CySCB_Type *base, uint32_t interruptMask);
 143:Generated_Source\PSoC6\pdl\drivers/peripheral/scb/cy_scb_common.h **** __STATIC_INLINE uint32_t Cy_SCB_GetRxInterruptMask  (CySCB_Type const *base);
 144:Generated_Source\PSoC6\pdl\drivers/peripheral/scb/cy_scb_common.h **** __STATIC_INLINE uint32_t Cy_SCB_GetRxInterruptStatusMasked(CySCB_Type const *base);
 145:Generated_Source\PSoC6\pdl\drivers/peripheral/scb/cy_scb_common.h **** __STATIC_INLINE void     Cy_SCB_ClearRxInterrupt    (CySCB_Type *base, uint32_t interruptMask);
 146:Generated_Source\PSoC6\pdl\drivers/peripheral/scb/cy_scb_common.h **** __STATIC_INLINE void     Cy_SCB_SetRxInterrupt      (CySCB_Type *base, uint32_t interruptMask);
 147:Generated_Source\PSoC6\pdl\drivers/peripheral/scb/cy_scb_common.h **** 
 148:Generated_Source\PSoC6\pdl\drivers/peripheral/scb/cy_scb_common.h **** __STATIC_INLINE uint32_t Cy_SCB_GetTxInterruptStatus(CySCB_Type const *base);
 149:Generated_Source\PSoC6\pdl\drivers/peripheral/scb/cy_scb_common.h **** __STATIC_INLINE void     Cy_SCB_SetTxInterruptMask  (CySCB_Type *base, uint32_t interruptMask);
 150:Generated_Source\PSoC6\pdl\drivers/peripheral/scb/cy_scb_common.h **** __STATIC_INLINE uint32_t Cy_SCB_GetTxInterruptMask  (CySCB_Type const *base);
 151:Generated_Source\PSoC6\pdl\drivers/peripheral/scb/cy_scb_common.h **** __STATIC_INLINE uint32_t Cy_SCB_GetTxInterruptStatusMasked(CySCB_Type const *base);
 152:Generated_Source\PSoC6\pdl\drivers/peripheral/scb/cy_scb_common.h **** __STATIC_INLINE void     Cy_SCB_ClearTxInterrupt    (CySCB_Type *base, uint32_t interruptMask);
 153:Generated_Source\PSoC6\pdl\drivers/peripheral/scb/cy_scb_common.h **** __STATIC_INLINE void     Cy_SCB_SetTxInterrupt      (CySCB_Type *base, uint32_t interruptMask);
 154:Generated_Source\PSoC6\pdl\drivers/peripheral/scb/cy_scb_common.h **** 
 155:Generated_Source\PSoC6\pdl\drivers/peripheral/scb/cy_scb_common.h **** __STATIC_INLINE uint32_t Cy_SCB_GetMasterInterruptStatus(CySCB_Type const *base);
 156:Generated_Source\PSoC6\pdl\drivers/peripheral/scb/cy_scb_common.h **** __STATIC_INLINE void     Cy_SCB_SetMasterInterruptMask  (CySCB_Type *base, uint32_t interruptMask);
 157:Generated_Source\PSoC6\pdl\drivers/peripheral/scb/cy_scb_common.h **** __STATIC_INLINE uint32_t Cy_SCB_GetMasterInterruptMask  (CySCB_Type const *base);
 158:Generated_Source\PSoC6\pdl\drivers/peripheral/scb/cy_scb_common.h **** __STATIC_INLINE uint32_t Cy_SCB_GetMasterInterruptStatusMasked(CySCB_Type const *base);
 159:Generated_Source\PSoC6\pdl\drivers/peripheral/scb/cy_scb_common.h **** __STATIC_INLINE void     Cy_SCB_ClearMasterInterrupt    (CySCB_Type *base, uint32_t interruptMask);
 160:Generated_Source\PSoC6\pdl\drivers/peripheral/scb/cy_scb_common.h **** __STATIC_INLINE void     Cy_SCB_SetMasterInterrupt      (CySCB_Type *base, uint32_t interruptMask);
 161:Generated_Source\PSoC6\pdl\drivers/peripheral/scb/cy_scb_common.h **** 
 162:Generated_Source\PSoC6\pdl\drivers/peripheral/scb/cy_scb_common.h **** __STATIC_INLINE uint32_t Cy_SCB_GetSlaveInterruptStatus(CySCB_Type const *base);
 163:Generated_Source\PSoC6\pdl\drivers/peripheral/scb/cy_scb_common.h **** __STATIC_INLINE void     Cy_SCB_SetSlaveInterruptMask  (CySCB_Type *base, uint32_t interruptMask);
 164:Generated_Source\PSoC6\pdl\drivers/peripheral/scb/cy_scb_common.h **** __STATIC_INLINE uint32_t Cy_SCB_GetSlaveInterruptMask  (CySCB_Type const *base);
 165:Generated_Source\PSoC6\pdl\drivers/peripheral/scb/cy_scb_common.h **** __STATIC_INLINE uint32_t Cy_SCB_GetSlaveInterruptStatusMasked(CySCB_Type const *base);
 166:Generated_Source\PSoC6\pdl\drivers/peripheral/scb/cy_scb_common.h **** __STATIC_INLINE void     Cy_SCB_ClearSlaveInterrupt    (CySCB_Type *base, uint32_t interruptMask);
 167:Generated_Source\PSoC6\pdl\drivers/peripheral/scb/cy_scb_common.h **** __STATIC_INLINE void     Cy_SCB_SetSlaveInterrupt      (CySCB_Type *base, uint32_t interruptMask);
 168:Generated_Source\PSoC6\pdl\drivers/peripheral/scb/cy_scb_common.h **** 
 169:Generated_Source\PSoC6\pdl\drivers/peripheral/scb/cy_scb_common.h **** __STATIC_INLINE uint32_t Cy_SCB_GetI2CInterruptStatus(CySCB_Type const *base);
 170:Generated_Source\PSoC6\pdl\drivers/peripheral/scb/cy_scb_common.h **** __STATIC_INLINE void     Cy_SCB_SetI2CInterruptMask  (CySCB_Type *base, uint32_t interruptMask);
 171:Generated_Source\PSoC6\pdl\drivers/peripheral/scb/cy_scb_common.h **** __STATIC_INLINE uint32_t Cy_SCB_GetI2CInterruptMask  (CySCB_Type const *base);
 172:Generated_Source\PSoC6\pdl\drivers/peripheral/scb/cy_scb_common.h **** __STATIC_INLINE uint32_t Cy_SCB_GetI2CInterruptStatusMasked(CySCB_Type const *base);
 173:Generated_Source\PSoC6\pdl\drivers/peripheral/scb/cy_scb_common.h **** __STATIC_INLINE void     Cy_SCB_ClearI2CInterrupt    (CySCB_Type *base, uint32_t interruptMask);
 174:Generated_Source\PSoC6\pdl\drivers/peripheral/scb/cy_scb_common.h **** 
 175:Generated_Source\PSoC6\pdl\drivers/peripheral/scb/cy_scb_common.h **** __STATIC_INLINE uint32_t Cy_SCB_GetSpiInterruptStatus(CySCB_Type const *base);
 176:Generated_Source\PSoC6\pdl\drivers/peripheral/scb/cy_scb_common.h **** __STATIC_INLINE void     Cy_SCB_SetSpiInterruptMask  (CySCB_Type *base, uint32_t interruptMask);
 177:Generated_Source\PSoC6\pdl\drivers/peripheral/scb/cy_scb_common.h **** __STATIC_INLINE uint32_t Cy_SCB_GetSpiInterruptMask  (CySCB_Type const *base);
 178:Generated_Source\PSoC6\pdl\drivers/peripheral/scb/cy_scb_common.h **** __STATIC_INLINE uint32_t Cy_SCB_GetSpiInterruptStatusMasked(CySCB_Type const *base);
 179:Generated_Source\PSoC6\pdl\drivers/peripheral/scb/cy_scb_common.h **** __STATIC_INLINE void     Cy_SCB_ClearSpiInterrupt    (CySCB_Type *base, uint32_t interruptMask);
 180:Generated_Source\PSoC6\pdl\drivers/peripheral/scb/cy_scb_common.h **** 
 181:Generated_Source\PSoC6\pdl\drivers/peripheral/scb/cy_scb_common.h **** 
 182:Generated_Source\PSoC6\pdl\drivers/peripheral/scb/cy_scb_common.h **** /***************************************
 183:Generated_Source\PSoC6\pdl\drivers/peripheral/scb/cy_scb_common.h **** *     Internal Function Prototypes
 184:Generated_Source\PSoC6\pdl\drivers/peripheral/scb/cy_scb_common.h **** ***************************************/
 185:Generated_Source\PSoC6\pdl\drivers/peripheral/scb/cy_scb_common.h **** 
 186:Generated_Source\PSoC6\pdl\drivers/peripheral/scb/cy_scb_common.h **** /** \cond INTERNAL */
 187:Generated_Source\PSoC6\pdl\drivers/peripheral/scb/cy_scb_common.h **** void     Cy_SCB_ReadArrayNoCheck  (CySCB_Type const *base, void *buffer, uint32_t size);
 188:Generated_Source\PSoC6\pdl\drivers/peripheral/scb/cy_scb_common.h **** uint32_t Cy_SCB_ReadArray         (CySCB_Type const *base, void *buffer, uint32_t size);
 189:Generated_Source\PSoC6\pdl\drivers/peripheral/scb/cy_scb_common.h **** void     Cy_SCB_ReadArrayBlocking (CySCB_Type const *base, void *buffer, uint32_t size);
 190:Generated_Source\PSoC6\pdl\drivers/peripheral/scb/cy_scb_common.h **** uint32_t Cy_SCB_Write             (CySCB_Type *base, uint32_t data);
 191:Generated_Source\PSoC6\pdl\drivers/peripheral/scb/cy_scb_common.h **** void     Cy_SCB_WriteArrayNoCheck (CySCB_Type *base, void *buffer, uint32_t size);
 192:Generated_Source\PSoC6\pdl\drivers/peripheral/scb/cy_scb_common.h **** uint32_t Cy_SCB_WriteArray        (CySCB_Type *base, void *buffer, uint32_t size);
 193:Generated_Source\PSoC6\pdl\drivers/peripheral/scb/cy_scb_common.h **** void     Cy_SCB_WriteArrayBlocking(CySCB_Type *base, void *buffer, uint32_t size);
