ARM GAS  C:\Users\salaz\AppData\Local\Temp\ccNrmU9z.s 			page 1


   1              		.syntax unified
   2              		.cpu cortex-m0plus
   3              		.fpu softvfp
   4              		.eabi_attribute 20, 1
   5              		.eabi_attribute 21, 1
   6              		.eabi_attribute 23, 3
   7              		.eabi_attribute 24, 1
   8              		.eabi_attribute 25, 1
   9              		.eabi_attribute 26, 1
  10              		.eabi_attribute 30, 1
  11              		.eabi_attribute 34, 0
  12              		.eabi_attribute 18, 4
  13              		.thumb
  14              		.syntax unified
  15              		.file	"TxBuffer.c"
  16              		.text
  17              	.Ltext0:
  18              		.cfi_sections	.debug_frame
  19              		.section	.text.TxBuffer_MemoryToBuffer,"ax",%progbits
  20              		.align	2
  21              		.global	TxBuffer_MemoryToBuffer
  22              		.code	16
  23              		.thumb_func
  24              		.type	TxBuffer_MemoryToBuffer, %function
  25              	TxBuffer_MemoryToBuffer:
  26              	.LFB795:
  27              		.file 1 "TxBuffer.c"
   1:TxBuffer.c    **** 
   2:TxBuffer.c    **** #include <TxBuffer.h>
   3:TxBuffer.c    **** 
   4:TxBuffer.c    **** //-------------------------------------------------------------//
   5:TxBuffer.c    **** 
   6:TxBuffer.c    **** static uint8 *buffer; // Circular Buffer
   7:TxBuffer.c    **** static uint32 head = 0; // Buffer Head
   8:TxBuffer.c    **** static uint32 tail = 0; // Buffer Tail
   9:TxBuffer.c    **** static uint32 size = 0; // Buffer Size
  10:TxBuffer.c    **** 
  11:TxBuffer.c    **** //-------------------------------------------------------------//
  12:TxBuffer.c    **** //------------------------DATA-TRANSFER------------------------//
  13:TxBuffer.c    **** //-------------------------------------------------------------//
  14:TxBuffer.c    **** 
  15:TxBuffer.c    **** bool TxBuffer_MemoryToBuffer(uint32 num_bytes, uint8 *data)
  16:TxBuffer.c    **** {    
  28              		.loc 1 16 0
  29              		.cfi_startproc
  30              		@ args = 0, pretend = 0, frame = 0
  31              		@ frame_needed = 0, uses_anonymous_args = 0
  32              	.LVL0:
  33 0000 30B5     		push	{r4, r5, lr}
  34              		.cfi_def_cfa_offset 12
  35              		.cfi_offset 4, -12
  36              		.cfi_offset 5, -8
  37              		.cfi_offset 14, -4
  17:TxBuffer.c    ****     if( num_bytes > (TX_BUFFER_SIZE-size) )
  38              		.loc 1 17 0
  39 0002 104B     		ldr	r3, .L8
  40 0004 1A68     		ldr	r2, [r3]
ARM GAS  C:\Users\salaz\AppData\Local\Temp\ccNrmU9z.s 			page 2


  41 0006 FA23     		movs	r3, #250
  42 0008 9B00     		lsls	r3, r3, #2
  43 000a 9B1A     		subs	r3, r3, r2
  44 000c 8342     		cmp	r3, r0
  45 000e 16D3     		bcc	.L6
  18:TxBuffer.c    ****     {
  19:TxBuffer.c    ****         return false; // Cant fit
  20:TxBuffer.c    ****     }
  21:TxBuffer.c    ****     size = size + num_bytes;
  46              		.loc 1 21 0
  47 0010 1218     		adds	r2, r2, r0
  48 0012 0C4B     		ldr	r3, .L8
  49 0014 1A60     		str	r2, [r3]
  22:TxBuffer.c    ****     
  23:TxBuffer.c    ****     static uint8 *ptr;
  24:TxBuffer.c    ****     uint32 offset = head;
  50              		.loc 1 24 0
  51 0016 5B68     		ldr	r3, [r3, #4]
  52              	.LVL1:
  53              	.LBB2:
  25:TxBuffer.c    ****     
  26:TxBuffer.c    ****     for( uint32 i=0; i<num_bytes; i++ )
  54              		.loc 1 26 0
  55 0018 0022     		movs	r2, #0
  56 001a 0AE0     		b	.L3
  57              	.LVL2:
  58              	.L5:
  27:TxBuffer.c    ****     {
  28:TxBuffer.c    ****         ptr = (uint8*)(buffer + offset);
  59              		.loc 1 28 0
  60 001c 094C     		ldr	r4, .L8
  61 001e A468     		ldr	r4, [r4, #8]
  29:TxBuffer.c    ****         *ptr = data[i];
  62              		.loc 1 29 0
  63 0020 8D5C     		ldrb	r5, [r1, r2]
  64 0022 E554     		strb	r5, [r4, r3]
  30:TxBuffer.c    ****         
  31:TxBuffer.c    ****         if( ++offset == TX_BUFFER_SIZE ) offset = 0;
  65              		.loc 1 31 0
  66 0024 0133     		adds	r3, r3, #1
  67              	.LVL3:
  68 0026 FA24     		movs	r4, #250
  69 0028 A400     		lsls	r4, r4, #2
  70 002a A342     		cmp	r3, r4
  71 002c 00D1     		bne	.L4
  72 002e 0023     		movs	r3, #0
  73              	.LVL4:
  74              	.L4:
  26:TxBuffer.c    ****     {
  75              		.loc 1 26 0 discriminator 2
  76 0030 0132     		adds	r2, r2, #1
  77              	.LVL5:
  78              	.L3:
  26:TxBuffer.c    ****     {
  79              		.loc 1 26 0 is_stmt 0 discriminator 1
  80 0032 8242     		cmp	r2, r0
  81 0034 F2D3     		bcc	.L5
ARM GAS  C:\Users\salaz\AppData\Local\Temp\ccNrmU9z.s 			page 3


  82              	.LBE2:
  32:TxBuffer.c    ****     }
  33:TxBuffer.c    ****     head = offset;
  83              		.loc 1 33 0 is_stmt 1
  84 0036 034A     		ldr	r2, .L8
  85              	.LVL6:
  86 0038 5360     		str	r3, [r2, #4]
  34:TxBuffer.c    ****     
  35:TxBuffer.c    ****     return true;
  87              		.loc 1 35 0
  88 003a 0120     		movs	r0, #1
  89              	.LVL7:
  90 003c 00E0     		b	.L2
  91              	.LVL8:
  92              	.L6:
  19:TxBuffer.c    ****     }
  93              		.loc 1 19 0
  94 003e 0020     		movs	r0, #0
  95              	.LVL9:
  96              	.L2:
  36:TxBuffer.c    **** }
  97              		.loc 1 36 0
  98              		@ sp needed
  99 0040 30BD     		pop	{r4, r5, pc}
 100              	.L9:
 101 0042 C046     		.align	2
 102              	.L8:
 103 0044 00000000 		.word	.LANCHOR0
 104              		.cfi_endproc
 105              	.LFE795:
 106              		.size	TxBuffer_MemoryToBuffer, .-TxBuffer_MemoryToBuffer
 107              		.section	.text.TxBuffer_BufferToMemory,"ax",%progbits
 108              		.align	2
 109              		.global	TxBuffer_BufferToMemory
 110              		.code	16
 111              		.thumb_func
 112              		.type	TxBuffer_BufferToMemory, %function
 113              	TxBuffer_BufferToMemory:
 114              	.LFB796:
  37:TxBuffer.c    **** bool TxBuffer_BufferToMemory(uint32 num_bytes, uint8 *data)
  38:TxBuffer.c    **** {
 115              		.loc 1 38 0
 116              		.cfi_startproc
 117              		@ args = 0, pretend = 0, frame = 0
 118              		@ frame_needed = 0, uses_anonymous_args = 0
 119              	.LVL10:
 120 0000 10B5     		push	{r4, lr}
 121              		.cfi_def_cfa_offset 8
 122              		.cfi_offset 4, -8
 123              		.cfi_offset 14, -4
  39:TxBuffer.c    ****     if( num_bytes > size )
 124              		.loc 1 39 0
 125 0002 0E4B     		ldr	r3, .L17
 126 0004 1B68     		ldr	r3, [r3]
 127 0006 8342     		cmp	r3, r0
 128 0008 16D3     		bcc	.L15
  40:TxBuffer.c    ****     {
ARM GAS  C:\Users\salaz\AppData\Local\Temp\ccNrmU9z.s 			page 4


  41:TxBuffer.c    ****         return false;
  42:TxBuffer.c    ****     }
  43:TxBuffer.c    ****     size = size - num_bytes;
 129              		.loc 1 43 0
 130 000a 1B1A     		subs	r3, r3, r0
 131 000c 0B4A     		ldr	r2, .L17
 132 000e 1360     		str	r3, [r2]
  44:TxBuffer.c    ****     
  45:TxBuffer.c    ****     static uint8 *ptr;
  46:TxBuffer.c    ****     uint32 offset = tail;
 133              		.loc 1 46 0
 134 0010 D368     		ldr	r3, [r2, #12]
 135              	.LVL11:
 136              	.LBB3:
  47:TxBuffer.c    ****     
  48:TxBuffer.c    ****     for( uint32 i=0; i<num_bytes; i++ )
 137              		.loc 1 48 0
 138 0012 0022     		movs	r2, #0
 139 0014 0AE0     		b	.L12
 140              	.LVL12:
 141              	.L14:
  49:TxBuffer.c    ****     {
  50:TxBuffer.c    ****         ptr = (uint8*)(buffer + offset);
 142              		.loc 1 50 0
 143 0016 094C     		ldr	r4, .L17
 144 0018 A468     		ldr	r4, [r4, #8]
  51:TxBuffer.c    ****         data[i] = *ptr;
 145              		.loc 1 51 0
 146 001a E45C     		ldrb	r4, [r4, r3]
 147 001c 8C54     		strb	r4, [r1, r2]
  52:TxBuffer.c    ****         
  53:TxBuffer.c    ****         if( ++offset == TX_BUFFER_SIZE ) offset = 0;
 148              		.loc 1 53 0
 149 001e 0133     		adds	r3, r3, #1
 150              	.LVL13:
 151 0020 FA24     		movs	r4, #250
 152 0022 A400     		lsls	r4, r4, #2
 153 0024 A342     		cmp	r3, r4
 154 0026 00D1     		bne	.L13
 155 0028 0023     		movs	r3, #0
 156              	.LVL14:
 157              	.L13:
  48:TxBuffer.c    ****     {
 158              		.loc 1 48 0 discriminator 2
 159 002a 0132     		adds	r2, r2, #1
 160              	.LVL15:
 161              	.L12:
  48:TxBuffer.c    ****     {
 162              		.loc 1 48 0 is_stmt 0 discriminator 1
 163 002c 8242     		cmp	r2, r0
 164 002e F2D3     		bcc	.L14
 165              	.LBE3:
  54:TxBuffer.c    ****     }
  55:TxBuffer.c    ****     tail = offset;
 166              		.loc 1 55 0 is_stmt 1
 167 0030 024A     		ldr	r2, .L17
 168              	.LVL16:
ARM GAS  C:\Users\salaz\AppData\Local\Temp\ccNrmU9z.s 			page 5


 169 0032 D360     		str	r3, [r2, #12]
  56:TxBuffer.c    ****     
  57:TxBuffer.c    ****     return true;
 170              		.loc 1 57 0
 171 0034 0120     		movs	r0, #1
 172              	.LVL17:
 173 0036 00E0     		b	.L11
 174              	.LVL18:
 175              	.L15:
  41:TxBuffer.c    ****     }
 176              		.loc 1 41 0
 177 0038 0020     		movs	r0, #0
 178              	.LVL19:
 179              	.L11:
  58:TxBuffer.c    **** }
 180              		.loc 1 58 0
 181              		@ sp needed
 182 003a 10BD     		pop	{r4, pc}
 183              	.L18:
 184              		.align	2
 185              	.L17:
 186 003c 00000000 		.word	.LANCHOR0
 187              		.cfi_endproc
 188              	.LFE796:
 189              		.size	TxBuffer_BufferToMemory, .-TxBuffer_BufferToMemory
 190              		.section	.text.TxBuffer_Init,"ax",%progbits
 191              		.align	2
 192              		.global	TxBuffer_Init
 193              		.code	16
 194              		.thumb_func
 195              		.type	TxBuffer_Init, %function
 196              	TxBuffer_Init:
 197              	.LFB797:
  59:TxBuffer.c    **** //-------------------------------------------------------------//
  60:TxBuffer.c    **** //------------------------INITIALIZATION-----------------------//
  61:TxBuffer.c    **** //-------------------------------------------------------------//
  62:TxBuffer.c    **** 
  63:TxBuffer.c    **** void TxBuffer_Init()
  64:TxBuffer.c    **** {    
 198              		.loc 1 64 0
 199              		.cfi_startproc
 200              		@ args = 0, pretend = 0, frame = 0
 201              		@ frame_needed = 0, uses_anonymous_args = 0
 202 0000 10B5     		push	{r4, lr}
 203              		.cfi_def_cfa_offset 8
 204              		.cfi_offset 4, -8
 205              		.cfi_offset 14, -4
  65:TxBuffer.c    ****     buffer = (uint8*) malloc(TX_BUFFER_SIZE);
 206              		.loc 1 65 0
 207 0002 FA20     		movs	r0, #250
 208 0004 8000     		lsls	r0, r0, #2
 209 0006 FFF7FEFF 		bl	malloc
 210              	.LVL20:
 211 000a 074B     		ldr	r3, .L22
 212 000c 9860     		str	r0, [r3, #8]
  66:TxBuffer.c    ****     head = 0; tail = 0;
 213              		.loc 1 66 0
ARM GAS  C:\Users\salaz\AppData\Local\Temp\ccNrmU9z.s 			page 6


 214 000e 0022     		movs	r2, #0
 215 0010 5A60     		str	r2, [r3, #4]
 216 0012 DA60     		str	r2, [r3, #12]
 217              	.LVL21:
 218              	.LBB4:
  67:TxBuffer.c    ****     
  68:TxBuffer.c    ****     uint8 *ptr;
  69:TxBuffer.c    ****     for( uint32 offset=0; offset<TX_BUFFER_SIZE; offset++ )
 219              		.loc 1 69 0
 220 0014 0023     		movs	r3, #0
 221 0016 03E0     		b	.L20
 222              	.LVL22:
 223              	.L21:
  70:TxBuffer.c    ****     {
  71:TxBuffer.c    ****         ptr = (uint8*)(buffer + offset); *ptr = 0x00;
 224              		.loc 1 71 0 discriminator 3
 225 0018 C218     		adds	r2, r0, r3
 226              	.LVL23:
 227 001a 0021     		movs	r1, #0
 228 001c 1170     		strb	r1, [r2]
  69:TxBuffer.c    ****     {
 229              		.loc 1 69 0 discriminator 3
 230 001e 0133     		adds	r3, r3, #1
 231              	.LVL24:
 232              	.L20:
  69:TxBuffer.c    ****     {
 233              		.loc 1 69 0 is_stmt 0 discriminator 1
 234 0020 024A     		ldr	r2, .L22+4
 235 0022 9342     		cmp	r3, r2
 236 0024 F8D9     		bls	.L21
 237              	.LBE4:
  72:TxBuffer.c    ****     }
  73:TxBuffer.c    **** }
 238              		.loc 1 73 0 is_stmt 1
 239              		@ sp needed
 240 0026 10BD     		pop	{r4, pc}
 241              	.L23:
 242              		.align	2
 243              	.L22:
 244 0028 00000000 		.word	.LANCHOR0
 245 002c E7030000 		.word	999
 246              		.cfi_endproc
 247              	.LFE797:
 248              		.size	TxBuffer_Init, .-TxBuffer_Init
 249              		.bss
 250              		.align	2
 251              		.set	.LANCHOR0,. + 0
 252              		.type	size, %object
 253              		.size	size, 4
 254              	size:
 255 0000 00000000 		.space	4
 256              		.type	head, %object
 257              		.size	head, 4
 258              	head:
 259 0004 00000000 		.space	4
 260              		.type	buffer, %object
 261              		.size	buffer, 4
ARM GAS  C:\Users\salaz\AppData\Local\Temp\ccNrmU9z.s 			page 7


 262              	buffer:
 263 0008 00000000 		.space	4
 264              		.type	tail, %object
 265              		.size	tail, 4
 266              	tail:
 267 000c 00000000 		.space	4
 268              		.text
 269              	.Letext0:
 270              		.file 2 "c:\\program files (x86)\\cypress\\psoc creator\\4.2\\psoc creator\\import\\gnu\\arm\\5.4.
 271              		.file 3 "c:\\program files (x86)\\cypress\\psoc creator\\4.2\\psoc creator\\import\\gnu\\arm\\5.4.
 272              		.file 4 "Generated_Source\\PSoC6\\pdl\\drivers/peripheral/syslib/cy_syslib.h"
 273              		.file 5 "Generated_Source\\PSoC6\\pdl\\drivers/peripheral/tcpwm/cy_tcpwm_counter.h"
 274              		.file 6 "Generated_Source\\PSoC6\\pdl\\drivers/peripheral/tcpwm/cy_tcpwm_pwm.h"
 275              		.file 7 "Generated_Source\\PSoC6\\pdl\\drivers/peripheral/scb/cy_scb_i2c.h"
 276              		.file 8 "Generated_Source\\PSoC6\\pdl\\drivers/peripheral/scb/cy_scb_uart.h"
 277              		.file 9 "Generated_Source\\PSoC6\\pdl\\middleware/ble/cy_ble_stack.h"
 278              		.file 10 "Generated_Source\\PSoC6\\pdl\\middleware/ble/cy_ble_stack_host_main.h"
 279              		.file 11 "Generated_Source\\PSoC6\\pdl\\middleware/ble/cy_ble_gap.h"
 280              		.file 12 "Generated_Source\\PSoC6\\pdl\\drivers/peripheral/rtc/cy_rtc.h"
 281              		.file 13 "Generated_Source\\PSoC6/UART_DEBUG.h"
 282              		.file 14 "Generated_Source\\PSoC6/SensorBus.h"
 283              		.file 15 "Generated_Source\\PSoC6/LightOutputC.h"
 284              		.file 16 "Generated_Source\\PSoC6/LightOutputA.h"
 285              		.file 17 "Generated_Source\\PSoC6/LightTimer.h"
 286              		.file 18 "Generated_Source\\PSoC6/LightOutputB.h"
 287              		.file 19 "Generated_Source\\PSoC6/MotorOutput.h"
 288              		.file 20 "Generated_Source\\PSoC6/MotorTimer.h"
 289              		.file 21 "Generated_Source\\PSoC6/ChimeOutput.h"
 290              		.file 22 "Generated_Source\\PSoC6/ChimeTimer.h"
 291              		.file 23 "c:\\program files (x86)\\cypress\\psoc creator\\4.2\\psoc creator\\import\\gnu\\arm\\5.4